 bindings

 Timestamp is 56d5ca8d (Tue Mar  1 17:59:57 2016)

 Preferred load address is 0000000180000000

 Start         Length     Name                   Class
 0001:00000000 000001dbH .text                   CODE
 0001:000001e0 0006ead0H .text$mn                CODE
 0001:0006ecb0 00000012H .text$mn$00             CODE
 0001:0006ecd0 00000270H .text$x                 CODE
 0002:00000000 00000250H .idata$5                DATA
 0002:00000250 00000010H .00cfg                  DATA
 0002:00000260 00000008H .CRT$XCA                DATA
 0002:00000268 00000008H .CRT$XCU                DATA
 0002:00000270 00000008H .CRT$XCZ                DATA
 0002:00000278 00000008H .CRT$XIA                DATA
 0002:00000280 00000018H .CRT$XIC                DATA
 0002:00000298 00000008H .CRT$XIZ                DATA
 0002:000002a0 00000008H .CRT$XPA                DATA
 0002:000002a8 00000010H .CRT$XPX                DATA
 0002:000002b8 00000008H .CRT$XPXA               DATA
 0002:000002c0 00000008H .CRT$XPZ                DATA
 0002:000002c8 00000008H .CRT$XTA                DATA
 0002:000002d0 00000008H .CRT$XTZ                DATA
 0002:000002e0 00020894H .rdata                  DATA
 0002:00020b78 000001f4H .rdata$r                DATA
 0002:00020d70 00000010H .rdata$zETW0            DATA
 0002:00020d80 00000077H .rdata$zETW1            DATA
 0002:00020df7 0000002cH .rdata$zETW2            DATA
 0002:00020e23 00000001H .rdata$zETW9            DATA
 0002:00020e24 00000458H .rdata$zzzdbg           DATA
 0002:00021280 00000008H .rtc$IAA                DATA
 0002:00021288 00000008H .rtc$IZZ                DATA
 0002:00021290 00000008H .rtc$TAA                DATA
 0002:00021298 00000008H .rtc$TZZ                DATA
 0002:000212a0 00004380H .xdata                  DATA
 0002:00025620 000000ecH .xdata$x                DATA
 0002:0002570c 00000020H .didat$2                DATA
 0002:0002572c 00000020H .didat$3                DATA
 0002:00025750 000002b8H .didat$4                DATA
 0002:00025a08 00001736H .didat$6                DATA
 0002:00027140 000002b8H .didat$7                DATA
 0002:00027400 00004684H .edata                  DATA
 0002:0002ba84 00000028H .idata$2                DATA
 0002:0002baac 00000014H .idata$3                DATA
 0002:0002bac0 00000250H .idata$4                DATA
 0002:0002bd10 0000055cH .idata$6                DATA
 0003:00000000 00000d60H .data                   DATA
 0003:00000d60 000000a0H .data$r                 DATA
 0003:00000e00 000002b8H .didat$5                DATA
 0003:000010c0 00023588H .bss                    DATA
 0004:00000000 00003c18H .pdata                  DATA
 0005:00000000 0000007cH .gfids$x                DATA
 0005:0000007c 00000038H .gfids$y                DATA
 0006:00000000 00002f20H _RDATA                  DATA
 0007:00000000 00000058H .rsrc$01                DATA
 0007:00000060 00000180H .rsrc$02                DATA

  Address         Publics by Value              Rva+Base               Lib:Object

 0000:00000000       __guard_iat_count          0000000000000000     <absolute>
 0000:00000000       __guard_longjmp_table      0000000000000000     <absolute>
 0000:00000000       __guard_iat_table          0000000000000000     <absolute>
 0000:00000000       __guard_longjmp_count      0000000000000000     <absolute>
 0000:00000000       __guard_fids_count         0000000000000000     <absolute>
 0000:00000000       ___safe_se_handler_table   0000000000000000     <absolute>
 0000:00000000       ___safe_se_handler_count   0000000000000000     <absolute>
 0000:00000000       __guard_fids_table         0000000000000000     <absolute>
 0000:00000100       __guard_flags              0000000000000100     <absolute>
 0000:00000000       __ImageBase                0000000180000000     <linker-defined>
 0001:00000000       ?TraceLoggingRegister@__vcrt_trace_logging_provider@@YAJPEBU_TlgProvider_t@1@PEBU_GUID@@P6AX1KE_K2PEAU_EVENT_FILTER_DESCRIPTOR@@PEAX@Z4@Z 0000000180001000 f i libvcruntime:telemetry.obj
 0001:0000007c       ?_TlgEnableCallback@__vcrt_trace_logging_provider@@YAXPEBU_GUID@@KE_K1PEAU_EVENT_FILTER_DESCRIPTOR@@PEAX@Z 000000018000107c f i libvcruntime:telemetry.obj
 0001:00000140       ?_TlgWrite@__vcrt_trace_logging_provider@@YAJPEBU_TlgProvider_t@1@PEFBXPEBU_GUID@@2IPEAU_EVENT_DATA_DESCRIPTOR@@@Z 0000000180001140 f i libvcruntime:telemetry.obj
 0001:000001e0       ?space_name@HeapSpaceStatistics@v8@@QEAAPEBDXZ 00000001800011e0 f i bindings.obj
 0001:000001e0       ?GetIsolate@HandleScope@v8@@QEBAPEAVIsolate@2@XZ 00000001800011e0 f i bindings.obj
 0001:000001e0       ??DValue@String@v8@@QEAAPEAGXZ 00000001800011e0 f i bindings.obj
 0001:000001e0       ?Data@Contents@ArrayBuffer@v8@@QEBAPEAXXZ 00000001800011e0 f i bindings.obj
 0001:000001e0       ??DUtf8Value@String@v8@@QEBAPEBDXZ 00000001800011e0 f i bindings.obj
 0001:000001e0       ??DValue@String@v8@@QEBAPEBGXZ 00000001800011e0 f i bindings.obj
 0001:000001e0       ?Data@Contents@SharedArrayBuffer@v8@@QEBAPEAXXZ 00000001800011e0 f i bindings.obj
 0001:000001e0       ?impl@StreamedSource@ScriptCompiler@v8@@QEBAPEAU1internal@3@XZ 00000001800011e0 f i bindings.obj
 0001:000001e0       ?total_heap_size@HeapStatistics@v8@@QEAA_KXZ 00000001800011e0 f i bindings.obj
 0001:000001e0       ?object_type@HeapObjectStatistics@v8@@QEAAPEBDXZ 00000001800011e0 f i bindings.obj
 0001:000001e0       ??DUtf8Value@String@v8@@QEAAPEADXZ 00000001800011e0 f i bindings.obj
 0001:000001f0       ??4ArrayBufferView@v8@@QEAAAEAV01@$$QEAV01@@Z 00000001800011f0 f i bindings.obj
 0001:000001f0       ??4Float32Array@v8@@QEAAAEAV01@$$QEAV01@@Z 00000001800011f0 f i bindings.obj
 0001:000001f0       ?Cast@Name@v8@@SAPEAV12@PEAVValue@2@@Z 00000001800011f0 f i bindings.obj
 0001:000001f0       ??4RegExp@v8@@QEAAAEAV01@$$QEAV01@@Z 00000001800011f0 f i bindings.obj
 0001:000001f0       ??4JSON@v8@@QEAAAEAV01@AEBV01@@Z 00000001800011f0 f i bindings.obj
 0001:000001f0       ?Cast@Int32Array@v8@@SAPEAV12@PEAVValue@2@@Z 00000001800011f0 f i bindings.obj
 0001:000001f0       ??4FunctionTemplate@v8@@QEAAAEAV01@$$QEAV01@@Z 00000001800011f0 f i bindings.obj
 0001:000001f0       ??4Uint32Array@v8@@QEAAAEAV01@AEBV01@@Z 00000001800011f0 f i bindings.obj
 0001:000001f0       ??4Number@v8@@QEAAAEAV01@$$QEAV01@@Z 00000001800011f0 f i bindings.obj
 0001:000001f0       ?Cast@NumberObject@v8@@SAPEAV12@PEAVValue@2@@Z 00000001800011f0 f i bindings.obj
 0001:000001f0       ?Cast@Array@v8@@SAPEAV12@PEAVValue@2@@Z 00000001800011f0 f i bindings.obj
 0001:000001f0       ??4SymbolObject@v8@@QEAAAEAV01@$$QEAV01@@Z 00000001800011f0 f i bindings.obj
 0001:000001f0       ??4TypeSwitch@v8@@QEAAAEAV01@AEBV01@@Z 00000001800011f0 f i bindings.obj
 0001:000001f0       ??4AccessorSignature@v8@@QEAAAEAV01@$$QEAV01@@Z 00000001800011f0 f i bindings.obj
 0001:000001f0       ??4Name@v8@@QEAAAEAV01@$$QEAV01@@Z 00000001800011f0 f i bindings.obj
 0001:000001f0       ??4Function@v8@@QEAAAEAV01@$$QEAV01@@Z 00000001800011f0 f i bindings.obj
 0001:000001f0       ??4RegExp@v8@@QEAAAEAV01@AEBV01@@Z 00000001800011f0 f i bindings.obj
 0001:000001f0       ??4Boolean@v8@@QEAAAEAV01@AEBV01@@Z 00000001800011f0 f i bindings.obj
 0001:000001f0       ??4NumberObject@v8@@QEAAAEAV01@AEBV01@@Z 00000001800011f0 f i bindings.obj
 0001:000001f0       ??4Array@v8@@QEAAAEAV01@AEBV01@@Z 00000001800011f0 f i bindings.obj
 0001:000001f0       ??4Map@v8@@QEAAAEAV01@$$QEAV01@@Z 00000001800011f0 f i bindings.obj
 0001:000001f0       ??4DataView@v8@@QEAAAEAV01@AEBV01@@Z 00000001800011f0 f i bindings.obj
 0001:000001f0       ?Cast@Uint32Array@v8@@SAPEAV12@PEAVValue@2@@Z 00000001800011f0 f i bindings.obj
 0001:000001f0       ??4Exception@v8@@QEAAAEAV01@AEBV01@@Z 00000001800011f0 f i bindings.obj
 0001:000001f0       ?Cast@Uint16Array@v8@@SAPEAV12@PEAVValue@2@@Z 00000001800011f0 f i bindings.obj
 0001:000001f0       ??4BooleanObject@v8@@QEAAAEAV01@AEBV01@@Z 00000001800011f0 f i bindings.obj
 0001:000001f0       ??4DataView@v8@@QEAAAEAV01@$$QEAV01@@Z 00000001800011f0 f i bindings.obj
 0001:000001f0       ??4Context@v8@@QEAAAEAV01@$$QEAV01@@Z 00000001800011f0 f i bindings.obj
 0001:000001f0       ??4Function@v8@@QEAAAEAV01@AEBV01@@Z 00000001800011f0 f i bindings.obj
 0001:000001f0       ?Cast@Int8Array@v8@@SAPEAV12@PEAVValue@2@@Z 00000001800011f0 f i bindings.obj
 0001:000001f0       ??0HandleScope@v8@@IEAA@XZ 00000001800011f0 f i bindings.obj
 0001:000001f0       ??4JSON@v8@@QEAAAEAV01@$$QEAV01@@Z 00000001800011f0 f i bindings.obj
 0001:000001f0       ??4Array@v8@@QEAAAEAV01@$$QEAV01@@Z 00000001800011f0 f i bindings.obj
 0001:000001f0       ?Cast@Integer@v8@@SAPEAV12@PEAVValue@2@@Z 00000001800011f0 f i bindings.obj
 0001:000001f0       ?Cast@SymbolObject@v8@@SAPEAV12@PEAVValue@2@@Z 00000001800011f0 f i bindings.obj
 0001:000001f0       ??4SharedArrayBuffer@v8@@QEAAAEAV01@$$QEAV01@@Z 00000001800011f0 f i bindings.obj
 0001:000001f0       ??4Exception@v8@@QEAAAEAV01@$$QEAV01@@Z 00000001800011f0 f i bindings.obj
 0001:000001f0       ??4ExternalSourceStream@ScriptCompiler@v8@@QEAAAEAV012@AEBV012@@Z 00000001800011f0 f i bindings.obj
 0001:000001f0       ??4Promise@v8@@QEAAAEAV01@$$QEAV01@@Z 00000001800011f0 f i bindings.obj
 0001:000001f0       ?Cast@DataView@v8@@SAPEAV12@PEAVValue@2@@Z 00000001800011f0 f i bindings.obj
 0001:000001f0       ?Cast@SharedArrayBuffer@v8@@SAPEAV12@PEAVValue@2@@Z 00000001800011f0 f i bindings.obj
 0001:000001f0       ??4String@v8@@QEAAAEAV01@$$QEAV01@@Z 00000001800011f0 f i bindings.obj
 0001:000001f0       ??4FunctionTemplate@v8@@QEAAAEAV01@AEBV01@@Z 00000001800011f0 f i bindings.obj
 0001:000001f0       ??4Value@v8@@QEAAAEAV01@$$QEAV01@@Z 00000001800011f0 f i bindings.obj
 0001:000001f0       ??4Number@v8@@QEAAAEAV01@AEBV01@@Z 00000001800011f0 f i bindings.obj
 0001:000001f0       ??4Set@v8@@QEAAAEAV01@AEBV01@@Z 00000001800011f0 f i bindings.obj
 0001:000001f0       ?Cast@Object@v8@@SAPEAV12@PEAVValue@2@@Z 00000001800011f0 f i bindings.obj
 0001:000001f0       ??4Name@v8@@QEAAAEAV01@AEBV01@@Z 00000001800011f0 f i bindings.obj
 0001:000001f0       ?Cast@External@v8@@SAPEAV12@PEAVValue@2@@Z 00000001800011f0 f i bindings.obj
 0001:000001f0       ??4String@v8@@QEAAAEAV01@AEBV01@@Z 00000001800011f0 f i bindings.obj
 0001:000001f0       ??4Int8Array@v8@@QEAAAEAV01@AEBV01@@Z 00000001800011f0 f i bindings.obj
 0001:000001f0       ??4External@v8@@QEAAAEAV01@AEBV01@@Z 00000001800011f0 f i bindings.obj
 0001:000001f0       ??4Uint32Array@v8@@QEAAAEAV01@$$QEAV01@@Z 00000001800011f0 f i bindings.obj
 0001:000001f0       ??4Signature@v8@@QEAAAEAV01@$$QEAV01@@Z 00000001800011f0 f i bindings.obj
 0001:000001f0       ??4AccessorSignature@v8@@QEAAAEAV01@AEBV01@@Z 00000001800011f0 f i bindings.obj
 0001:000001f0       ??4StackTrace@v8@@QEAAAEAV01@AEBV01@@Z 00000001800011f0 f i bindings.obj
 0001:000001f0       ?Cast@Boolean@v8@@SAPEAV12@PEAVValue@2@@Z 00000001800011f0 f i bindings.obj
 0001:000001f0       ??4StackFrame@v8@@QEAAAEAV01@AEBV01@@Z 00000001800011f0 f i bindings.obj
 0001:000001f0       ??4Integer@v8@@QEAAAEAV01@AEBV01@@Z 00000001800011f0 f i bindings.obj
 0001:000001f0       ??4Uint16Array@v8@@QEAAAEAV01@AEBV01@@Z 00000001800011f0 f i bindings.obj
 0001:000001f0       ??4Map@v8@@QEAAAEAV01@AEBV01@@Z 00000001800011f0 f i bindings.obj
 0001:000001f0       ?Cast@Uint8ClampedArray@v8@@SAPEAV12@PEAVValue@2@@Z 00000001800011f0 f i bindings.obj
 0001:000001f0       ??4ScriptCompiler@v8@@QEAAAEAV01@AEBV01@@Z 00000001800011f0 f i bindings.obj
 0001:000001f0       ?Cast@Uint32@v8@@SAPEAV12@PEAVValue@2@@Z 00000001800011f0 f i bindings.obj
 0001:000001f0       ??4Symbol@v8@@QEAAAEAV01@$$QEAV01@@Z 00000001800011f0 f i bindings.obj
 0001:000001f0       ?Cast@Symbol@v8@@SAPEAV12@PEAVValue@2@@Z 00000001800011f0 f i bindings.obj
 0001:000001f0       ??4Symbol@v8@@QEAAAEAV01@AEBV01@@Z 00000001800011f0 f i bindings.obj
 0001:000001f0       ?Cast@Function@v8@@SAPEAV12@PEAVValue@2@@Z 00000001800011f0 f i bindings.obj
 0001:000001f0       ?Cast@Float64Array@v8@@SAPEAV12@PEAVValue@2@@Z 00000001800011f0 f i bindings.obj
 0001:000001f0       ?Cast@Resolver@Promise@v8@@SAPEAV123@PEAVValue@3@@Z 00000001800011f0 f i bindings.obj
 0001:000001f0       ??4Uint8Array@v8@@QEAAAEAV01@$$QEAV01@@Z 00000001800011f0 f i bindings.obj
 0001:000001f0       ??4Date@v8@@QEAAAEAV01@$$QEAV01@@Z 00000001800011f0 f i bindings.obj
 0001:000001f0       ?Cast@Promise@v8@@SAPEAV12@PEAVValue@2@@Z 00000001800011f0 f i bindings.obj
 0001:000001f0       ?Cast@TypedArray@v8@@SAPEAV12@PEAVValue@2@@Z 00000001800011f0 f i bindings.obj
 0001:000001f0       ??4StackFrame@v8@@QEAAAEAV01@$$QEAV01@@Z 00000001800011f0 f i bindings.obj
 0001:000001f0       ??4UnboundScript@v8@@QEAAAEAV01@AEBV01@@Z 00000001800011f0 f i bindings.obj
 0001:000001f0       ??4External@v8@@QEAAAEAV01@$$QEAV01@@Z 00000001800011f0 f i bindings.obj
 0001:000001f0       ??4ExternalResourceVisitor@v8@@QEAAAEAV01@AEBV01@@Z 00000001800011f0 f i bindings.obj
 0001:000001f0       ??4V8@v8@@QEAAAEAV01@$$QEAV01@@Z 00000001800011f0 f i bindings.obj
 0001:000001f0       ??4Script@v8@@QEAAAEAV01@AEBV01@@Z 00000001800011f0 f i bindings.obj
 0001:000001f0       ?Cast@Date@v8@@SAPEAV12@PEAVValue@2@@Z 00000001800011f0 f i bindings.obj
 0001:000001f0       ??4Int32Array@v8@@QEAAAEAV01@AEBV01@@Z 00000001800011f0 f i bindings.obj
 0001:000001f0       ??4BooleanObject@v8@@QEAAAEAV01@$$QEAV01@@Z 00000001800011f0 f i bindings.obj
 0001:000001f0       ??4Uint32@v8@@QEAAAEAV01@AEBV01@@Z 00000001800011f0 f i bindings.obj
 0001:000001f0       ??4PersistentHandleVisitor@v8@@QEAAAEAV01@AEBV01@@Z 00000001800011f0 f i bindings.obj
 0001:000001f0       ??4Set@v8@@QEAAAEAV01@$$QEAV01@@Z 00000001800011f0 f i bindings.obj
 0001:000001f0       ??4Float64Array@v8@@QEAAAEAV01@AEBV01@@Z 00000001800011f0 f i bindings.obj
 0001:000001f0       ??4SymbolObject@v8@@QEAAAEAV01@AEBV01@@Z 00000001800011f0 f i bindings.obj
 0001:000001f0       ?Cast@Uint8Array@v8@@SAPEAV12@PEAVValue@2@@Z 00000001800011f0 f i bindings.obj
 0001:000001f0       ??4Object@v8@@QEAAAEAV01@AEBV01@@Z 00000001800011f0 f i bindings.obj
 0001:000001f0       ??4Uint16Array@v8@@QEAAAEAV01@$$QEAV01@@Z 00000001800011f0 f i bindings.obj
 0001:000001f0       ??4TypedArray@v8@@QEAAAEAV01@AEBV01@@Z 00000001800011f0 f i bindings.obj
 0001:000001f0       ??4Data@v8@@QEAAAEAV01@$$QEAV01@@Z 00000001800011f0 f i bindings.obj
 0001:000001f0       ??4ObjectTemplate@v8@@QEAAAEAV01@AEBV01@@Z 00000001800011f0 f i bindings.obj
 0001:000001f0       ??4Int32@v8@@QEAAAEAV01@AEBV01@@Z 00000001800011f0 f i bindings.obj
 0001:000001f0       ??4Script@v8@@QEAAAEAV01@$$QEAV01@@Z 00000001800011f0 f i bindings.obj
 0001:000001f0       ?Cast@Int16Array@v8@@SAPEAV12@PEAVValue@2@@Z 00000001800011f0 f i bindings.obj
 0001:000001f0       ??4Int32Array@v8@@QEAAAEAV01@$$QEAV01@@Z 00000001800011f0 f i bindings.obj
 0001:000001f0       ??4ArrayBufferView@v8@@QEAAAEAV01@AEBV01@@Z 00000001800011f0 f i bindings.obj
 0001:000001f0       ??4Int16Array@v8@@QEAAAEAV01@$$QEAV01@@Z 00000001800011f0 f i bindings.obj
 0001:000001f0       ??4Template@v8@@QEAAAEAV01@$$QEAV01@@Z 00000001800011f0 f i bindings.obj
 0001:000001f0       ??4Message@v8@@QEAAAEAV01@$$QEAV01@@Z 00000001800011f0 f i bindings.obj
 0001:000001f0       ??4UnboundScript@v8@@QEAAAEAV01@$$QEAV01@@Z 00000001800011f0 f i bindings.obj
 0001:000001f0       ??4StackTrace@v8@@QEAAAEAV01@$$QEAV01@@Z 00000001800011f0 f i bindings.obj
 0001:000001f0       ??4Int32@v8@@QEAAAEAV01@$$QEAV01@@Z 00000001800011f0 f i bindings.obj
 0001:000001f0       ?Cast@Number@v8@@SAPEAV12@PEAVValue@2@@Z 00000001800011f0 f i bindings.obj
 0001:000001f0       ??4Context@v8@@QEAAAEAV01@AEBV01@@Z 00000001800011f0 f i bindings.obj
 0001:000001f0       ??4StringObject@v8@@QEAAAEAV01@$$QEAV01@@Z 00000001800011f0 f i bindings.obj
 0001:000001f0       ?Cast@RegExp@v8@@SAPEAV12@PEAVValue@2@@Z 00000001800011f0 f i bindings.obj
 0001:000001f0       ?Cast@ArrayBuffer@v8@@SAPEAV12@PEAVValue@2@@Z 00000001800011f0 f i bindings.obj
 0001:000001f0       ??4Object@v8@@QEAAAEAV01@$$QEAV01@@Z 00000001800011f0 f i bindings.obj
 0001:000001f0       ??4Uint8ClampedArray@v8@@QEAAAEAV01@$$QEAV01@@Z 00000001800011f0 f i bindings.obj
 0001:000001f0       ??4Uint32@v8@@QEAAAEAV01@$$QEAV01@@Z 00000001800011f0 f i bindings.obj
 0001:000001f0       ??4Resolver@Promise@v8@@QEAAAEAV012@$$QEAV012@@Z 00000001800011f0 f i bindings.obj
 0001:000001f0       ?Cast@Int32@v8@@SAPEAV12@PEAVValue@2@@Z 00000001800011f0 f i bindings.obj
 0001:000001f0       ??4Integer@v8@@QEAAAEAV01@$$QEAV01@@Z 00000001800011f0 f i bindings.obj
 0001:000001f0       ??4TypedArray@v8@@QEAAAEAV01@$$QEAV01@@Z 00000001800011f0 f i bindings.obj
 0001:000001f0       ?Cast@ArrayBufferView@v8@@SAPEAV12@PEAVValue@2@@Z 00000001800011f0 f i bindings.obj
 0001:000001f0       ??4V8@v8@@QEAAAEAV01@AEBV01@@Z 00000001800011f0 f i bindings.obj
 0001:000001f0       ??4Primitive@v8@@QEAAAEAV01@$$QEAV01@@Z 00000001800011f0 f i bindings.obj
 0001:000001f0       ??4Date@v8@@QEAAAEAV01@AEBV01@@Z 00000001800011f0 f i bindings.obj
 0001:000001f0       ??4ArrayBuffer@v8@@QEAAAEAV01@$$QEAV01@@Z 00000001800011f0 f i bindings.obj
 0001:000001f0       ??4SharedArrayBuffer@v8@@QEAAAEAV01@AEBV01@@Z 00000001800011f0 f i bindings.obj
 0001:000001f0       ??4Int8Array@v8@@QEAAAEAV01@$$QEAV01@@Z 00000001800011f0 f i bindings.obj
 0001:000001f0       ??4Message@v8@@QEAAAEAV01@AEBV01@@Z 00000001800011f0 f i bindings.obj
 0001:000001f0       ??4StringObject@v8@@QEAAAEAV01@AEBV01@@Z 00000001800011f0 f i bindings.obj
 0001:000001f0       ?Cast@Map@v8@@SAPEAV12@PEAVValue@2@@Z 00000001800011f0 f i bindings.obj
 0001:000001f0       ??4Allocator@ArrayBuffer@v8@@QEAAAEAV012@AEBV012@@Z 00000001800011f0 f i bindings.obj
 0001:000001f0       ?Cast@Set@v8@@SAPEAV12@PEAVValue@2@@Z 00000001800011f0 f i bindings.obj
 0001:000001f0       ??4Float64Array@v8@@QEAAAEAV01@$$QEAV01@@Z 00000001800011f0 f i bindings.obj
 0001:000001f0       ?Cast@Float32Array@v8@@SAPEAV12@PEAVValue@2@@Z 00000001800011f0 f i bindings.obj
 0001:000001f0       ??4Value@v8@@QEAAAEAV01@AEBV01@@Z 00000001800011f0 f i bindings.obj
 0001:000001f0       ??4Uint8Array@v8@@QEAAAEAV01@AEBV01@@Z 00000001800011f0 f i bindings.obj
 0001:000001f0       ??4Template@v8@@QEAAAEAV01@AEBV01@@Z 00000001800011f0 f i bindings.obj
 0001:000001f0       ?Cast@BooleanObject@v8@@SAPEAV12@PEAVValue@2@@Z 00000001800011f0 f i bindings.obj
 0001:000001f0       ??4ScriptCompiler@v8@@QEAAAEAV01@$$QEAV01@@Z 00000001800011f0 f i bindings.obj
 0001:000001f0       ??4Signature@v8@@QEAAAEAV01@AEBV01@@Z 00000001800011f0 f i bindings.obj
 0001:000001f0       ?Cast@StringObject@v8@@SAPEAV12@PEAVValue@2@@Z 00000001800011f0 f i bindings.obj
 0001:000001f0       ??4TypeSwitch@v8@@QEAAAEAV01@$$QEAV01@@Z 00000001800011f0 f i bindings.obj
 0001:000001f0       ??4Int16Array@v8@@QEAAAEAV01@AEBV01@@Z 00000001800011f0 f i bindings.obj
 0001:000001f0       ??4NativeWeakMap@v8@@QEAAAEAV01@$$QEAV01@@Z 00000001800011f0 f i bindings.obj
 0001:000001f0       ??4NumberObject@v8@@QEAAAEAV01@$$QEAV01@@Z 00000001800011f0 f i bindings.obj
 0001:000001f0       ?Cast@String@v8@@SAPEAV12@PEAVValue@2@@Z 00000001800011f0 f i bindings.obj
 0001:000001f0       ??4Boolean@v8@@QEAAAEAV01@$$QEAV01@@Z 00000001800011f0 f i bindings.obj
 0001:000001f0       ??4Promise@v8@@QEAAAEAV01@AEBV01@@Z 00000001800011f0 f i bindings.obj
 0001:000001f0       ??4Primitive@v8@@QEAAAEAV01@AEBV01@@Z 00000001800011f0 f i bindings.obj
 0001:000001f0       ??4Data@v8@@QEAAAEAV01@AEBV01@@Z 00000001800011f0 f i bindings.obj
 0001:000001f0       ??4Float32Array@v8@@QEAAAEAV01@AEBV01@@Z 00000001800011f0 f i bindings.obj
 0001:000001f0       ??4ArrayBuffer@v8@@QEAAAEAV01@AEBV01@@Z 00000001800011f0 f i bindings.obj
 0001:000001f0       ??4ObjectTemplate@v8@@QEAAAEAV01@$$QEAV01@@Z 00000001800011f0 f i bindings.obj
 0001:000001f0       ??4Uint8ClampedArray@v8@@QEAAAEAV01@AEBV01@@Z 00000001800011f0 f i bindings.obj
 0001:000001f0       ??4NativeWeakMap@v8@@QEAAAEAV01@AEBV01@@Z 00000001800011f0 f i bindings.obj
 0001:000001f0       ??4Resolver@Promise@v8@@QEAAAEAV012@AEBV012@@Z 00000001800011f0 f i bindings.obj
 0001:00000200       ??1EscapableHandleScope@v8@@QEAA@XZ 0000000180001200 f i bindings.obj
 0001:00000210       ?GetId@Script@v8@@QEAAHXZ  0000000180001210 f i bindings.obj
 0001:00000230       ??0CachedData@ScriptCompiler@v8@@QEAA@XZ 0000000180001230 f i bindings.obj
 0001:00000250       ??1ExternalSourceStream@ScriptCompiler@v8@@UEAA@XZ 0000000180001250 f i bindings.obj
 0001:00000260       ??0ExternalSourceStream@ScriptCompiler@v8@@QEAA@AEBV012@@Z 0000000180001260 f i bindings.obj
 0001:00000260       ??0ExternalSourceStream@ScriptCompiler@v8@@QEAA@XZ 0000000180001260 f i bindings.obj
 0001:00000270       ??_EExternalSourceStream@ScriptCompiler@v8@@UEAAPEAXI@Z 0000000180001270 f i bindings.obj
 0001:00000300       ??1ExternalOneByteStringResource@String@v8@@UEAA@XZ 0000000180001300 f i bindings.obj
 0001:00000300       ??1ExternalStringResource@String@v8@@UEAA@XZ 0000000180001300 f i bindings.obj
 0001:00000300       ??1ExternalOneByteStringResourceImpl@v8@@UEAA@XZ 0000000180001300 f i bindings.obj
 0001:00000300       ??1ExternalStringResourceBase@String@v8@@UEAA@XZ 0000000180001300 f i bindings.obj
 0001:00000310       ??0ExternalStringResourceBase@String@v8@@IEAA@XZ 0000000180001310 f i bindings.obj
 0001:00000320       ?Dispose@ExternalStringResourceBase@String@v8@@MEAAXXZ 0000000180001320 f i bindings.obj
 0001:00000340       ??0ExternalStringResource@String@v8@@IEAA@XZ 0000000180001340 f i bindings.obj
 0001:00000340       ??0ExternalOneByteStringResource@String@v8@@IEAA@XZ 0000000180001340 f i bindings.obj
 0001:00000350       ?length@Utf8Value@String@v8@@QEBAHXZ 0000000180001350 f i bindings.obj
 0001:00000350       ?length@Value@String@v8@@QEBAHXZ 0000000180001350 f i bindings.obj
 0001:00000350       ?max_executable_size@ResourceConstraints@v8@@QEBAHXZ 0000000180001350 f i bindings.obj
 0001:00000360       ?InternalFieldCount@Object@v8@@SAHAEBV?$PersistentBase@VObject@v8@@@2@@Z 0000000180001360 f i bindings.obj
 0001:00000370       ?GetAlignedPointerFromInternalField@Object@v8@@SAPEAXAEBV?$PersistentBase@VObject@v8@@@2@H@Z 0000000180001370 f i bindings.obj
 0001:000003a0       ?NewInstance@Function@v8@@QEBA?AV?$MaybeLocal@VObject@v8@@@2@V?$Local@VContext@v8@@@2@@Z 00000001800013a0 f i bindings.obj
 0001:000003d0       ??1Allocator@ArrayBuffer@v8@@UEAA@XZ 00000001800013d0 f i bindings.obj
 0001:000003e0       ??0Contents@SharedArrayBuffer@v8@@QEAA@XZ 00000001800013e0 f i bindings.obj
 0001:000003e0       ??0Contents@ArrayBuffer@v8@@QEAA@XZ 00000001800013e0 f i bindings.obj
 0001:000003f0       ?ByteLength@Contents@SharedArrayBuffer@v8@@QEBA_KXZ 00000001800013f0 f i bindings.obj
 0001:000003f0       ?name@Extension@v8@@QEBAPEBDXZ 00000001800013f0 f i bindings.obj
 0001:000003f0       ?data@ExternalOneByteStringResourceImpl@v8@@UEBAPEBDXZ 00000001800013f0 f i bindings.obj
 0001:000003f0       ?space_size@HeapSpaceStatistics@v8@@QEAA_KXZ 00000001800013f0 f i bindings.obj
 0001:000003f0       ?object_sub_type@HeapObjectStatistics@v8@@QEAAPEBDXZ 00000001800013f0 f i bindings.obj
 0001:000003f0       ?total_heap_size_executable@HeapStatistics@v8@@QEAA_KXZ 00000001800013f0 f i bindings.obj
 0001:000003f0       ?begin@ExtensionConfiguration@v8@@QEBAPEAPEBDXZ 00000001800013f0 f i bindings.obj
 0001:000003f0       ?ByteLength@Contents@ArrayBuffer@v8@@QEBA_KXZ 00000001800013f0 f i bindings.obj
 0001:00000400       ?SetIndexedPropertyHandler@ObjectTemplate@v8@@QEAAXP6AXIAEBV?$PropertyCallbackInfo@VValue@v8@@@2@@ZP6AXIV?$Local@VValue@v8@@@2@0@ZP6AXIAEBV?$PropertyCallbackInfo@VInteger@v8@@@2@@ZP6AXIAEBV?$PropertyCallbackInfo@VBoolean@v8@@@2@@ZP6AXAEBV?$PropertyCallbackInfo@VArray@v8@@@2@@Z2@Z 0000000180001400 f i bindings.obj
 0001:00000450       ??0ExternalOneByteStringResourceImpl@v8@@QEAA@XZ 0000000180001450 f i bindings.obj
 0001:00000470       ??0ExternalOneByteStringResourceImpl@v8@@QEAA@PEBD_K@Z 0000000180001470 f i bindings.obj
 0001:00000490       ?stack_limit@ResourceConstraints@v8@@QEBAPEAIXZ 0000000180001490 f i bindings.obj
 0001:00000490       ?source_length@Extension@v8@@QEBA_KXZ 0000000180001490 f i bindings.obj
 0001:00000490       ?space_used_size@HeapSpaceStatistics@v8@@QEAA_KXZ 0000000180001490 f i bindings.obj
 0001:00000490       ?total_physical_size@HeapStatistics@v8@@QEAA_KXZ 0000000180001490 f i bindings.obj
 0001:00000490       ?object_count@HeapObjectStatistics@v8@@QEAA_KXZ 0000000180001490 f i bindings.obj
 0001:00000490       ?length@ExternalOneByteStringResourceImpl@v8@@UEBA_KXZ 0000000180001490 f i bindings.obj
 0001:000004a0       ??1Extension@v8@@UEAA@XZ   00000001800014a0 f i bindings.obj
 0001:000004c0       ?GetNativeFunctionTemplate@Extension@v8@@UEAA?AV?$Local@VFunctionTemplate@v8@@@2@PEAVIsolate@2@V?$Local@VString@v8@@@2@@Z 00000001800014c0 f i bindings.obj
 0001:000004d0       ?source@Extension@v8@@QEBAPEBVExternalOneByteStringResource@String@2@XZ 00000001800014d0 f i bindings.obj
 0001:000004e0       ?dependency_count@Extension@v8@@QEAAHXZ 00000001800014e0 f i bindings.obj
 0001:000004f0       ?dependencies@Extension@v8@@QEAAPEAPEBDXZ 00000001800014f0 f i bindings.obj
 0001:00000500       ?set_auto_enable@Extension@v8@@QEAAX_N@Z 0000000180001500 f i bindings.obj
 0001:00000510       ?auto_enable@Extension@v8@@QEAA_NXZ 0000000180001510 f i bindings.obj
 0001:00000520       ?max_semi_space_size@ResourceConstraints@v8@@QEBAHXZ 0000000180001520 f i bindings.obj
 0001:00000530       ?set_max_semi_space_size@ResourceConstraints@v8@@QEAAXH@Z 0000000180001530 f i bindings.obj
 0001:00000540       ?max_old_space_size@ResourceConstraints@v8@@QEBAHXZ 0000000180001540 f i bindings.obj
 0001:00000550       ?set_max_old_space_size@ResourceConstraints@v8@@QEAAXH@Z 0000000180001550 f i bindings.obj
 0001:00000560       ?set_max_executable_size@ResourceConstraints@v8@@QEAAXH@Z 0000000180001560 f i bindings.obj
 0001:00000570       ?set_stack_limit@ResourceConstraints@v8@@QEAAXPEAI@Z 0000000180001570 f i bindings.obj
 0001:00000580       ?max_available_threads@ResourceConstraints@v8@@QEBAHXZ 0000000180001580 f i bindings.obj
 0001:00000590       ?set_max_available_threads@ResourceConstraints@v8@@QEAAXH@Z 0000000180001590 f i bindings.obj
 0001:000005a0       ?used_heap_size@HeapStatistics@v8@@QEAA_KXZ 00000001800015a0 f i bindings.obj
 0001:000005a0       ?code_range_size@ResourceConstraints@v8@@QEBA_KXZ 00000001800015a0 f i bindings.obj
 0001:000005a0       ?physical_space_size@HeapSpaceStatistics@v8@@QEAA_KXZ 00000001800015a0 f i bindings.obj
 0001:000005b0       ?set_code_range_size@ResourceConstraints@v8@@QEAAX_K@Z 00000001800015b0 f i bindings.obj
 0001:000005c0       ?object_size@HeapObjectStatistics@v8@@QEAA_KXZ 00000001800015c0 f i bindings.obj
 0001:000005c0       ?space_available_size@HeapSpaceStatistics@v8@@QEAA_KXZ 00000001800015c0 f i bindings.obj
 0001:000005c0       ?total_available_size@HeapStatistics@v8@@QEAA_KXZ 00000001800015c0 f i bindings.obj
 0001:000005d0       ?heap_size_limit@HeapStatistics@v8@@QEAA_KXZ 00000001800015d0 f i bindings.obj
 0001:000005e0       ??1ExternalResourceVisitor@v8@@UEAA@XZ 00000001800015e0 f i bindings.obj
 0001:000005e0       ??1PersistentHandleVisitor@v8@@UEAA@XZ 00000001800015e0 f i bindings.obj
 0001:000005f0       ?VisitExternalString@ExternalResourceVisitor@v8@@UEAAXV?$Local@VString@v8@@@2@@Z 00000001800015f0 f i bindings.obj
 0001:000005f0       __except_validate_context_record 00000001800015f0 f i libvcruntime:jbcxrval.obj
 0001:000005f0       ?VisitPersistentHandle@PersistentHandleVisitor@v8@@UEAAXPEAV?$Persistent@VValue@v8@@V?$NonCopyablePersistentTraits@VValue@v8@@@2@@2@G@Z 00000001800015f0 f i bindings.obj
 0001:000005f0       ?node_mpg123_exit@nodelame@@YAXAEBV?$FunctionCallbackInfo@VValue@v8@@@Nan@@@Z 00000001800015f0 f i node_mpg123.obj
 0001:000005f0       _guard_check_icall_nop     00000001800015f0 f i LIBCMT:guard_support.obj
 0001:00000600       ??0Scope@Isolate@v8@@QEAA@PEAV12@@Z 0000000180001600 f i bindings.obj
 0001:00000620       ??1Scope@Isolate@v8@@QEAA@XZ 0000000180001620 f i bindings.obj
 0001:00000630       ?JSStackComparableAddress@TryCatch@v8@@SAPEAXPEAV12@@Z 0000000180001630 f i bindings.obj
 0001:00000640       ??0ExtensionConfiguration@v8@@QEAA@XZ 0000000180001640 f i bindings.obj
 0001:00000650       ??0ExtensionConfiguration@v8@@QEAA@HQEAPEBD@Z 0000000180001650 f i bindings.obj
 0001:00000660       ?end@ExtensionConfiguration@v8@@QEBAPEAPEBDXZ 0000000180001660 f i bindings.obj
 0001:00000670       ??0Unlocker@v8@@QEAA@PEAVIsolate@1@@Z 0000000180001670 f i bindings.obj
 0001:00000690       ??0Locker@v8@@QEAA@PEAVIsolate@1@@Z 0000000180001690 f i bindings.obj
 0001:000006b0       ?New@Boolean@v8@@SA?AV?$Local@VBoolean@v8@@@2@PEAVIsolate@2@_N@Z 00000001800016b0 f i bindings.obj
 0001:000006d0       ?Set@Template@v8@@QEAAXPEAVIsolate@2@PEBDV?$Local@VData@v8@@@2@@Z 00000001800016d0 f i bindings.obj
 0001:00000730       ?GetInternalField@Object@v8@@QEAA?AV?$Local@VValue@v8@@@2@H@Z 0000000180001730 f i bindings.obj
 0001:00000780       ?GetAlignedPointerFromInternalField@Object@v8@@QEAAPEAXH@Z 0000000180001780 f i bindings.obj
 0001:000007a0       ?Empty@String@v8@@SA?AV?$Local@VString@v8@@@2@PEAVIsolate@2@@Z 00000001800017a0 f i bindings.obj
 0001:000007b0       ?GetExternalStringResource@String@v8@@QEBAPEAVExternalStringResource@12@XZ 00000001800017b0 f i bindings.obj
 0001:000007d0       ?GetExternalStringResourceBase@String@v8@@QEBAPEAVExternalStringResourceBase@12@PEAW4Encoding@12@@Z 00000001800017d0 f i bindings.obj
 0001:00000800       ?IsUndefined@Value@v8@@QEBA_NXZ 0000000180001800 f i bindings.obj
 0001:00000830       ?QuickIsUndefined@Value@v8@@AEBA_NXZ 0000000180001830 f i bindings.obj
 0001:00000860       ?IsNull@Value@v8@@QEBA_NXZ 0000000180001860 f i bindings.obj
 0001:00000890       ?QuickIsNull@Value@v8@@AEBA_NXZ 0000000180001890 f i bindings.obj
 0001:000008c0       ?IsString@Value@v8@@QEBA_NXZ 00000001800018c0 f i bindings.obj
 0001:000008f0       ?QuickIsString@Value@v8@@AEBA_NXZ 00000001800018f0 f i bindings.obj
 0001:00000920       ?ToBoolean@Value@v8@@QEBA?AV?$Local@VBoolean@v8@@@2@XZ 0000000180001920 f i bindings.obj
 0001:00000970       ?ToNumber@Value@v8@@QEBA?AV?$Local@VNumber@v8@@@2@XZ 0000000180001970 f i bindings.obj
 0001:000009c0       ?ToString@Value@v8@@QEBA?AV?$Local@VString@v8@@@2@XZ 00000001800019c0 f i bindings.obj
 0001:00000a10       ?ToDetailString@Value@v8@@QEBA?AV?$Local@VString@v8@@@2@XZ 0000000180001a10 f i bindings.obj
 0001:00000a60       ?ToObject@Value@v8@@QEBA?AV?$Local@VObject@v8@@@2@XZ 0000000180001a60 f i bindings.obj
 0001:00000ab0       ?ToInteger@Value@v8@@QEBA?AV?$Local@VInteger@v8@@@2@XZ 0000000180001ab0 f i bindings.obj
 0001:00000b00       ?ToUint32@Value@v8@@QEBA?AV?$Local@VUint32@v8@@@2@XZ 0000000180001b00 f i bindings.obj
 0001:00000b50       ?ToInt32@Value@v8@@QEBA?AV?$Local@VInt32@v8@@@2@XZ 0000000180001b50 f i bindings.obj
 0001:00000ba0       ?SetData@Isolate@v8@@QEAAXIPEAX@Z 0000000180001ba0 f i bindings.obj
 0001:00000bb0       ?GetData@Isolate@v8@@QEAAPEAXI@Z 0000000180001bb0 f i bindings.obj
 0001:00000bc0       ?GetNumberOfDataSlots@Isolate@v8@@SAIXZ 0000000180001bc0 f i bindings.obj
 0001:00000bd0       ?AdjustAmountOfExternalAllocatedMemory@Isolate@v8@@QEAA_J_J@Z 0000000180001bd0 f i bindings.obj
 0001:00000c30       ?GetEmbedderData@Context@v8@@QEAA?AV?$Local@VValue@v8@@@2@H@Z 0000000180001c30 f i bindings.obj
 0001:00000c60       ?GetAlignedPointerFromEmbedderData@Context@v8@@QEAAPEAXH@Z 0000000180001c60 f i bindings.obj
 0001:00000c80       ?SetAllowCodeGenerationFromStringsCallback@V8@v8@@SAXP6A_NV?$Local@VContext@v8@@@2@@Z@Z 0000000180001c80 f i bindings.obj
 0001:00000cb0       ?IsDead@V8@v8@@SA_NXZ      0000000180001cb0 f i bindings.obj
 0001:00000cd0       ?AddMessageListener@V8@v8@@SA_NP6AXV?$Local@VMessage@v8@@@2@V?$Local@VValue@v8@@@2@@Z1@Z 0000000180001cd0 f i bindings.obj
 0001:00000d00       ?RemoveMessageListeners@V8@v8@@SAXP6AXV?$Local@VMessage@v8@@@2@V?$Local@VValue@v8@@@2@@Z@Z 0000000180001d00 f i bindings.obj
 0001:00000d30       ?SetFailedAccessCheckCallbackFunction@V8@v8@@SAXP6AXV?$Local@VObject@v8@@@2@W4AccessType@2@V?$Local@VValue@v8@@@2@@Z@Z 0000000180001d30 f i bindings.obj
 0001:00000d60       ?SetCaptureStackTraceForUncaughtExceptions@V8@v8@@SAX_NHW4StackTraceOptions@StackTrace@2@@Z 0000000180001d60 f i bindings.obj
 0001:00000da0       ?SetFatalErrorHandler@V8@v8@@SAXP6AXPEBD0@Z@Z 0000000180001da0 f i bindings.obj
 0001:00000dd0       ?RemoveGCPrologueCallback@V8@v8@@SAXP6AXW4GCType@2@W4GCCallbackFlags@2@@Z@Z 0000000180001dd0 f i bindings.obj
 0001:00000e00       ?RemoveGCEpilogueCallback@V8@v8@@SAXP6AXW4GCType@2@W4GCCallbackFlags@2@@Z@Z 0000000180001e00 f i bindings.obj
 0001:00000e30       ?AddMemoryAllocationCallback@V8@v8@@SAXP6AXW4ObjectSpace@2@W4AllocationAction@2@H@Z01@Z 0000000180001e30 f i bindings.obj
 0001:00000e70       ?RemoveMemoryAllocationCallback@V8@v8@@SAXP6AXW4ObjectSpace@2@W4AllocationAction@2@H@Z@Z 0000000180001e70 f i bindings.obj
 0001:00000ea0       ?TerminateExecution@V8@v8@@SAXPEAVIsolate@2@@Z 0000000180001ea0 f i bindings.obj
 0001:00000eb0       ?IsExecutionTerminating@V8@v8@@SA_NPEAVIsolate@2@@Z 0000000180001eb0 f i bindings.obj
 0001:00000ed0       ?CancelTerminateExecution@V8@v8@@SAXPEAVIsolate@2@@Z 0000000180001ed0 f i bindings.obj
 0001:00000ee0       ?VisitExternalResources@V8@v8@@SAXPEAVExternalResourceVisitor@2@@Z 0000000180001ee0 f i bindings.obj
 0001:00000f10       ?VisitHandlesWithClassIds@V8@v8@@SAXPEAVPersistentHandleVisitor@2@@Z 0000000180001f10 f i bindings.obj
 0001:00000f40       ?VisitHandlesWithClassIds@V8@v8@@SAXPEAVIsolate@2@PEAVPersistentHandleVisitor@2@@Z 0000000180001f40 f i bindings.obj
 0001:00000f50       ?VisitHandlesForPartialDependence@V8@v8@@SAXPEAVIsolate@2@PEAVPersistentHandleVisitor@2@@Z 0000000180001f50 f i bindings.obj
 0001:00000f60       ??_EExternalOneByteStringResource@String@v8@@UEAAPEAXI@Z 0000000180001f60 f i bindings.obj
 0001:00000f60       ??_EExternalStringResource@String@v8@@UEAAPEAXI@Z 0000000180001f60 f i bindings.obj
 0001:00000f60       ??_EExternalStringResourceBase@String@v8@@UEAAPEAXI@Z 0000000180001f60 f i bindings.obj
 0001:00000ff0       ??0Allocator@ArrayBuffer@v8@@QEAA@XZ 0000000180001ff0 f i bindings.obj
 0001:00000ff0       ??0Allocator@ArrayBuffer@v8@@QEAA@AEBV012@@Z 0000000180001ff0 f i bindings.obj
 0001:00001000       ??_EAllocator@ArrayBuffer@v8@@UEAAPEAXI@Z 0000000180002000 f i bindings.obj
 0001:00001090       ??4Contents@ArrayBuffer@v8@@QEAAAEAV012@AEBV012@@Z 0000000180002090 f i bindings.obj
 0001:00001090       ??4Contents@SharedArrayBuffer@v8@@QEAAAEAV012@AEBV012@@Z 0000000180002090 f i bindings.obj
 0001:00001090       ??4StartupData@v8@@QEAAAEAV01@AEBV01@@Z 0000000180002090 f i bindings.obj
 0001:000010a0       ??4Contents@SharedArrayBuffer@v8@@QEAAAEAV012@$$QEAV012@@Z 00000001800020a0 f i bindings.obj
 0001:000010a0       ??4Contents@ArrayBuffer@v8@@QEAAAEAV012@$$QEAV012@@Z 00000001800020a0 f i bindings.obj
 0001:000010c0       ??_EExternalOneByteStringResourceImpl@v8@@UEAAPEAXI@Z 00000001800020c0 f i bindings.obj
 0001:00001150       ??_EExtension@v8@@UEAAPEAXI@Z 0000000180002150 f i bindings.obj
 0001:00001200       ??4HeapSpaceStatistics@v8@@QEAAAEAV01@AEBV01@@Z 0000000180002200 f i bindings.obj
 0001:00001200       ??4ResourceConstraints@v8@@QEAAAEAV01@AEBV01@@Z 0000000180002200 f i bindings.obj
 0001:00001220       ??4ResourceConstraints@v8@@QEAAAEAV01@$$QEAV01@@Z 0000000180002220 f i bindings.obj
 0001:00001250       ??4HeapStatistics@v8@@QEAAAEAV01@AEBV01@@Z 0000000180002250 f i bindings.obj
 0001:00001270       ??4HeapStatistics@v8@@QEAAAEAV01@$$QEAV01@@Z 0000000180002270 f i bindings.obj
 0001:000012b0       ??4HeapSpaceStatistics@v8@@QEAAAEAV01@$$QEAV01@@Z 00000001800022b0 f i bindings.obj
 0001:000012e0       ??4HeapObjectStatistics@v8@@QEAAAEAV01@AEBV01@@Z 00000001800022e0 f i bindings.obj
 0001:00001300       ??4HeapObjectStatistics@v8@@QEAAAEAV01@$$QEAV01@@Z 0000000180002300 f i bindings.obj
 0001:00001330       ??0PersistentHandleVisitor@v8@@QEAA@XZ 0000000180002330 f i bindings.obj
 0001:00001330       ??0ExternalResourceVisitor@v8@@QEAA@AEBV01@@Z 0000000180002330 f i bindings.obj
 0001:00001330       ??0PersistentHandleVisitor@v8@@QEAA@AEBV01@@Z 0000000180002330 f i bindings.obj
 0001:00001330       ??0ExternalResourceVisitor@v8@@QEAA@XZ 0000000180002330 f i bindings.obj
 0001:00001340       ??_EExternalResourceVisitor@v8@@UEAAPEAXI@Z 0000000180002340 f i bindings.obj
 0001:00001340       ??_EPersistentHandleVisitor@v8@@UEAAPEAXI@Z 0000000180002340 f i bindings.obj
 0001:000013d0       ??4StartupData@v8@@QEAAAEAV01@$$QEAV01@@Z 00000001800023d0 f i bindings.obj
 0001:000013e0       ??4Unlocker@v8@@QEAAAEAV01@AEBV01@@Z 00000001800023e0 f i bindings.obj
 0001:000013f0       ?Initialize@nodelame@@YAXV?$Local@VObject@v8@@@v8@@@Z 00000001800023f0 f   bindings.obj
 0001:00001500       ?New@?$Factory@VFunctionTemplate@v8@@@imp@Nan@@SA?AV?$Local@VFunctionTemplate@v8@@@v8@@P6AXAEBV?$FunctionCallbackInfo@VValue@v8@@@3@@ZV?$Local@VValue@v8@@@5@V?$Local@VSignature@v8@@@5@@Z 0000000180002500 f i node_lame.obj
 0001:00001690       ?node_get_lame_version@nodelame@@YAXAEBV?$FunctionCallbackInfo@VValue@v8@@@Nan@@@Z 0000000180002690 f   node_lame.obj
 0001:00001700       ?node_get_lame_os_bitness@nodelame@@YAXAEBV?$FunctionCallbackInfo@VValue@v8@@@Nan@@@Z 0000000180002700 f   node_lame.obj
 0001:00001770       ?node_lame_close@nodelame@@YAXAEBV?$FunctionCallbackInfo@VValue@v8@@@Nan@@@Z 0000000180002770 f   node_lame.obj
 0001:000017e0       ?node_lame_init@nodelame@@YAXAEBV?$FunctionCallbackInfo@VValue@v8@@@Nan@@@Z 00000001800027e0 f   node_lame.obj
 0001:000018c0       ?node_lame_encode_buffer@nodelame@@YAXAEBV?$FunctionCallbackInfo@VValue@v8@@@Nan@@@Z 00000001800028c0 f   node_lame.obj
 0001:00001c10       ?node_lame_encode_buffer_async@nodelame@@YAXPEAUuv_work_s@@@Z 0000000180002c10 f   node_lame.obj
 0001:00001f80       ?node_lame_encode_buffer_after@nodelame@@YAXPEAUuv_work_s@@@Z 0000000180002f80 f   node_lame.obj
 0001:00002120       ?node_lame_encode_flush_nogap@nodelame@@YAXAEBV?$FunctionCallbackInfo@VValue@v8@@@Nan@@@Z 0000000180003120 f   node_lame.obj
 0001:00002330       ?node_lame_encode_flush_nogap_async@nodelame@@YAXPEAUuv_work_s@@@Z 0000000180003330 f   node_lame.obj
 0001:00002360       ?node_lame_get_id3v1_tag@nodelame@@YAXAEBV?$FunctionCallbackInfo@VValue@v8@@@Nan@@@Z 0000000180003360 f   node_lame.obj
 0001:000024b0       ?node_lame_get_id3v2_tag@nodelame@@YAXAEBV?$FunctionCallbackInfo@VValue@v8@@@Nan@@@Z 00000001800034b0 f   node_lame.obj
 0001:00002600       ?node_lame_init_params@nodelame@@YAXAEBV?$FunctionCallbackInfo@VValue@v8@@@Nan@@@Z 0000000180003600 f   node_lame.obj
 0001:000026c0       ?node_lame_print_internals@nodelame@@YAXAEBV?$FunctionCallbackInfo@VValue@v8@@@Nan@@@Z 00000001800036c0 f   node_lame.obj
 0001:00002730       ?node_lame_print_config@nodelame@@YAXAEBV?$FunctionCallbackInfo@VValue@v8@@@Nan@@@Z 0000000180003730 f   node_lame.obj
 0001:000027a0       ?node_lame_bitrates@nodelame@@YAXAEBV?$FunctionCallbackInfo@VValue@v8@@@Nan@@@Z 00000001800037a0 f   node_lame.obj
 0001:00002950       ?node_lame_samplerates@nodelame@@YAXAEBV?$FunctionCallbackInfo@VValue@v8@@@Nan@@@Z 0000000180003950 f   node_lame.obj
 0001:00002b00       ?node_lame_get_num_samples@nodelame@@YAXAEBV?$FunctionCallbackInfo@VValue@v8@@@Nan@@@Z 0000000180003b00 f   node_lame.obj
 0001:00002bd0       ?node_lame_set_num_samples@nodelame@@YAXAEBV?$FunctionCallbackInfo@VValue@v8@@@Nan@@@Z 0000000180003bd0 f   node_lame.obj
 0001:00002ce0       ?node_lame_get_in_samplerate@nodelame@@YAXAEBV?$FunctionCallbackInfo@VValue@v8@@@Nan@@@Z 0000000180003ce0 f   node_lame.obj
 0001:00002db0       ?node_lame_set_in_samplerate@nodelame@@YAXAEBV?$FunctionCallbackInfo@VValue@v8@@@Nan@@@Z 0000000180003db0 f   node_lame.obj
 0001:00002eb0       ?node_lame_get_num_channels@nodelame@@YAXAEBV?$FunctionCallbackInfo@VValue@v8@@@Nan@@@Z 0000000180003eb0 f   node_lame.obj
 0001:00002f80       ?node_lame_set_num_channels@nodelame@@YAXAEBV?$FunctionCallbackInfo@VValue@v8@@@Nan@@@Z 0000000180003f80 f   node_lame.obj
 0001:00003090       ?node_lame_get_scale@nodelame@@YAXAEBV?$FunctionCallbackInfo@VValue@v8@@@Nan@@@Z 0000000180004090 f   node_lame.obj
 0001:00003160       ?node_lame_set_scale@nodelame@@YAXAEBV?$FunctionCallbackInfo@VValue@v8@@@Nan@@@Z 0000000180004160 f   node_lame.obj
 0001:00003270       ?node_lame_get_scale_left@nodelame@@YAXAEBV?$FunctionCallbackInfo@VValue@v8@@@Nan@@@Z 0000000180004270 f   node_lame.obj
 0001:00003340       ?node_lame_set_scale_left@nodelame@@YAXAEBV?$FunctionCallbackInfo@VValue@v8@@@Nan@@@Z 0000000180004340 f   node_lame.obj
 0001:00003450       ?node_lame_get_scale_right@nodelame@@YAXAEBV?$FunctionCallbackInfo@VValue@v8@@@Nan@@@Z 0000000180004450 f   node_lame.obj
 0001:00003520       ?node_lame_set_scale_right@nodelame@@YAXAEBV?$FunctionCallbackInfo@VValue@v8@@@Nan@@@Z 0000000180004520 f   node_lame.obj
 0001:00003630       ?node_lame_get_out_samplerate@nodelame@@YAXAEBV?$FunctionCallbackInfo@VValue@v8@@@Nan@@@Z 0000000180004630 f   node_lame.obj
 0001:00003700       ?node_lame_set_out_samplerate@nodelame@@YAXAEBV?$FunctionCallbackInfo@VValue@v8@@@Nan@@@Z 0000000180004700 f   node_lame.obj
 0001:00003800       ?node_lame_get_analysis@nodelame@@YAXAEBV?$FunctionCallbackInfo@VValue@v8@@@Nan@@@Z 0000000180004800 f   node_lame.obj
 0001:000038d0       ?node_lame_set_analysis@nodelame@@YAXAEBV?$FunctionCallbackInfo@VValue@v8@@@Nan@@@Z 00000001800048d0 f   node_lame.obj
 0001:000039e0       ?node_lame_get_bWriteVbrTag@nodelame@@YAXAEBV?$FunctionCallbackInfo@VValue@v8@@@Nan@@@Z 00000001800049e0 f   node_lame.obj
 0001:00003ab0       ?node_lame_set_bWriteVbrTag@nodelame@@YAXAEBV?$FunctionCallbackInfo@VValue@v8@@@Nan@@@Z 0000000180004ab0 f   node_lame.obj
 0001:00003bc0       ?node_lame_get_quality@nodelame@@YAXAEBV?$FunctionCallbackInfo@VValue@v8@@@Nan@@@Z 0000000180004bc0 f   node_lame.obj
 0001:00003c90       ?node_lame_set_quality@nodelame@@YAXAEBV?$FunctionCallbackInfo@VValue@v8@@@Nan@@@Z 0000000180004c90 f   node_lame.obj
 0001:00003db0       ?node_lame_get_mode@nodelame@@YAXAEBV?$FunctionCallbackInfo@VValue@v8@@@Nan@@@Z 0000000180004db0 f   node_lame.obj
 0001:00003e80       ?node_lame_set_mode@nodelame@@YAXAEBV?$FunctionCallbackInfo@VValue@v8@@@Nan@@@Z 0000000180004e80 f   node_lame.obj
 0001:00003f90       ?node_lame_get_brate@nodelame@@YAXAEBV?$FunctionCallbackInfo@VValue@v8@@@Nan@@@Z 0000000180004f90 f   node_lame.obj
 0001:00004060       ?node_lame_set_brate@nodelame@@YAXAEBV?$FunctionCallbackInfo@VValue@v8@@@Nan@@@Z 0000000180005060 f   node_lame.obj
 0001:00004170       ?node_lame_get_compression_ratio@nodelame@@YAXAEBV?$FunctionCallbackInfo@VValue@v8@@@Nan@@@Z 0000000180005170 f   node_lame.obj
 0001:00004240       ?node_lame_set_compression_ratio@nodelame@@YAXAEBV?$FunctionCallbackInfo@VValue@v8@@@Nan@@@Z 0000000180005240 f   node_lame.obj
 0001:00004350       ?node_lame_get_copyright@nodelame@@YAXAEBV?$FunctionCallbackInfo@VValue@v8@@@Nan@@@Z 0000000180005350 f   node_lame.obj
 0001:00004420       ?node_lame_set_copyright@nodelame@@YAXAEBV?$FunctionCallbackInfo@VValue@v8@@@Nan@@@Z 0000000180005420 f   node_lame.obj
 0001:00004530       ?node_lame_get_original@nodelame@@YAXAEBV?$FunctionCallbackInfo@VValue@v8@@@Nan@@@Z 0000000180005530 f   node_lame.obj
 0001:00004600       ?node_lame_set_original@nodelame@@YAXAEBV?$FunctionCallbackInfo@VValue@v8@@@Nan@@@Z 0000000180005600 f   node_lame.obj
 0001:00004710       ?node_lame_get_error_protection@nodelame@@YAXAEBV?$FunctionCallbackInfo@VValue@v8@@@Nan@@@Z 0000000180005710 f   node_lame.obj
 0001:000047e0       ?node_lame_set_error_protection@nodelame@@YAXAEBV?$FunctionCallbackInfo@VValue@v8@@@Nan@@@Z 00000001800057e0 f   node_lame.obj
 0001:000048f0       ?node_lame_get_extension@nodelame@@YAXAEBV?$FunctionCallbackInfo@VValue@v8@@@Nan@@@Z 00000001800058f0 f   node_lame.obj
 0001:000049c0       ?node_lame_set_extension@nodelame@@YAXAEBV?$FunctionCallbackInfo@VValue@v8@@@Nan@@@Z 00000001800059c0 f   node_lame.obj
 0001:00004ad0       ?node_lame_get_strict_ISO@nodelame@@YAXAEBV?$FunctionCallbackInfo@VValue@v8@@@Nan@@@Z 0000000180005ad0 f   node_lame.obj
 0001:00004ba0       ?node_lame_set_strict_ISO@nodelame@@YAXAEBV?$FunctionCallbackInfo@VValue@v8@@@Nan@@@Z 0000000180005ba0 f   node_lame.obj
 0001:00004cb0       ?node_lame_get_disable_reservoir@nodelame@@YAXAEBV?$FunctionCallbackInfo@VValue@v8@@@Nan@@@Z 0000000180005cb0 f   node_lame.obj
 0001:00004d80       ?node_lame_set_disable_reservoir@nodelame@@YAXAEBV?$FunctionCallbackInfo@VValue@v8@@@Nan@@@Z 0000000180005d80 f   node_lame.obj
 0001:00004e90       ?node_lame_get_quant_comp@nodelame@@YAXAEBV?$FunctionCallbackInfo@VValue@v8@@@Nan@@@Z 0000000180005e90 f   node_lame.obj
 0001:00004f60       ?node_lame_set_quant_comp@nodelame@@YAXAEBV?$FunctionCallbackInfo@VValue@v8@@@Nan@@@Z 0000000180005f60 f   node_lame.obj
 0001:00005070       ?node_lame_get_quant_comp_short@nodelame@@YAXAEBV?$FunctionCallbackInfo@VValue@v8@@@Nan@@@Z 0000000180006070 f   node_lame.obj
 0001:00005140       ?node_lame_set_quant_comp_short@nodelame@@YAXAEBV?$FunctionCallbackInfo@VValue@v8@@@Nan@@@Z 0000000180006140 f   node_lame.obj
 0001:00005250       ?node_lame_get_exp_nspsytune@nodelame@@YAXAEBV?$FunctionCallbackInfo@VValue@v8@@@Nan@@@Z 0000000180006250 f   node_lame.obj
 0001:00005320       ?node_lame_set_exp_nspsytune@nodelame@@YAXAEBV?$FunctionCallbackInfo@VValue@v8@@@Nan@@@Z 0000000180006320 f   node_lame.obj
 0001:00005430       ?node_lame_get_VBR@nodelame@@YAXAEBV?$FunctionCallbackInfo@VValue@v8@@@Nan@@@Z 0000000180006430 f   node_lame.obj
 0001:00005500       ?node_lame_set_VBR@nodelame@@YAXAEBV?$FunctionCallbackInfo@VValue@v8@@@Nan@@@Z 0000000180006500 f   node_lame.obj
 0001:00005610       ?node_lame_get_VBR_q@nodelame@@YAXAEBV?$FunctionCallbackInfo@VValue@v8@@@Nan@@@Z 0000000180006610 f   node_lame.obj
 0001:000056e0       ?node_lame_set_VBR_q@nodelame@@YAXAEBV?$FunctionCallbackInfo@VValue@v8@@@Nan@@@Z 00000001800066e0 f   node_lame.obj
 0001:00005800       ?node_lame_get_VBR_quality@nodelame@@YAXAEBV?$FunctionCallbackInfo@VValue@v8@@@Nan@@@Z 0000000180006800 f   node_lame.obj
 0001:000058e0       ?node_lame_set_VBR_quality@nodelame@@YAXAEBV?$FunctionCallbackInfo@VValue@v8@@@Nan@@@Z 00000001800068e0 f   node_lame.obj
 0001:00005a30       ?node_lame_get_VBR_mean_bitrate_kbps@nodelame@@YAXAEBV?$FunctionCallbackInfo@VValue@v8@@@Nan@@@Z 0000000180006a30 f   node_lame.obj
 0001:00005b00       ?node_lame_set_VBR_mean_bitrate_kbps@nodelame@@YAXAEBV?$FunctionCallbackInfo@VValue@v8@@@Nan@@@Z 0000000180006b00 f   node_lame.obj
 0001:00005c10       ?node_lame_get_VBR_min_bitrate_kbps@nodelame@@YAXAEBV?$FunctionCallbackInfo@VValue@v8@@@Nan@@@Z 0000000180006c10 f   node_lame.obj
 0001:00005ce0       ?node_lame_set_VBR_min_bitrate_kbps@nodelame@@YAXAEBV?$FunctionCallbackInfo@VValue@v8@@@Nan@@@Z 0000000180006ce0 f   node_lame.obj
 0001:00005df0       ?node_lame_get_VBR_max_bitrate_kbps@nodelame@@YAXAEBV?$FunctionCallbackInfo@VValue@v8@@@Nan@@@Z 0000000180006df0 f   node_lame.obj
 0001:00005ec0       ?node_lame_set_VBR_max_bitrate_kbps@nodelame@@YAXAEBV?$FunctionCallbackInfo@VValue@v8@@@Nan@@@Z 0000000180006ec0 f   node_lame.obj
 0001:00005fd0       ?node_lame_get_VBR_hard_min@nodelame@@YAXAEBV?$FunctionCallbackInfo@VValue@v8@@@Nan@@@Z 0000000180006fd0 f   node_lame.obj
 0001:000060a0       ?node_lame_set_VBR_hard_min@nodelame@@YAXAEBV?$FunctionCallbackInfo@VValue@v8@@@Nan@@@Z 00000001800070a0 f   node_lame.obj
 0001:000061b0       ?node_lame_get_lowpassfreq@nodelame@@YAXAEBV?$FunctionCallbackInfo@VValue@v8@@@Nan@@@Z 00000001800071b0 f   node_lame.obj
 0001:00006280       ?node_lame_set_lowpassfreq@nodelame@@YAXAEBV?$FunctionCallbackInfo@VValue@v8@@@Nan@@@Z 0000000180007280 f   node_lame.obj
 0001:00006390       ?node_lame_get_lowpasswidth@nodelame@@YAXAEBV?$FunctionCallbackInfo@VValue@v8@@@Nan@@@Z 0000000180007390 f   node_lame.obj
 0001:00006460       ?node_lame_set_lowpasswidth@nodelame@@YAXAEBV?$FunctionCallbackInfo@VValue@v8@@@Nan@@@Z 0000000180007460 f   node_lame.obj
 0001:00006570       ?node_lame_get_highpassfreq@nodelame@@YAXAEBV?$FunctionCallbackInfo@VValue@v8@@@Nan@@@Z 0000000180007570 f   node_lame.obj
 0001:00006640       ?node_lame_set_highpassfreq@nodelame@@YAXAEBV?$FunctionCallbackInfo@VValue@v8@@@Nan@@@Z 0000000180007640 f   node_lame.obj
 0001:00006750       ?node_lame_get_highpasswidth@nodelame@@YAXAEBV?$FunctionCallbackInfo@VValue@v8@@@Nan@@@Z 0000000180007750 f   node_lame.obj
 0001:00006820       ?node_lame_set_highpasswidth@nodelame@@YAXAEBV?$FunctionCallbackInfo@VValue@v8@@@Nan@@@Z 0000000180007820 f   node_lame.obj
 0001:00006930       ?InitLame@nodelame@@YAXV?$Local@VObject@v8@@@v8@@@Z 0000000180007930 f   node_lame.obj
 0001:0000d030       ?New@?$IntegerFactory@VInteger@v8@@@imp@Nan@@SA?AV?$Local@VInteger@v8@@@v8@@H@Z 000000018000e030 f i node_lame.obj
 0001:0000d0b0       ?node_mpg123_init@nodelame@@YAXAEBV?$FunctionCallbackInfo@VValue@v8@@@Nan@@@Z 000000018000e0b0 f   node_mpg123.obj
 0001:0000d170       ?node_mpg123_new@nodelame@@YAXAEBV?$FunctionCallbackInfo@VValue@v8@@@Nan@@@Z 000000018000e170 f   node_mpg123.obj
 0001:0000d290       ?node_mpg123_current_decoder@nodelame@@YAXAEBV?$FunctionCallbackInfo@VValue@v8@@@Nan@@@Z 000000018000e290 f   node_mpg123.obj
 0001:0000d370       ?node_mpg123_decoders@nodelame@@YAXAEBV?$FunctionCallbackInfo@VValue@v8@@@Nan@@@Z 000000018000e370 f   node_mpg123.obj
 0001:0000d370       ?node_mpg123_supported_decoders@nodelame@@YAXAEBV?$FunctionCallbackInfo@VValue@v8@@@Nan@@@Z 000000018000e370 f   node_mpg123.obj
 0001:0000d480       ?node_mpg123_open_feed@nodelame@@YAXAEBV?$FunctionCallbackInfo@VValue@v8@@@Nan@@@Z 000000018000e480 f   node_mpg123.obj
 0001:0000d580       ?node_mpg123_getformat@nodelame@@YAXAEBV?$FunctionCallbackInfo@VValue@v8@@@Nan@@@Z 000000018000e580 f   node_mpg123.obj
 0001:0000dcc0       ?node_mpg123_safe_buffer@nodelame@@YAXAEBV?$FunctionCallbackInfo@VValue@v8@@@Nan@@@Z 000000018000ecc0 f   node_mpg123.obj
 0001:0000dd40       ?node_mpg123_outblock@nodelame@@YAXAEBV?$FunctionCallbackInfo@VValue@v8@@@Nan@@@Z 000000018000ed40 f   node_mpg123.obj
 0001:0000de20       ?node_mpg123_framepos@nodelame@@YAXAEBV?$FunctionCallbackInfo@VValue@v8@@@Nan@@@Z 000000018000ee20 f   node_mpg123.obj
 0001:0000def0       ?node_mpg123_tell@nodelame@@YAXAEBV?$FunctionCallbackInfo@VValue@v8@@@Nan@@@Z 000000018000eef0 f   node_mpg123.obj
 0001:0000dfb0       ?node_mpg123_tellframe@nodelame@@YAXAEBV?$FunctionCallbackInfo@VValue@v8@@@Nan@@@Z 000000018000efb0 f   node_mpg123.obj
 0001:0000e0a0       ?node_mpg123_tell_stream@nodelame@@YAXAEBV?$FunctionCallbackInfo@VValue@v8@@@Nan@@@Z 000000018000f0a0 f   node_mpg123.obj
 0001:0000e170       ?node_mpg123_feed@nodelame@@YAXAEBV?$FunctionCallbackInfo@VValue@v8@@@Nan@@@Z 000000018000f170 f   node_mpg123.obj
 0001:0000e330       ?node_mpg123_feed_async@nodelame@@YAXPEAUuv_work_s@@@Z 000000018000f330 f   node_mpg123.obj
 0001:0000e360       ?node_mpg123_feed_after@nodelame@@YAXPEAUuv_work_s@@@Z 000000018000f360 f   node_mpg123.obj
 0001:0000e500       ?node_mpg123_read@nodelame@@YAXAEBV?$FunctionCallbackInfo@VValue@v8@@@Nan@@@Z 000000018000f500 f   node_mpg123.obj
 0001:0000e6d0       ?node_mpg123_read_async@nodelame@@YAXPEAUuv_work_s@@@Z 000000018000f6d0 f   node_mpg123.obj
 0001:0000e740       ?node_mpg123_read_after@nodelame@@YAXPEAUuv_work_s@@@Z 000000018000f740 f   node_mpg123.obj
 0001:0000e9a0       ?node_mpg123_id3@nodelame@@YAXAEBV?$FunctionCallbackInfo@VValue@v8@@@Nan@@@Z 000000018000f9a0 f   node_mpg123.obj
 0001:0000eac0       ?node_mpg123_id3_async@nodelame@@YAXPEAUuv_work_s@@@Z 000000018000fac0 f   node_mpg123.obj
 0001:0000eaf0       ?node_mpg123_id3_after@nodelame@@YAXPEAUuv_work_s@@@Z 000000018000faf0 f   node_mpg123.obj
 0001:000105e0       ?InitMPG123@nodelame@@YAXV?$Local@VObject@v8@@@v8@@@Z 00000001800115e0 f   node_mpg123.obj
 0001:000149d0       lame_init_params           00000001800159d0 f   libmp3lame:lame.obj
 0001:00016320       lame_print_config          0000000180017320 f   libmp3lame:lame.obj
 0001:000166d0       lame_print_internals       00000001800176d0 f   libmp3lame:lame.obj
 0001:00017c40       lame_encode_flush_nogap    0000000180018c40 f   libmp3lame:lame.obj
 0001:00017d00       lame_close                 0000000180018d00 f   libmp3lame:lame.obj
 0001:00017f80       __local_stdio_printf_options 0000000180018f80 f i libmp3lame:id3tag.obj
 0001:00017f90       sprintf                    0000000180018f90 f i libmp3lame:id3tag.obj
 0001:00018910       lame_get_id3v2_tag         0000000180019910 f   libmp3lame:id3tag.obj
 0001:00018c40       id3tag_write_v2            0000000180019c40 f   libmp3lame:id3tag.obj
 0001:00018d10       lame_get_id3v1_tag         0000000180019d10 f   libmp3lame:id3tag.obj
 0001:000192c0       CRC_writeheader            000000018001a2c0 f   libmp3lame:bitstream.obj
 0001:0001b170       compute_flushbits          000000018001c170 f   libmp3lame:bitstream.obj
 0001:0001b270       add_dummy_byte             000000018001c270 f   libmp3lame:bitstream.obj
 0001:0001b330       format_bitstream           000000018001c330 f   libmp3lame:bitstream.obj
 0001:0001b540       copy_buffer                000000018001c540 f   libmp3lame:bitstream.obj
 0001:0001c630       apply_preset               000000018001d630 f   libmp3lame:presets.obj
 0001:0001fd20       L3psycho_anal_vbr          0000000180020d20 f   libmp3lame:psymodel.obj
 0001:00021620       psymodel_init              0000000180022620 f   libmp3lame:psymodel.obj
 0001:00022460       free_id3tag                0000000180023460 f   libmp3lame:util.obj
 0001:00022570       freegfc                    0000000180023570 f   libmp3lame:util.obj
 0001:00022810       ATHformula                 0000000180023810 f   libmp3lame:util.obj
 0001:000228e0       FindNearestBitrate         00000001800238e0 f   libmp3lame:util.obj
 0001:00022960       nearestBitrateFullIndex    0000000180023960 f   libmp3lame:util.obj
 0001:00022a20       map2MP3Frequency           0000000180023a20 f   libmp3lame:util.obj
 0001:00022aa0       BitrateIndex               0000000180023aa0 f   libmp3lame:util.obj
 0001:00022ae0       SmpFrqIndex                0000000180023ae0 f   libmp3lame:util.obj
 0001:00023560       lame_report_def            0000000180024560 f   libmp3lame:util.obj
 0001:000235c0       lame_msgf                  00000001800245c0 f   libmp3lame:util.obj
 0001:00023600       lame_errorf                0000000180024600 f   libmp3lame:util.obj
 0001:00023640       init_log_table             0000000180024640 f   libmp3lame:util.obj
 0001:00023c70       iteration_init             0000000180024c70 f   libmp3lame:quantize_pvt.obj
 0001:000242d0       on_pe                      00000001800252d0 f   libmp3lame:quantize_pvt.obj
 0001:00024640       reduce_side                0000000180025640 f   libmp3lame:quantize_pvt.obj
 0001:00024720       athAdjust                  0000000180025720 f   libmp3lame:quantize_pvt.obj
 0001:000248a0       calc_xmin                  00000001800258a0 f   libmp3lame:quantize_pvt.obj
 0001:000250f0       calc_noise                 00000001800260f0 f   libmp3lame:quantize_pvt.obj
 0001:00025c40       set_frame_pinfo            0000000180026c40 f   libmp3lame:quantize_pvt.obj
 0001:00026020       InitVbrTag                 0000000180027020 f   libmp3lame:VbrTag.obj
 0001:00029a70       VBR_old_iteration_loop     000000018002aa70 f   libmp3lame:quantize.obj
 0001:0002a190       VBR_new_iteration_loop     000000018002b190 f   libmp3lame:quantize.obj
 0001:0002a870       ABR_iteration_loop         000000018002b870 f   libmp3lame:quantize.obj
 0001:0002acb0       CBR_iteration_loop         000000018002bcb0 f   libmp3lame:quantize.obj
 0001:0002b3e0       InitGainAnalysis           000000018002c3e0 f   libmp3lame:gain_analysis.obj
 0001:0002b470       AnalyzeSamples             000000018002c470 f   libmp3lame:gain_analysis.obj
 0001:0002bd20       GetTitleGain               000000018002cd20 f   libmp3lame:gain_analysis.obj
 0001:0002c180       lame_encode_mp3_frame      000000018002d180 f   libmp3lame:encoder.obj
 0001:0002d930       noquant_count_bits         000000018002e930 f   libmp3lame:takehiro.obj
 0001:0002dbe0       count_bits                 000000018002ebe0 f   libmp3lame:takehiro.obj
 0001:0002deb0       best_huffman_divide        000000018002eeb0 f   libmp3lame:takehiro.obj
 0001:0002e780       best_scalefac_store        000000018002f780 f   libmp3lame:takehiro.obj
 0001:0002ef10       huffman_init               000000018002ff10 f   libmp3lame:takehiro.obj
 0001:0002f470       fft_short                  0000000180030470 f   libmp3lame:fft.obj
 0001:0002f670       fft_long                   0000000180030670 f   libmp3lame:fft.obj
 0001:0002f7e0       init_fft                   00000001800307e0 f   libmp3lame:fft.obj
 0001:0002f990       ResvFrameBegin             0000000180030990 f   libmp3lame:reservoir.obj
 0001:00031a10       VBR_encode_frame           0000000180032a10 f   libmp3lame:vbrquantize.obj
 0001:00033f40       mdct_sub48                 0000000180034f40 f   libmp3lame:newmdct.obj
 0001:00034cb0       fprintf                    0000000180035cb0 f i libmpg123:libmpg123.obj
 0001:00034ea0       INT123_decode_update       0000000180035ea0 f   libmpg123:libmpg123.obj
 0001:00035400       mpg123_feed                0000000180036400 f   libmpg123:libmpg123.obj
 0001:00035490       mpg123_decode              0000000180036490 f   libmpg123:libmpg123.obj
 0001:000355e0       mpg123_tell                00000001800365e0 f   libmpg123:libmpg123.obj
 0001:000356d0       mpg123_id3                 00000001800366d0 f   libmpg123:libmpg123.obj
 0001:00035770       mpg123_close               0000000180036770 f   libmpg123:libmpg123.obj
 0001:00035800       mpg123_resize_string       0000000180036800 f   libmpg123:stringbuf.obj
 0001:00035890       mpg123_strlen              0000000180036890 f   libmpg123:stringbuf.obj
 0001:00035a50       INT123_set_synth_functions 0000000180036a50 f   libmpg123:optimize.obj
 0001:00035c90       INT123_frame_cpu_opt       0000000180036c90 f   libmpg123:optimize.obj
 0001:00035f70       INT123_frame_init_par      0000000180036f70 f   libmpg123:frame.obj
 0001:000361e0       INT123_frame_outbuffer     00000001800371e0 f   libmpg123:frame.obj
 0001:00036300       INT123_frame_buffers       0000000180037300 f   libmpg123:frame.obj
 0001:00036510       INT123_frame_buffers_reset 0000000180037510 f   libmpg123:frame.obj
 0001:000365c0       INT123_frame_fill_toc      00000001800375c0 f   libmpg123:frame.obj
 0001:00036850       INT123_frame_exit          0000000180037850 f   libmpg123:frame.obj
 0001:00036ab0       INT123_frame_index_find    0000000180037ab0 f   libmpg123:frame.obj
 0001:00036b70       INT123_frame_outs          0000000180037b70 f   libmpg123:frame.obj
 0001:00036c20       INT123_frame_expect_outsamples 0000000180037c20 f   libmpg123:frame.obj
 0001:00036d30       INT123_frame_offset        0000000180037d30 f   libmpg123:frame.obj
 0001:00036df0       INT123_frame_gapless_init  0000000180037df0 f   libmpg123:frame.obj
 0001:00036e90       INT123_frame_gapless_realinit 0000000180037e90 f   libmpg123:frame.obj
 0001:00037020       INT123_frame_set_frameseek 0000000180038020 f   libmpg123:frame.obj
 0001:00037130       INT123_frame_skip          0000000180038130 f   libmpg123:frame.obj
 0001:000371f0       INT123_do_rva              00000001800381f0 f   libmpg123:frame.obj
 0001:00037340       INT123_fi_resize           0000000180038340 f   libmpg123:index.obj
 0001:00037430       INT123_fi_add              0000000180038430 f   libmpg123:index.obj
 0001:00037700       INT123_reset_id3           0000000180038700 f   libmpg123:id3.obj
 0001:000377e0       INT123_id3_link            00000001800387e0 f   libmpg123:id3.obj
 0001:00037a70       INT123_id3_to_utf8         0000000180038a70 f   libmpg123:id3.obj
 0001:00038cc0       INT123_parse_new_id3       0000000180039cc0 f   libmpg123:id3.obj
 0001:00039f90       INT123_frame_output_format 000000018003af90 f   libmpg123:format.obj
 0001:0003a370       mpg123_fmt_all             000000018003b370 f   libmpg123:format.obj
 0001:0003a490       postprocess_buffer         000000018003b490 f   libmpg123:format.obj
 0001:0003b9a0       INT123_open_bad            000000018003c9a0 f   libmpg123:readers.obj
 0001:0003ba10       INT123_open_feed           000000018003ca10 f   libmpg123:readers.obj
 0001:0003bab0       INT123_init_layer12        000000018003cab0 f   libmpg123:layer2.obj
 0001:0003bc20       INT123_init_layer12_table  000000018003cc20 f   libmpg123:layer2.obj
 0001:0003cdf0       INT123_do_layer2           000000018003ddf0 f   libmpg123:layer2.obj
 0001:0003cf70       INT123_synth_ntom_set_step 000000018003df70 f   libmpg123:ntom.obj
 0001:0003d0c0       INT123_ntom_val            000000018003e0c0 f   libmpg123:ntom.obj
 0001:0003d150       INT123_ntom_frmouts        000000018003e150 f   libmpg123:ntom.obj
 0001:0003d200       INT123_ntom_ins2outs       000000018003e200 f   libmpg123:ntom.obj
 0001:0003d2b0       INT123_ntom_frameoff       000000018003e2b0 f   libmpg123:ntom.obj
 0001:0003d360       INT123_init_layer3         000000018003e360 f   libmpg123:layer3.obj
 0001:0003e1f0       INT123_init_layer3_stuff   000000018003f1f0 f   libmpg123:layer3.obj
 0001:00040eb0       INT123_dct36               0000000180041eb0 f   libmpg123:layer3.obj
 0001:00041f80       INT123_do_layer3           0000000180042f80 f   libmpg123:layer3.obj
 0001:00042520       __local_stdio_scanf_options 0000000180043520 f i libmpg123:parse.obj
 0001:00042530       sscanf                     0000000180043530 f i libmpg123:parse.obj
 0001:00043010       INT123_read_frame          0000000180044010 f   libmpg123:parse.obj
 0001:00043af0       INT123_compute_bpf         0000000180044af0 f   libmpg123:parse.obj
 0001:00044370       INT123_prepare_decode_tables 0000000180045370 f   libmpg123:tabinit.obj
 0001:00044570       INT123_make_decode_tables  0000000180045570 f   libmpg123:tabinit.obj
 0001:00044c90       INT123_make_conv16to8_table 0000000180045c90 f   libmpg123:tabinit.obj
 0001:000450f0       INT123_synth_1to1_s32      00000001800460f0 f   libmpg123:synth_s32.obj
 0001:000454c0       INT123_synth_1to1_s32_mono 00000001800464c0 f   libmpg123:synth_s32.obj
 0001:00045580       INT123_synth_1to1_s32_m2s  0000000180046580 f   libmpg123:synth_s32.obj
 0001:000455e0       INT123_synth_1to1_s32_i386 00000001800465e0 f   libmpg123:synth_s32.obj
 0001:00045a50       INT123_synth_2to1_s32      0000000180046a50 f   libmpg123:synth_s32.obj
 0001:00045e20       INT123_synth_2to1_s32_mono 0000000180046e20 f   libmpg123:synth_s32.obj
 0001:00045ef0       INT123_synth_2to1_s32_m2s  0000000180046ef0 f   libmpg123:synth_s32.obj
 0001:00045f50       INT123_synth_2to1_s32_i386 0000000180046f50 f   libmpg123:synth_s32.obj
 0001:000463c0       INT123_synth_4to1_s32      00000001800473c0 f   libmpg123:synth_s32.obj
 0001:00046790       INT123_synth_4to1_s32_mono 0000000180047790 f   libmpg123:synth_s32.obj
 0001:00046860       INT123_synth_4to1_s32_m2s  0000000180047860 f   libmpg123:synth_s32.obj
 0001:000468d0       INT123_synth_4to1_s32_i386 00000001800478d0 f   libmpg123:synth_s32.obj
 0001:00046d50       INT123_synth_ntom_s32_mono 0000000180047d50 f   libmpg123:synth_s32.obj
 0001:00046e30       INT123_synth_ntom_s32_m2s  0000000180047e30 f   libmpg123:synth_s32.obj
 0001:00046eb0       INT123_synth_ntom_s32      0000000180047eb0 f   libmpg123:synth_s32.obj
 0001:00047360       INT123_synth_1to1          0000000180048360 f   libmpg123:synth.obj
 0001:00047720       INT123_synth_1to1_mono     0000000180048720 f   libmpg123:synth.obj
 0001:000477e0       INT123_synth_1to1_m2s      00000001800487e0 f   libmpg123:synth.obj
 0001:00047850       INT123_synth_1to1_i386     0000000180048850 f   libmpg123:synth.obj
 0001:00047ce0       INT123_synth_2to1          0000000180048ce0 f   libmpg123:synth.obj
 0001:000480b0       INT123_synth_2to1_mono     00000001800490b0 f   libmpg123:synth.obj
 0001:00048160       INT123_synth_2to1_m2s      0000000180049160 f   libmpg123:synth.obj
 0001:000481c0       INT123_synth_2to1_i386     00000001800491c0 f   libmpg123:synth.obj
 0001:00048650       INT123_synth_4to1          0000000180049650 f   libmpg123:synth.obj
 0001:00048a20       INT123_synth_4to1_mono     0000000180049a20 f   libmpg123:synth.obj
 0001:00048b00       INT123_synth_4to1_m2s      0000000180049b00 f   libmpg123:synth.obj
 0001:00048b80       INT123_synth_4to1_i386     0000000180049b80 f   libmpg123:synth.obj
 0001:00049020       INT123_synth_ntom_mono     000000018004a020 f   libmpg123:synth.obj
 0001:00049100       INT123_synth_ntom_m2s      000000018004a100 f   libmpg123:synth.obj
 0001:00049190       INT123_synth_ntom          000000018004a190 f   libmpg123:synth.obj
 0001:00049620       INT123_synth_1to1_real     000000018004a620 f   libmpg123:synth_real.obj
 0001:00049980       INT123_synth_1to1_real_mono 000000018004a980 f   libmpg123:synth_real.obj
 0001:00049a80       INT123_synth_1to1_real_m2s 000000018004aa80 f   libmpg123:synth_real.obj
 0001:00049b10       INT123_synth_1to1_real_i386 000000018004ab10 f   libmpg123:synth_real.obj
 0001:00049ef0       INT123_synth_2to1_real     000000018004aef0 f   libmpg123:synth_real.obj
 0001:0004a260       INT123_synth_2to1_real_mono 000000018004b260 f   libmpg123:synth_real.obj
 0001:0004a350       INT123_synth_2to1_real_m2s 000000018004b350 f   libmpg123:synth_real.obj
 0001:0004a3e0       INT123_synth_2to1_real_i386 000000018004b3e0 f   libmpg123:synth_real.obj
 0001:0004a7c0       INT123_synth_4to1_real     000000018004b7c0 f   libmpg123:synth_real.obj
 0001:0004ab40       INT123_synth_4to1_real_mono 000000018004bb40 f   libmpg123:synth_real.obj
 0001:0004ac30       INT123_synth_4to1_real_m2s 000000018004bc30 f   libmpg123:synth_real.obj
 0001:0004acb0       INT123_synth_4to1_real_i386 000000018004bcb0 f   libmpg123:synth_real.obj
 0001:0004b090       INT123_synth_ntom_real_mono 000000018004c090 f   libmpg123:synth_real.obj
 0001:0004b170       INT123_synth_ntom_real_m2s 000000018004c170 f   libmpg123:synth_real.obj
 0001:0004b1f0       INT123_synth_ntom_real     000000018004c1f0 f   libmpg123:synth_real.obj
 0001:0004b5e0       INT123_synth_1to1_8bit     000000018004c5e0 f   libmpg123:synth_8bit.obj
 0001:0004b9c0       INT123_synth_1to1_8bit_mono 000000018004c9c0 f   libmpg123:synth_8bit.obj
 0001:0004ba80       INT123_synth_1to1_8bit_m2s 000000018004ca80 f   libmpg123:synth_8bit.obj
 0001:0004baf0       INT123_synth_1to1_8bit_i386 000000018004caf0 f   libmpg123:synth_8bit.obj
 0001:0004bf70       INT123_synth_1to1_8bit_wrap 000000018004cf70 f   libmpg123:synth_8bit.obj
 0001:0004c0b0       INT123_synth_1to1_8bit_wrap_mono 000000018004d0b0 f   libmpg123:synth_8bit.obj
 0001:0004c1d0       INT123_synth_1to1_8bit_wrap_m2s 000000018004d1d0 f   libmpg123:synth_8bit.obj
 0001:0004c2b0       INT123_synth_2to1_8bit     000000018004d2b0 f   libmpg123:synth_8bit.obj
 0001:0004c690       INT123_synth_2to1_8bit_mono 000000018004d690 f   libmpg123:synth_8bit.obj
 0001:0004c740       INT123_synth_2to1_8bit_m2s 000000018004d740 f   libmpg123:synth_8bit.obj
 0001:0004c7a0       INT123_synth_2to1_8bit_i386 000000018004d7a0 f   libmpg123:synth_8bit.obj
 0001:0004cc20       INT123_synth_4to1_8bit     000000018004dc20 f   libmpg123:synth_8bit.obj
 0001:0004d000       INT123_synth_4to1_8bit_mono 000000018004e000 f   libmpg123:synth_8bit.obj
 0001:0004d0d0       INT123_synth_4to1_8bit_m2s 000000018004e0d0 f   libmpg123:synth_8bit.obj
 0001:0004d150       INT123_synth_4to1_8bit_i386 000000018004e150 f   libmpg123:synth_8bit.obj
 0001:0004d5e0       INT123_synth_ntom_8bit_mono 000000018004e5e0 f   libmpg123:synth_8bit.obj
 0001:0004d6c0       INT123_synth_ntom_8bit_m2s 000000018004e6c0 f   libmpg123:synth_8bit.obj
 0001:0004d740       INT123_synth_ntom_8bit     000000018004e740 f   libmpg123:synth_8bit.obj
 0001:0004eb70       INT123_do_layer1           000000018004fb70 f   libmpg123:layer1.obj
 0001:0004ec80       INT123_do_equalizer        000000018004fc80 f   libmpg123:equalizer.obj
 0001:0004ed80       INT123_dct64               000000018004fd80 f   libmpg123:dct64.obj
 0001:00050750       init_xrpow_core_sse        0000000180051750 f   liblamevectorroutines:xmm_quantize_sub.obj
 0001:00050901       __imp_load_?CollectAllGarbage@Isolate@v8@@AEAAXPEBD@Z 0000000180051901 f   node:node.exe
 0001:0005090d       __tailMerge_node_exe       000000018005190d f i node:node.exe
 0001:00050986       __imp_load_?VisitHandlesForPartialDependence@Isolate@v8@@QEAAXPEAVPersistentHandleVisitor@2@@Z 0000000180051986 f   node:node.exe
 0001:00050992       __imp_load_?VisitHandlesWithClassIds@Isolate@v8@@QEAAXPEAVPersistentHandleVisitor@2@@Z 0000000180051992 f   node:node.exe
 0001:0005099e       __imp_load_?VisitExternalResources@Isolate@v8@@QEAAXPEAVExternalResourceVisitor@2@@Z 000000018005199e f   node:node.exe
 0001:000509aa       __imp_load_?RemoveMemoryAllocationCallback@Isolate@v8@@QEAAXP6AXW4ObjectSpace@2@W4AllocationAction@2@H@Z@Z 00000001800519aa f   node:node.exe
 0001:000509b6       __imp_load_?AddMemoryAllocationCallback@Isolate@v8@@QEAAXP6AXW4ObjectSpace@2@W4AllocationAction@2@H@Z01@Z 00000001800519b6 f   node:node.exe
 0001:000509c2       __imp_load_?SetCaptureStackTraceForUncaughtExceptions@Isolate@v8@@QEAAX_NHW4StackTraceOptions@StackTrace@2@@Z 00000001800519c2 f   node:node.exe
 0001:000509ce       __imp_load_?SetFailedAccessCheckCallbackFunction@Isolate@v8@@QEAAXP6AXV?$Local@VObject@v8@@@2@W4AccessType@2@V?$Local@VValue@v8@@@2@@Z@Z 00000001800519ce f   node:node.exe
 0001:000509da       __imp_load_?RemoveMessageListeners@Isolate@v8@@QEAAXP6AXV?$Local@VMessage@v8@@@2@V?$Local@VValue@v8@@@2@@Z@Z 00000001800519da f   node:node.exe
 0001:000509e6       __imp_load_?AddMessageListener@Isolate@v8@@QEAA_NP6AXV?$Local@VMessage@v8@@@2@V?$Local@VValue@v8@@@2@@Z1@Z 00000001800519e6 f   node:node.exe
 0001:000509f2       __imp_load_?IsDead@Isolate@v8@@QEAA_NXZ 00000001800519f2 f   node:node.exe
 0001:000509fe       __imp_load_?SetAllowCodeGenerationFromStringsCallback@Isolate@v8@@QEAAXP6A_NV?$Local@VContext@v8@@@2@@Z@Z 00000001800519fe f   node:node.exe
 0001:00050a0a       __imp_load_?SetFatalErrorHandler@Isolate@v8@@QEAAXP6AXPEBD0@Z@Z 0000000180051a0a f   node:node.exe
 0001:00050a16       __imp_load_?CancelTerminateExecution@Isolate@v8@@QEAAXXZ 0000000180051a16 f   node:node.exe
 0001:00050a22       __imp_load_?IsExecutionTerminating@Isolate@v8@@QEAA_NXZ 0000000180051a22 f   node:node.exe
 0001:00050a2e       __imp_load_?TerminateExecution@Isolate@v8@@QEAAXXZ 0000000180051a2e f   node:node.exe
 0001:00050a3a       __imp_load_?RemoveGCEpilogueCallback@Isolate@v8@@QEAAXP6AXPEAV12@W4GCType@2@W4GCCallbackFlags@2@@Z@Z 0000000180051a3a f   node:node.exe
 0001:00050a46       __imp_load_?RemoveGCPrologueCallback@Isolate@v8@@QEAAXP6AXPEAV12@W4GCType@2@W4GCCallbackFlags@2@@Z@Z 0000000180051a46 f   node:node.exe
 0001:00050a52       __imp_load_?GetCurrentContext@Isolate@v8@@QEAA?AV?$Local@VContext@v8@@@2@XZ 0000000180051a52 f   node:node.exe
 0001:00050a5e       __imp_load_?Exit@Isolate@v8@@QEAAXXZ 0000000180051a5e f   node:node.exe
 0001:00050a6a       __imp_load_?Enter@Isolate@v8@@QEAAXXZ 0000000180051a6a f   node:node.exe
 0001:00050a76       __imp_load_?GetCurrent@Isolate@v8@@SAPEAV12@XZ 0000000180051a76 f   node:node.exe
 0001:00050a82       __imp_load_?ResetToBookmark@ExternalSourceStream@ScriptCompiler@v8@@UEAAXXZ 0000000180051a82 f   node:node.exe
 0001:00050a8e       ?ResetToBookmark@ExternalSourceStream@ScriptCompiler@v8@@UEAAXXZ 0000000180051a8e f   node:node.exe
 0001:00050a94       __imp_load_?SetBookmark@ExternalSourceStream@ScriptCompiler@v8@@UEAA_NXZ 0000000180051a94 f   node:node.exe
 0001:00050aa0       ?SetBookmark@ExternalSourceStream@ScriptCompiler@v8@@UEAA_NXZ 0000000180051aa0 f   node:node.exe
 0001:00050aa6       __imp_load_?CreateHandle@HandleScope@v8@@CAPEAPEAVObject@internal@2@PEAVHeapObject@42@PEAV342@@Z 0000000180051aa6 f   node:node.exe
 0001:00050ab2       __imp_load_??1HandleScope@v8@@QEAA@XZ 0000000180051ab2 f   node:node.exe
 0001:00050abe       __imp_load_??0HandleScope@v8@@QEAA@PEAVIsolate@1@@Z 0000000180051abe f   node:node.exe
 0001:00050aca       __imp_load_?Set@Template@v8@@QEAAXV?$Local@VName@v8@@@2@V?$Local@VData@v8@@@2@W4PropertyAttribute@2@@Z 0000000180051aca f   node:node.exe
 0001:00050ad6       __imp_load_?Initialize@Locker@v8@@AEAAXPEAVIsolate@2@@Z 0000000180051ad6 f   node:node.exe
 0001:00050ae2       __imp_load_?GetId@UnboundScript@v8@@QEAAHXZ 0000000180051ae2 f   node:node.exe
 0001:00050aee       __imp_load_?Initialize@Unlocker@v8@@AEAAXPEAVIsolate@2@@Z 0000000180051aee f   node:node.exe
 0001:00050afa       __imp_load_?ToLocalEmpty@V8@v8@@CAXXZ 0000000180051afa f   node:node.exe
 0001:00050b06       __imp_load_?ToInt32@Value@v8@@QEBA?AV?$MaybeLocal@VInt32@v8@@@2@V?$Local@VContext@v8@@@2@@Z 0000000180051b06 f   node:node.exe
 0001:00050b12       __imp_load_?ToUint32@Value@v8@@QEBA?AV?$MaybeLocal@VUint32@v8@@@2@V?$Local@VContext@v8@@@2@@Z 0000000180051b12 f   node:node.exe
 0001:00050b1e       __imp_load_?ToInteger@Value@v8@@QEBA?AV?$MaybeLocal@VInteger@v8@@@2@V?$Local@VContext@v8@@@2@@Z 0000000180051b1e f   node:node.exe
 0001:00050b2a       __imp_load_?ToObject@Value@v8@@QEBA?AV?$MaybeLocal@VObject@v8@@@2@V?$Local@VContext@v8@@@2@@Z 0000000180051b2a f   node:node.exe
 0001:00050b36       __imp_load_?ToDetailString@Value@v8@@QEBA?AV?$MaybeLocal@VString@v8@@@2@V?$Local@VContext@v8@@@2@@Z 0000000180051b36 f   node:node.exe
 0001:00050b42       __imp_load_?ToString@Value@v8@@QEBA?AV?$MaybeLocal@VString@v8@@@2@V?$Local@VContext@v8@@@2@@Z 0000000180051b42 f   node:node.exe
 0001:00050b4e       __imp_load_?ToNumber@Value@v8@@QEBA?AV?$MaybeLocal@VNumber@v8@@@2@V?$Local@VContext@v8@@@2@@Z 0000000180051b4e f   node:node.exe
 0001:00050b5a       __imp_load_?ToBoolean@Value@v8@@QEBA?AV?$MaybeLocal@VBoolean@v8@@@2@V?$Local@VContext@v8@@@2@@Z 0000000180051b5a f   node:node.exe
 0001:00050b66       __imp_load_?GetUnboundScript@Script@v8@@QEAA?AV?$Local@VUnboundScript@v8@@@2@XZ 0000000180051b66 f   node:node.exe
 0001:00050b72       __imp_load_?NewFromUtf8@String@v8@@SA?AV?$MaybeLocal@VString@v8@@@2@PEAVIsolate@2@PEBDW4NewStringType@2@H@Z 0000000180051b72 f   node:node.exe
 0001:00050b7e       __imp_load_?SlowGetAlignedPointerFromInternalField@Object@v8@@AEAAPEAXH@Z 0000000180051b7e f   node:node.exe
 0001:00050b8a       __imp_load_?SlowGetInternalField@Object@v8@@AEAA?AV?$Local@VValue@v8@@@2@H@Z 0000000180051b8a f   node:node.exe
 0001:00050b96       __imp_load_?InternalFieldCount@Object@v8@@QEAAHXZ 0000000180051b96 f   node:node.exe
 0001:00050ba2       __imp_load_?NewInstance@Function@v8@@QEBA?AV?$MaybeLocal@VObject@v8@@@2@V?$Local@VContext@v8@@@2@HQEAV?$Local@VValue@v8@@@2@@Z 0000000180051ba2 f   node:node.exe
 0001:00050bae       __imp_load_?SetHandler@ObjectTemplate@v8@@QEAAXAEBUIndexedPropertyHandlerConfiguration@2@@Z 0000000180051bae f   node:node.exe
 0001:00050bba       __imp_load_node_module_register 0000000180051bba f   node:node.exe
 0001:00050bc6       __imp_load_uv_queue_work   0000000180051bc6 f   node:node.exe
 0001:00050bd2       __imp_load_?Global@Context@v8@@QEAA?AV?$Local@VObject@v8@@@2@XZ 0000000180051bd2 f   node:node.exe
 0001:00050bde       __imp_load_?Value@External@v8@@QEBAPEAXXZ 0000000180051bde f   node:node.exe
 0001:00050bea       __imp_load_?New@External@v8@@SA?AV?$Local@VExternal@v8@@@2@PEAVIsolate@2@PEAX@Z 0000000180051bea f   node:node.exe
 0001:00050bf6       __imp_load_?NewFromUnsigned@Integer@v8@@SA?AV?$Local@VInteger@v8@@@2@PEAVIsolate@2@I@Z 0000000180051bf6 f   node:node.exe
 0001:00050c02       __imp_load_?New@Integer@v8@@SA?AV?$Local@VInteger@v8@@@2@PEAVIsolate@2@H@Z 0000000180051c02 f   node:node.exe
 0001:00050c0e       __imp_load_?CreateHandle@HandleScope@v8@@KAPEAPEAVObject@internal@2@PEAVIsolate@42@PEAV342@@Z 0000000180051c0e f   node:node.exe
 0001:00050c1a       __imp_load_?New@Array@v8@@SA?AV?$Local@VArray@v8@@@2@PEAVIsolate@2@H@Z 0000000180051c1a f   node:node.exe
 0001:00050c26       __imp_load_?GetFunction@FunctionTemplate@v8@@QEAA?AV?$MaybeLocal@VFunction@v8@@@2@V?$Local@VContext@v8@@@2@@Z 0000000180051c26 f   node:node.exe
 0001:00050c32       __imp_load_?New@FunctionTemplate@v8@@SA?AV?$Local@VFunctionTemplate@v8@@@2@PEAVIsolate@2@P6AXAEBV?$FunctionCallbackInfo@VValue@v8@@@2@@ZV?$Local@VValue@v8@@@2@V?$Local@VSignature@v8@@@2@H@Z 0000000180051c32 f   node:node.exe
 0001:00050c3e       __imp_load_?DisposeGlobal@V8@v8@@CAXPEAPEAVObject@internal@2@@Z 0000000180051c3e f   node:node.exe
 0001:00050c4a       __imp_load_?GlobalizeReference@V8@v8@@CAPEAPEAVObject@internal@2@PEAVIsolate@42@PEAPEAV342@@Z 0000000180051c4a f   node:node.exe
 0001:00050c56       __imp_load_?Int32Value@Value@v8@@QEBA?AV?$Maybe@H@2@V?$Local@VContext@v8@@@2@@Z 0000000180051c56 f   node:node.exe
 0001:00050c62       __imp_load_?Int32Value@Value@v8@@QEBAHXZ 0000000180051c62 f   node:node.exe
 0001:00050c6e       __imp_load_?NumberValue@Value@v8@@QEBANXZ 0000000180051c6e f   node:node.exe
 0001:00050c7a       __imp_load_?HasCaught@TryCatch@v8@@QEBA_NXZ 0000000180051c7a f   node:node.exe
 0001:00050c86       __imp_load_??1TryCatch@v8@@QEAA@XZ 0000000180051c86 f   node:node.exe
 0001:00050c92       __imp_load_??0TryCatch@v8@@QEAA@PEAVIsolate@1@@Z 0000000180051c92 f   node:node.exe
 0001:00050c9e       __imp_load_?Escape@EscapableHandleScope@v8@@AEAAPEAPEAVObject@internal@2@PEAPEAV342@@Z 0000000180051c9e f   node:node.exe
 0001:00050caa       __imp_load_??0EscapableHandleScope@v8@@QEAA@PEAVIsolate@1@@Z 0000000180051caa f   node:node.exe
 0001:00050cb6       __imp_load_?New@Number@v8@@SA?AV?$Local@VNumber@v8@@@2@PEAVIsolate@2@N@Z 0000000180051cb6 f   node:node.exe
 0001:00050cc2       __imp_load_?SetInternalField@Object@v8@@QEAAXHV?$Local@VValue@v8@@@2@@Z 0000000180051cc2 f   node:node.exe
 0001:00050cce       __imp_load_?ForceSet@Object@v8@@QEAA?AV?$Maybe@_N@2@V?$Local@VContext@v8@@@2@V?$Local@VValue@v8@@@2@1W4PropertyAttribute@2@@Z 0000000180051cce f   node:node.exe
 0001:00050cda       __imp_load_?Set@Object@v8@@QEAA_NV?$Local@VValue@v8@@@2@0@Z 0000000180051cda f   node:node.exe
 0001:00050ce6       __imp_load_?Set@Object@v8@@QEAA?AV?$Maybe@_N@2@V?$Local@VContext@v8@@@2@IV?$Local@VValue@v8@@@2@@Z 0000000180051ce6 f   node:node.exe
 0001:00050cf2       __imp_load_?SetName@Function@v8@@QEAAXV?$Local@VString@v8@@@2@@Z 0000000180051cf2 f   node:node.exe
 0001:00050cfe       __imp_load_?Call@Function@v8@@QEAA?AV?$Local@VValue@v8@@@2@V32@HQEAV32@@Z 0000000180051cfe f   node:node.exe
 0001:00050d0a       __imp_load_?SetInternalFieldCount@ObjectTemplate@v8@@QEAAXH@Z 0000000180051d0a f   node:node.exe
 0001:00050d16       __imp_load_?NewInstance@ObjectTemplate@v8@@QEAA?AV?$MaybeLocal@VObject@v8@@@2@V?$Local@VContext@v8@@@2@@Z 0000000180051d16 f   node:node.exe
 0001:00050d22       __imp_load_?New@ObjectTemplate@v8@@SA?AV?$Local@VObjectTemplate@v8@@@2@PEAVIsolate@2@V?$Local@VFunctionTemplate@v8@@@2@@Z 0000000180051d22 f   node:node.exe
 0001:00050d2e       __imp_load_?FatalException@node@@YAXPEAVIsolate@v8@@AEBVTryCatch@3@@Z 0000000180051d2e f   node:node.exe
 0001:00050d3a       __imp_load_?HasInstance@Buffer@node@@YA_NV?$Local@VValue@v8@@@v8@@@Z 0000000180051d3a f   node:node.exe
 0001:00050d46       __imp_load_?New@Buffer@node@@YA?AV?$MaybeLocal@VObject@v8@@@v8@@PEAVIsolate@4@PEAD_KP6AX1PEAX@Z3@Z 0000000180051d46 f   node:node.exe
 0001:00050d52       __imp_load_?Data@Buffer@node@@YAPEADV?$Local@VObject@v8@@@v8@@@Z 0000000180051d52 f   node:node.exe
 0001:00050d5e       __imp_load_?Length@Buffer@node@@YA_KV?$Local@VObject@v8@@@v8@@@Z 0000000180051d5e f   node:node.exe
 0001:00050d6a       __imp_load_uv_default_loop 0000000180051d6a f   node:node.exe
 0001:00050d76       __imp_load_?New@Object@v8@@SA?AV?$Local@VObject@v8@@@2@PEAVIsolate@2@@Z 0000000180051d76 f   node:node.exe
 0001:00050d82       __imp_load_?Set@Object@v8@@QEAA?AV?$Maybe@_N@2@V?$Local@VContext@v8@@@2@V?$Local@VValue@v8@@@2@1@Z 0000000180051d82 f   node:node.exe
 0001:00050da0       __security_check_cookie    0000000180051da0 f   LIBCMT:_amdsecgs_.obj
 0001:00050dc4       ??_V@YAXPEAX_K@Z           0000000180051dc4 f   LIBCMT:delete_array_size.obj
 0001:00050dcc       ??3@YAXPEAX@Z              0000000180051dcc f   LIBCMT:delete_scalar.obj
 0001:00050dd4       ??3@YAXPEAX_K@Z            0000000180051dd4 f   LIBCMT:delete_scalar_size.obj
 0001:00050dd4       ??_V@YAXPEAX@Z             0000000180051dd4 f   LIBCMT:delete_array.obj
 0001:00050ddc       ??2@YAPEAX_K@Z             0000000180051ddc f   LIBCMT:new_scalar.obj
 0001:00051174       _DllMainCRTStartup         0000000180052174 f   LIBCMT:dll_dllmain.obj
 0001:000511b4       __raise_securityfailure    00000001800521b4 f   LIBCMT:gs_report.obj
 0001:000511e8       __report_gsfailure         00000001800521e8 f   LIBCMT:gs_report.obj
 0001:000512bc       __report_rangecheckfailure 00000001800522bc f   LIBCMT:gs_report.obj
 0001:000512d0       __report_securityfailure   00000001800522d0 f   LIBCMT:gs_report.obj
 0001:00051450       ??0bad_alloc@std@@QEAA@AEBV01@@Z 0000000180052450 f i LIBCMT:throw_bad_alloc.obj
 0001:00051490       ??0bad_alloc@std@@QEAA@XZ  0000000180052490 f i LIBCMT:throw_bad_alloc.obj
 0001:000514b0       ??0bad_array_new_length@std@@QEAA@AEBV01@@Z 00000001800524b0 f i LIBCMT:throw_bad_alloc.obj
 0001:000514f0       ??0bad_array_new_length@std@@QEAA@XZ 00000001800524f0 f i LIBCMT:throw_bad_alloc.obj
 0001:00051510       ??0exception@std@@QEAA@AEBV01@@Z 0000000180052510 f i LIBCMT:throw_bad_alloc.obj
 0001:00051548       ??1bad_array_new_length@std@@UEAA@XZ 0000000180052548 f i LIBCMT:throw_bad_alloc.obj
 0001:00051548       ??1bad_alloc@std@@UEAA@XZ  0000000180052548 f i LIBCMT:throw_bad_alloc.obj
 0001:0005155c       ??_Gexception@std@@UEAAPEAXI@Z 000000018005255c f i LIBCMT:throw_bad_alloc.obj
 0001:0005155c       ??_Ebad_array_new_length@std@@UEAAPEAXI@Z 000000018005255c f i LIBCMT:throw_bad_alloc.obj
 0001:0005155c       ??_Eexception@std@@UEAAPEAXI@Z 000000018005255c f i LIBCMT:throw_bad_alloc.obj
 0001:0005155c       ??_Gbad_array_new_length@std@@UEAAPEAXI@Z 000000018005255c f i LIBCMT:throw_bad_alloc.obj
 0001:0005155c       ??_Gbad_alloc@std@@UEAAPEAXI@Z 000000018005255c f i LIBCMT:throw_bad_alloc.obj
 0001:0005155c       ??_Ebad_alloc@std@@UEAAPEAXI@Z 000000018005255c f i LIBCMT:throw_bad_alloc.obj
 0001:000515a0       ?__scrt_throw_std_bad_alloc@@YAXXZ 00000001800525a0 f   LIBCMT:throw_bad_alloc.obj
 0001:000515c0       ?__scrt_throw_std_bad_array_new_length@@YAXXZ 00000001800525c0 f   LIBCMT:throw_bad_alloc.obj
 0001:000515e0       ?what@exception@std@@UEBAPEBDXZ 00000001800525e0 f i LIBCMT:throw_bad_alloc.obj
 0001:000515f4       __scrt_acquire_startup_lock 00000001800525f4 f   LIBCMT:utility.obj
 0001:00051630       __scrt_dllmain_after_initialize_c 0000000180052630 f   LIBCMT:utility.obj
 0001:00051650       __scrt_dllmain_before_initialize_c 0000000180052650 f   LIBCMT:utility.obj
 0001:00051668       __scrt_dllmain_crt_thread_attach 0000000180052668 f   LIBCMT:utility.obj
 0001:00051690       __scrt_dllmain_crt_thread_detach 0000000180052690 f   LIBCMT:utility.obj
 0001:000516a8       __scrt_dllmain_exception_filter 00000001800526a8 f   LIBCMT:utility.obj
 0001:0005170c       __scrt_dllmain_uninitialize_c 000000018005270c f   LIBCMT:utility.obj
 0001:0005173c       __scrt_dllmain_uninitialize_critical 000000018005273c f   LIBCMT:utility.obj
 0001:00051750       __scrt_initialize_crt      0000000180052750 f   LIBCMT:utility.obj
 0001:0005179c       __scrt_initialize_onexit_tables 000000018005279c f   LIBCMT:utility.obj
 0001:00051868       __scrt_is_nonwritable_in_current_image 0000000180052868 f   LIBCMT:utility.obj
 0001:00051904       __scrt_release_startup_lock 0000000180052904 f   LIBCMT:utility.obj
 0001:00051928       __scrt_uninitialize_crt    0000000180052928 f   LIBCMT:utility.obj
 0001:00051954       _onexit                    0000000180052954 f   LIBCMT:utility.obj
 0001:000519a4       atexit                     00000001800529a4 f   LIBCMT:utility.obj
 0001:000519bc       __security_init_cookie     00000001800529bc f   LIBCMT:gs_support.obj
 0001:00051a68       DllMain                    0000000180052a68 f   LIBCMT:dll_dllmain_stub.obj
 0001:00051a70       ?__scrt_initialize_type_info@@YAXXZ 0000000180052a70 f   LIBCMT:tncleanup.obj
 0001:00051a80       ?__scrt_uninitialize_type_info@@YAXXZ 0000000180052a80 f   LIBCMT:tncleanup.obj
 0001:00051a8c       __scrt_initialize_default_local_stdio_options 0000000180052a8c f   LIBCMT:default_local_stdio_options.obj
 0001:00051aa8       __scrt_get_dyn_tls_init_callback 0000000180052aa8 f   LIBCMT:dyn_tls_init.obj
 0001:00051ab0       __crt_debugger_hook        0000000180052ab0 f   LIBCMT:utility_desktop.obj
 0001:00051ab8       __scrt_fastfail            0000000180052ab8 f   LIBCMT:utility_desktop.obj
 0001:00051c00       _RTC_Initialize            0000000180052c00 f   LIBCMT:_initsect_.obj
 0001:00051c4c       _RTC_Terminate             0000000180052c4c f   LIBCMT:_initsect_.obj
 0001:00051c98       _guard_check_icall         0000000180052c98 f i LIBCMT:checkcfg.obj
 0001:00051ca0       ??_Etype_info@@UEAAPEAXI@Z 0000000180052ca0 f i LIBCMT:std_type_info_static.obj
 0001:00051ca0       ??_Gtype_info@@UEAAPEAXI@Z 0000000180052ca0 f i LIBCMT:std_type_info_static.obj
 0001:00051ccc       __isa_available_init       0000000180052ccc f   LIBCMT:_cpu_disp_.obj
 0001:00051e90       __scrt_is_ucrt_dll_in_use  0000000180052e90 f   LIBCMT:ucrt_detection.obj
 0001:00051ea0       _purecall                  0000000180052ea0 f   libvcruntime:purevirt.obj
 0001:00051ef0       memmove                    0000000180052ef0 f   libvcruntime:memcpy.obj
 0001:00051ef0       memcpy                     0000000180052ef0 f   libvcruntime:memcpy.obj
 0001:0005232c       __telemetry_main_invoke_trigger 000000018005332c f   libvcruntime:telemetry.obj
 0001:00052444       __telemetry_main_return_trigger 0000000180053444 f   libvcruntime:telemetry.obj
 0001:0005255c       __vcrt_initialize_telemetry_provider 000000018005355c f   libvcruntime:telemetry.obj
 0001:00052570       __vcrt_uninitialize_telemetry_provider 0000000180053570 f   libvcruntime:telemetry.obj
 0001:00052590       __C_specific_handler       0000000180053590 f   libvcruntime:_chandler_.obj
 0001:00052780       __std_exception_copy       0000000180053780 f   libvcruntime:std_exception.obj
 0001:00052810       __std_exception_destroy    0000000180053810 f   libvcruntime:std_exception.obj
 0001:00052838       _CxxThrowException         0000000180053838 f   libvcruntime:throw.obj
 0001:00052910       __vcrt_initialize          0000000180053910 f   libvcruntime:initialization.obj
 0001:00052948       __vcrt_thread_attach       0000000180053948 f   libvcruntime:initialization.obj
 0001:0005295c       __vcrt_thread_detach       000000018005395c f   libvcruntime:initialization.obj
 0001:00052970       __vcrt_uninitialize        0000000180053970 f   libvcruntime:initialization.obj
 0001:0005299c       __vcrt_uninitialize_critical 000000018005399c f   libvcruntime:initialization.obj
 0001:000529ac       __std_type_info_destroy_list 00000001800539ac f   libvcruntime:std_type_info.obj
 0001:000529f0       memset                     00000001800539f0 f   libvcruntime:memset.obj
 0001:00052b90       __vcrt_initialize_pure_virtual_call_handler 0000000180053b90 f   libvcruntime:purevirt_data.obj
 0001:00052d7c       __vcrt_EventRegister       0000000180053d7c f   libvcruntime:winapi_downlevel.obj
 0001:00052e00       __vcrt_EventSetInformation 0000000180053e00 f   libvcruntime:winapi_downlevel.obj
 0001:00052e84       __vcrt_EventUnregister     0000000180053e84 f   libvcruntime:winapi_downlevel.obj
 0001:00052ed8       __vcrt_EventWriteTransfer  0000000180053ed8 f   libvcruntime:winapi_downlevel.obj
 0001:00052f70       __vcrt_FlsAlloc            0000000180053f70 f   libvcruntime:winapi_downlevel.obj
 0001:00052fc4       __vcrt_FlsFree             0000000180053fc4 f   libvcruntime:winapi_downlevel.obj
 0001:00053018       __vcrt_FlsGetValue         0000000180054018 f   libvcruntime:winapi_downlevel.obj
 0001:0005306c       __vcrt_FlsSetValue         000000018005406c f   libvcruntime:winapi_downlevel.obj
 0001:000530d4       __vcrt_InitializeCriticalSectionEx 00000001800540d4 f   libvcruntime:winapi_downlevel.obj
 0001:0005314c       __vcrt_initialize_winapi_thunks 000000018005414c f   libvcruntime:winapi_downlevel.obj
 0001:00053184       __vcrt_uninitialize_winapi_thunks 0000000180054184 f   libvcruntime:winapi_downlevel.obj
 0001:000531e0       _local_unwind              00000001800541e0 f   libvcruntime:_jmpuwind_.obj
 0001:00053210       _NLG_Notify                0000000180054210 f   libvcruntime:_jmpuwind_.obj
 0001:00053230       __NLG_Dispatch2            0000000180054230 f   libvcruntime:_jmpuwind_.obj
 0001:00053240       __NLG_Return2              0000000180054240 f   libvcruntime:_jmpuwind_.obj
 0001:00053244       __vcrt_freefls             0000000180054244 f   libvcruntime:per_thread_data.obj
 0001:00053264       __vcrt_freeptd             0000000180054264 f   libvcruntime:per_thread_data.obj
 0001:000532b4       __vcrt_getptd_noexit       00000001800542b4 f   libvcruntime:per_thread_data.obj
 0001:0005335c       __vcrt_initialize_ptd      000000018005435c f   libvcruntime:per_thread_data.obj
 0001:0005339c       __vcrt_uninitialize_ptd    000000018005439c f   libvcruntime:per_thread_data.obj
 0001:000533c0       __vcrt_initialize_locks    00000001800543c0 f   libvcruntime:locks.obj
 0001:00053408       __vcrt_uninitialize_locks  0000000180054408 f   libvcruntime:locks.obj
 0001:00053440       ??0_LocaleUpdate@@QEAA@QEAU__crt_locale_pointers@@@Z 0000000180054440 f i libucrt:stricmp.obj
 0001:000534d0       __ascii_stricmp            00000001800544d0 f   libucrt:stricmp.obj
 0001:0005350c       _stricmp                   000000018005450c f   libucrt:stricmp.obj
 0001:0005350c       _strcmpi                   000000018005450c f   libucrt:stricmp.obj
 0001:00053554       _stricmp_l                 0000000180054554 f   libucrt:stricmp.obj
 0001:00053608       calloc                     0000000180054608 f   libucrt:calloc.obj
 0001:00053610       free                       0000000180054610 f   libucrt:free.obj
 0001:00053668       _tolower_l                 0000000180054668 f   libucrt:tolower_toupper.obj
 0001:000537a8       tolower                    00000001800547a8 f   libucrt:tolower_toupper.obj
 0001:000537f0       strncmp                    00000001800547f0 f   libucrt:strncmp.obj
 0001:00053870       ??$?RV<lambda_aa279a7bcb127014629d5b1d62c7325d>@@AEAV<lambda_0a64b6a4deda75c01876f29c44fc5eb3>@@V<lambda_3323e69fbefe9d1a11713e670d47cdfa>@@@?$__crt_seh_guarded_call@H@@QEAAH$$QEAV<lambda_aa279a7bcb127014629d5b1d62c7325d>@@AEAV<lambda_0a64b6a4deda75c01876f29c44fc5eb3>@@$$QEAV<lambda_3323e69fbefe9d1a11713e670d47cdfa>@@@Z 0000000180054870 f i libucrt:output.obj
 0001:000538b0       ??$ensure_buffer_is_big_enough@D@formatting_buffer@__crt_stdio_output@@QEAA_N_K@Z 00000001800548b0 f i libucrt:output.obj
 0001:0005395c       ??$is_wide_character_specifier@D@__crt_stdio_output@@YA_N_KDW4length_modifier@0@@Z 000000018005495c f i libucrt:output.obj
 0001:0005398c       ??$type_case_integer_parse_into_buffer@I@?$output_processor@DV?$stream_output_adapter@D@__crt_stdio_output@@V?$standard_base@DV?$stream_output_adapter@D@__crt_stdio_output@@@2@@__crt_stdio_output@@AEAAXII_N@Z 000000018005498c f i libucrt:output.obj
 0001:0005398c       ??$type_case_integer_parse_into_buffer@I@?$output_processor@DV?$string_output_adapter@D@__crt_stdio_output@@V?$standard_base@DV?$string_output_adapter@D@__crt_stdio_output@@@2@@__crt_stdio_output@@AEAAXII_N@Z 000000018005498c f i libucrt:output.obj
 0001:00053a28       ??$type_case_integer_parse_into_buffer@_K@?$output_processor@DV?$string_output_adapter@D@__crt_stdio_output@@V?$standard_base@DV?$string_output_adapter@D@__crt_stdio_output@@@2@@__crt_stdio_output@@AEAAX_KI_N@Z 0000000180054a28 f i libucrt:output.obj
 0001:00053a28       ??$type_case_integer_parse_into_buffer@_K@?$output_processor@DV?$stream_output_adapter@D@__crt_stdio_output@@V?$standard_base@DV?$stream_output_adapter@D@__crt_stdio_output@@@2@@__crt_stdio_output@@AEAAX_KI_N@Z 0000000180054a28 f i libucrt:output.obj
 0001:00053ac4       ??$write_multiple_characters@V?$stream_output_adapter@D@__crt_stdio_output@@D@__crt_stdio_output@@YAXAEBV?$stream_output_adapter@D@0@DHQEAH@Z 0000000180054ac4 f i libucrt:output.obj
 0001:00053b48       ??$write_multiple_characters@V?$string_output_adapter@D@__crt_stdio_output@@D@__crt_stdio_output@@YAXAEBV?$string_output_adapter@D@0@DHQEAH@Z 0000000180054b48 f i libucrt:output.obj
 0001:00053ba4       ??0?$output_processor@DV?$string_output_adapter@D@__crt_stdio_output@@V?$standard_base@DV?$string_output_adapter@D@__crt_stdio_output@@@2@@__crt_stdio_output@@QEAA@AEBV?$string_output_adapter@D@1@_KQEBDQEAU__crt_locale_pointers@@QEAD@Z 0000000180054ba4 f i libucrt:output.obj
 0001:00053ba4       ??0?$output_processor@DV?$stream_output_adapter@D@__crt_stdio_output@@V?$standard_base@DV?$stream_output_adapter@D@__crt_stdio_output@@@2@@__crt_stdio_output@@QEAA@AEBV?$stream_output_adapter@D@1@_KQEBDQEAU__crt_locale_pointers@@QEAD@Z 0000000180054ba4 f i libucrt:output.obj
 0001:00053d10       ?force_decimal_point@__crt_stdio_output@@YAXPEADQEAU__crt_locale_pointers@@@Z 0000000180054d10 f i libucrt:output.obj
 0001:00053d80       ?parse_int_from_format_string@?$output_processor@DV?$string_output_adapter@D@__crt_stdio_output@@V?$standard_base@DV?$string_output_adapter@D@__crt_stdio_output@@@2@@__crt_stdio_output@@AEAA_NQEAH@Z 0000000180054d80 f i libucrt:output.obj
 0001:00053d80       ?parse_int_from_format_string@?$output_processor@DV?$stream_output_adapter@D@__crt_stdio_output@@V?$standard_base@DV?$stream_output_adapter@D@__crt_stdio_output@@@2@@__crt_stdio_output@@AEAA_NQEAH@Z 0000000180054d80 f i libucrt:output.obj
 0001:00053e04       ?process@?$output_processor@DV?$stream_output_adapter@D@__crt_stdio_output@@V?$standard_base@DV?$stream_output_adapter@D@__crt_stdio_output@@@2@@__crt_stdio_output@@QEAAHXZ 0000000180054e04 f i libucrt:output.obj
 0001:00054014       ?process@?$output_processor@DV?$string_output_adapter@D@__crt_stdio_output@@V?$standard_base@DV?$string_output_adapter@D@__crt_stdio_output@@@2@@__crt_stdio_output@@QEAAHXZ 0000000180055014 f i libucrt:output.obj
 0001:00054218       ?state_case_normal@?$output_processor@DV?$stream_output_adapter@D@__crt_stdio_output@@V?$standard_base@DV?$stream_output_adapter@D@__crt_stdio_output@@@2@@__crt_stdio_output@@AEAA_NXZ 0000000180055218 f i libucrt:output.obj
 0001:00054288       ?state_case_normal@?$output_processor@DV?$string_output_adapter@D@__crt_stdio_output@@V?$standard_base@DV?$string_output_adapter@D@__crt_stdio_output@@@2@@__crt_stdio_output@@AEAA_NXZ 0000000180055288 f i libucrt:output.obj
 0001:000542fc       ?state_case_normal_tchar@?$output_processor@DV?$stream_output_adapter@D@__crt_stdio_output@@V?$standard_base@DV?$stream_output_adapter@D@__crt_stdio_output@@@2@@__crt_stdio_output@@AEAA_ND@Z 00000001800552fc f i libucrt:output.obj
 0001:00054390       ?state_case_normal_tchar@?$output_processor@DV?$string_output_adapter@D@__crt_stdio_output@@V?$standard_base@DV?$string_output_adapter@D@__crt_stdio_output@@@2@@__crt_stdio_output@@AEAA_ND@Z 0000000180055390 f i libucrt:output.obj
 0001:00054428       ?state_case_size@?$output_processor@DV?$stream_output_adapter@D@__crt_stdio_output@@V?$standard_base@DV?$stream_output_adapter@D@__crt_stdio_output@@@2@@__crt_stdio_output@@AEAA_NXZ 0000000180055428 f i libucrt:output.obj
 0001:000545a4       ?state_case_size@?$output_processor@DV?$string_output_adapter@D@__crt_stdio_output@@V?$standard_base@DV?$string_output_adapter@D@__crt_stdio_output@@@2@@__crt_stdio_output@@AEAA_NXZ 00000001800555a4 f i libucrt:output.obj
 0001:00054720       ?state_case_type@?$output_processor@DV?$stream_output_adapter@D@__crt_stdio_output@@V?$standard_base@DV?$stream_output_adapter@D@__crt_stdio_output@@@2@@__crt_stdio_output@@AEAA_NXZ 0000000180055720 f i libucrt:output.obj
 0001:0005499c       ?state_case_type@?$output_processor@DV?$string_output_adapter@D@__crt_stdio_output@@V?$standard_base@DV?$string_output_adapter@D@__crt_stdio_output@@@2@@__crt_stdio_output@@AEAA_NXZ 000000018005599c f i libucrt:output.obj
 0001:00054c18       ?type_case_Z@?$output_processor@DV?$stream_output_adapter@D@__crt_stdio_output@@V?$standard_base@DV?$stream_output_adapter@D@__crt_stdio_output@@@2@@__crt_stdio_output@@AEAA_NXZ 0000000180055c18 f i libucrt:output.obj
 0001:00054c18       ?type_case_Z@?$output_processor@DV?$string_output_adapter@D@__crt_stdio_output@@V?$standard_base@DV?$string_output_adapter@D@__crt_stdio_output@@@2@@__crt_stdio_output@@AEAA_NXZ 0000000180055c18 f i libucrt:output.obj
 0001:00054c98       ?type_case_a@?$output_processor@DV?$string_output_adapter@D@__crt_stdio_output@@V?$standard_base@DV?$string_output_adapter@D@__crt_stdio_output@@@2@@__crt_stdio_output@@AEAA_NXZ 0000000180055c98 f i libucrt:output.obj
 0001:00054c98       ?type_case_a@?$output_processor@DV?$stream_output_adapter@D@__crt_stdio_output@@V?$standard_base@DV?$stream_output_adapter@D@__crt_stdio_output@@@2@@__crt_stdio_output@@AEAA_NXZ 0000000180055c98 f i libucrt:output.obj
 0001:00054eb4       ?type_case_c_tchar@?$output_processor@DV?$stream_output_adapter@D@__crt_stdio_output@@V?$standard_base@DV?$stream_output_adapter@D@__crt_stdio_output@@@2@@__crt_stdio_output@@AEAA_ND@Z 0000000180055eb4 f i libucrt:output.obj
 0001:00054eb4       ?type_case_c_tchar@?$output_processor@DV?$string_output_adapter@D@__crt_stdio_output@@V?$standard_base@DV?$string_output_adapter@D@__crt_stdio_output@@@2@@__crt_stdio_output@@AEAA_ND@Z 0000000180055eb4 f i libucrt:output.obj
 0001:00054f68       ?type_case_integer@?$output_processor@DV?$string_output_adapter@D@__crt_stdio_output@@V?$standard_base@DV?$string_output_adapter@D@__crt_stdio_output@@@2@@__crt_stdio_output@@AEAA_NI_N@Z 0000000180055f68 f i libucrt:output.obj
 0001:00054f68       ?type_case_integer@?$output_processor@DV?$stream_output_adapter@D@__crt_stdio_output@@V?$standard_base@DV?$stream_output_adapter@D@__crt_stdio_output@@@2@@__crt_stdio_output@@AEAA_NI_N@Z 0000000180055f68 f i libucrt:output.obj
 0001:00055108       ?type_case_n@?$output_processor@DV?$stream_output_adapter@D@__crt_stdio_output@@V?$standard_base@DV?$stream_output_adapter@D@__crt_stdio_output@@@2@@__crt_stdio_output@@AEAA_NXZ 0000000180056108 f i libucrt:output.obj
 0001:00055108       ?type_case_n@?$output_processor@DV?$string_output_adapter@D@__crt_stdio_output@@V?$standard_base@DV?$string_output_adapter@D@__crt_stdio_output@@@2@@__crt_stdio_output@@AEAA_NXZ 0000000180056108 f i libucrt:output.obj
 0001:000551e4       ?type_case_s@?$output_processor@DV?$stream_output_adapter@D@__crt_stdio_output@@V?$standard_base@DV?$stream_output_adapter@D@__crt_stdio_output@@@2@@__crt_stdio_output@@AEAA_NXZ 00000001800561e4 f i libucrt:output.obj
 0001:000551e4       ?type_case_s@?$output_processor@DV?$string_output_adapter@D@__crt_stdio_output@@V?$standard_base@DV?$string_output_adapter@D@__crt_stdio_output@@@2@@__crt_stdio_output@@AEAA_NXZ 00000001800561e4 f i libucrt:output.obj
 0001:00055274       ?validate_stream_is_ansi_if_required@?$__acrt_stdio_char_traits@D@@SA_NQEAU_iobuf@@@Z 0000000180056274 f i libucrt:output.obj
 0001:00055300       ?write_stored_string_tchar@?$output_processor@DV?$stream_output_adapter@D@__crt_stdio_output@@V?$standard_base@DV?$stream_output_adapter@D@__crt_stdio_output@@@2@@__crt_stdio_output@@AEAA_ND@Z 0000000180056300 f i libucrt:output.obj
 0001:000553d8       ?write_stored_string_tchar@?$output_processor@DV?$string_output_adapter@D@__crt_stdio_output@@V?$standard_base@DV?$string_output_adapter@D@__crt_stdio_output@@@2@@__crt_stdio_output@@AEAA_ND@Z 00000001800563d8 f i libucrt:output.obj
 0001:000554b0       ?write_string@?$stream_output_adapter@D@__crt_stdio_output@@QEBAXQEBDHQEAH1@Z 00000001800564b0 f i libucrt:output.obj
 0001:000555a8       ?write_string@?$string_output_adapter@D@__crt_stdio_output@@QEBAXQEBDHQEAH1@Z 00000001800565a8 f i libucrt:output.obj
 0001:00055664       __stdio_common_vfprintf    0000000180056664 f   libucrt:output.obj
 0001:000556f0       __stdio_common_vsprintf    00000001800566f0 f   libucrt:output.obj
 0001:00055924       ??$is_overflow_condition@K@__crt_strtox@@YA_NIK@Z 0000000180056924 f i libucrt:strtox.obj
 0001:00055950       ??$is_overflow_condition@_K@__crt_strtox@@YA_NI_K@Z 0000000180056950 f i libucrt:strtox.obj
 0001:00055988       ??$make_c_string_character_source@D$$T@__crt_strtox@@YA?AV?$c_string_character_source@D@0@QEBD$$T@Z 0000000180056988 f i libucrt:atox.obj
 0001:00055988       ??$make_c_string_character_source@DPEAPEAD@__crt_strtox@@YA?AV?$c_string_character_source@D@0@QEBDQEAPEAD@Z 0000000180056988 f i libucrt:strtox.obj
 0001:0005599c       ??$parse_integer@KV?$c_string_character_source@D@__crt_strtox@@@__crt_strtox@@YAKQEAU__crt_locale_pointers@@V?$c_string_character_source@D@0@H_N@Z 000000018005699c f i libucrt:strtox.obj
 0001:00055cb0       ??$parse_integer@_KV?$c_string_character_source@D@__crt_strtox@@@__crt_strtox@@YA_KQEAU__crt_locale_pointers@@V?$c_string_character_source@D@0@H_N@Z 0000000180056cb0 f i libucrt:strtox.obj
 0001:00055fe4       strtol                     0000000180056fe4 f   libucrt:strtox.obj
 0001:00056014       strtoull                   0000000180057014 f   libucrt:strtox.obj
 0001:00056044       malloc                     0000000180057044 f   libucrt:malloc.obj
 0001:0005604c       __acrt_initialize_stdio    000000018005704c f   libucrt:_file.obj
 0001:0005616c       __acrt_iob_func            000000018005716c f   libucrt:_file.obj
 0001:00056180       __acrt_uninitialize_stdio  0000000180057180 f   libucrt:_file.obj
 0001:000561dc       _lock_file                 00000001800571dc f   libucrt:_file.obj
 0001:000561e8       _unlock_file               00000001800571e8 f   libucrt:_file.obj
 0001:000561f4       __acrt_stdio_flush_nolock  00000001800571f4 f   libucrt:fflush.obj
 0001:0005626c       _fflush_nolock             000000018005726c f   libucrt:fflush.obj
 0001:000562b8       _flushall                  00000001800572b8 f   libucrt:fflush.obj
 0001:000563a8       fflush                     00000001800573a8 f   libucrt:fflush.obj
 0001:00056400       strncpy                    0000000180057400 f   libucrt:strncpy.obj
 0001:00056794       __acrt_initialize_thread_local_exit_callback 0000000180057794 f   libucrt:exit.obj
 0001:0005679c       _cexit                     000000018005779c f   libucrt:exit.obj
 0001:000567ac       _exit                      00000001800577ac f   libucrt:exit.obj
 0001:000567b8       _is_c_termination_complete 00000001800577b8 f   libucrt:exit.obj
 0001:000567c0       exit                       00000001800577c0 f   libucrt:exit.obj
 0001:000568a0       qsort                      00000001800578a0 f   libucrt:qsort.obj
 0001:00056bd4       __ascii_strnicmp           0000000180057bd4 f   libucrt:strnicmp.obj
 0001:00056c1c       _strnicmp                  0000000180057c1c f   libucrt:strnicmp.obj
 0001:00056c6c       _strnicmp_l                0000000180057c6c f   libucrt:strnicmp.obj
 0001:00056dc0       ??$parse_floating_point@V?$c_string_character_source@D@__crt_strtox@@N@__crt_strtox@@YA?AW4SLD_STATUS@@QEAU__crt_locale_pointers@@V?$c_string_character_source@D@0@QEAN@Z 0000000180057dc0 f i libucrt:atof.obj
 0001:00056e60       ??$parse_floating_point_from_source@V?$c_string_character_source@D@__crt_strtox@@@__crt_strtox@@YA?AW4floating_point_parse_result@0@QEAU__crt_locale_pointers@@AEAV?$c_string_character_source@D@0@AEAUfloating_point_string@0@@Z 0000000180057e60 f i libucrt:atof.obj
 0001:0005734c       ??$parse_floating_point_possible_infinity@DV?$c_string_character_source@D@__crt_strtox@@PEBD@__crt_strtox@@YA?AW4floating_point_parse_result@0@AEADAEAV?$c_string_character_source@D@0@PEBD@Z 000000018005834c f i libucrt:atof.obj
 0001:00057464       ??$parse_floating_point_possible_nan@DV?$c_string_character_source@D@__crt_strtox@@PEBD@__crt_strtox@@YA?AW4floating_point_parse_result@0@AEADAEAV?$c_string_character_source@D@0@PEBD@Z 0000000180058464 f i libucrt:atof.obj
 0001:000575f8       ??$parse_floating_point_possible_nan_is_ind@DV?$c_string_character_source@D@__crt_strtox@@@__crt_strtox@@YA_NAEADAEAV?$c_string_character_source@D@0@@Z 00000001800585f8 f i libucrt:atof.obj
 0001:00057640       ??$parse_floating_point_possible_nan_is_snan@DV?$c_string_character_source@D@__crt_strtox@@@__crt_strtox@@YA_NAEADAEAV?$c_string_character_source@D@0@@Z 0000000180058640 f i libucrt:atof.obj
 0001:00057688       ??$parse_floating_point_write_result@M@__crt_strtox@@YA?AW4SLD_STATUS@@W4floating_point_parse_result@0@AEBUfloating_point_string@0@QEAM@Z 0000000180058688 f i libucrt:atof.obj
 0001:000577a0       ??$parse_floating_point_write_result@N@__crt_strtox@@YA?AW4SLD_STATUS@@W4floating_point_parse_result@0@AEBUfloating_point_string@0@QEAN@Z 00000001800587a0 f i libucrt:atof.obj
 0001:00057914       ?as_double@floating_point_value@__crt_strtox@@QEBAAEANXZ 0000000180058914 f i libucrt:atof.obj
 0001:00057950       ?as_float@floating_point_value@__crt_strtox@@QEBAAEAMXZ 0000000180058950 f i libucrt:atof.obj
 0001:0005798c       ?assemble_floating_point_value@__crt_strtox@@YA?AW4SLD_STATUS@@_KH_N1AEBVfloating_point_value@1@@Z 000000018005898c f i libucrt:atof.obj
 0001:00057d40       ?assemble_floating_point_value_from_big_integer@__crt_strtox@@YA?AW4SLD_STATUS@@AEBUbig_integer@1@I_N1AEBVfloating_point_value@1@@Z 0000000180058d40 f i libucrt:atof.obj
 0001:00057ecc       ?convert_decimal_string_to_floating_type_common@__crt_strtox@@YA?AW4SLD_STATUS@@AEBUfloating_point_string@1@AEBVfloating_point_value@1@@Z 0000000180058ecc f i libucrt:atof.obj
 0001:00059c90       ?convert_hexadecimal_string_to_floating_type_common@__crt_strtox@@YA?AW4SLD_STATUS@@AEBUfloating_point_string@1@AEBVfloating_point_value@1@@Z 000000018005ac90 f i libucrt:atof.obj
 0001:00059d40       ?divide@__crt_strtox@@YA_KAEAUbig_integer@1@AEBU21@@Z 000000018005ad40 f i libucrt:atof.obj
 0001:0005a210       atof                       000000018005b210 f   libucrt:atof.obj
 0001:0005a2a0       __acrt_errno_from_os_error 000000018005b2a0 f   libucrt:errno.obj
 0001:0005a2e8       __acrt_errno_map_os_error  000000018005b2e8 f   libucrt:errno.obj
 0001:0005a338       __doserrno                 000000018005b338 f   libucrt:errno.obj
 0001:0005a358       _errno                     000000018005b358 f   libucrt:errno.obj
 0001:0005a378       realloc                    000000018005b378 f   libucrt:realloc.obj
 0001:0005a380       ??$make_input_adapter_character_source@V?$string_input_adapter@D@__crt_stdio_input@@@__crt_strtox@@YA?AV?$input_adapter_character_source@V?$string_input_adapter@D@__crt_stdio_input@@@0@QEAV?$string_input_adapter@D@__crt_stdio_input@@_KQEA_N@Z 000000018005b380 f i libucrt:input.obj
 0001:0005a3a0       ??$parse_floating_point@V?$input_adapter_character_source@V?$string_input_adapter@D@__crt_stdio_input@@@__crt_strtox@@M@__crt_strtox@@YA?AW4SLD_STATUS@@QEAU__crt_locale_pointers@@V?$input_adapter_character_source@V?$string_input_adapter@D@__crt_stdio_input@@@0@QEAM@Z 000000018005b3a0 f i libucrt:input.obj
 0001:0005a448       ??$parse_floating_point@V?$input_adapter_character_source@V?$string_input_adapter@D@__crt_stdio_input@@@__crt_strtox@@N@__crt_strtox@@YA?AW4SLD_STATUS@@QEAU__crt_locale_pointers@@V?$input_adapter_character_source@V?$string_input_adapter@D@__crt_stdio_input@@@0@QEAN@Z 000000018005b448 f i libucrt:input.obj
 0001:0005a4f0       ??$parse_floating_point_from_source@V?$input_adapter_character_source@V?$string_input_adapter@D@__crt_stdio_input@@@__crt_strtox@@@__crt_strtox@@YA?AW4floating_point_parse_result@0@QEAU__crt_locale_pointers@@AEAV?$input_adapter_character_source@V?$string_input_adapter@D@__crt_stdio_input@@@0@AEAUfloating_point_string@0@@Z 000000018005b4f0 f i libucrt:input.obj
 0001:0005acd0       ??$parse_floating_point_possible_infinity@DV?$input_adapter_character_source@V?$string_input_adapter@D@__crt_stdio_input@@@__crt_strtox@@_K@__crt_strtox@@YA?AW4floating_point_parse_result@0@AEADAEAV?$input_adapter_character_source@V?$string_input_adapter@D@__crt_stdio_input@@@0@_K@Z 000000018005bcd0 f i libucrt:input.obj
 0001:0005ae80       ??$parse_floating_point_possible_nan@DV?$input_adapter_character_source@V?$string_input_adapter@D@__crt_stdio_input@@@__crt_strtox@@_K@__crt_strtox@@YA?AW4floating_point_parse_result@0@AEADAEAV?$input_adapter_character_source@V?$string_input_adapter@D@__crt_stdio_input@@@0@_K@Z 000000018005be80 f i libucrt:input.obj
 0001:0005b0f0       ??$parse_floating_point_possible_nan_is_ind@DV?$input_adapter_character_source@V?$string_input_adapter@D@__crt_stdio_input@@@__crt_strtox@@@__crt_strtox@@YA_NAEADAEAV?$input_adapter_character_source@V?$string_input_adapter@D@__crt_stdio_input@@@0@@Z 000000018005c0f0 f i libucrt:input.obj
 0001:0005b168       ??$parse_floating_point_possible_nan_is_snan@DV?$input_adapter_character_source@V?$string_input_adapter@D@__crt_stdio_input@@@__crt_strtox@@@__crt_strtox@@YA_NAEADAEAV?$input_adapter_character_source@V?$string_input_adapter@D@__crt_stdio_input@@@0@@Z 000000018005c168 f i libucrt:input.obj
 0001:0005b1e0       ??$parse_integer@_KV?$input_adapter_character_source@V?$string_input_adapter@D@__crt_stdio_input@@@__crt_strtox@@@__crt_strtox@@YA_KQEAU__crt_locale_pointers@@V?$input_adapter_character_source@V?$string_input_adapter@D@__crt_stdio_input@@@0@H_N@Z 000000018005c1e0 f i libucrt:input.obj
 0001:0005b674       ??$process_floating_point_specifier_t@M@?$input_processor@DV?$string_input_adapter@D@__crt_stdio_input@@@__crt_stdio_input@@AEAA_NXZ 000000018005c674 f i libucrt:input.obj
 0001:0005b71c       ??$process_floating_point_specifier_t@N@?$input_processor@DV?$string_input_adapter@D@__crt_stdio_input@@@__crt_stdio_input@@AEAA_NXZ 000000018005c71c f i libucrt:input.obj
 0001:0005b7c4       ??$process_string_specifier_tchar@D@?$input_processor@DV?$string_input_adapter@D@__crt_stdio_input@@@__crt_stdio_input@@AEAA_NW4conversion_mode@1@D@Z 000000018005c7c4 f i libucrt:input.obj
 0001:0005b98c       ??$process_string_specifier_tchar@_W@?$input_processor@DV?$string_input_adapter@D@__crt_stdio_input@@@__crt_stdio_input@@AEAA_NW4conversion_mode@1@_W@Z 000000018005c98c f i libucrt:input.obj
 0001:0005bb8c       ??$skip_whitespace@Vstring_input_adapter@__crt_stdio_input@@D@__crt_stdio_input@@YAHAEAV?$string_input_adapter@D@0@QEAU__crt_locale_pointers@@@Z 000000018005cb8c f i libucrt:input.obj
 0001:0005bc7c       ?advance@?$format_string_parser@D@__crt_stdio_input@@QEAA_NXZ 000000018005cc7c f i libucrt:input.obj
 0001:0005be4c       ?length@?$format_string_parser@D@__crt_stdio_input@@QEBA_KXZ 000000018005ce4c f i libucrt:input.obj
 0001:0005bee8       ?process@?$input_processor@DV?$string_input_adapter@D@__crt_stdio_input@@@__crt_stdio_input@@QEAAHXZ 000000018005cee8 f i libucrt:input.obj
 0001:0005bfd8       ?process_conversion_specifier@?$input_processor@DV?$string_input_adapter@D@__crt_stdio_input@@@__crt_stdio_input@@AEAA_NXZ 000000018005cfd8 f i libucrt:input.obj
 0001:0005c0fc       ?process_floating_point_specifier@?$input_processor@DV?$string_input_adapter@D@__crt_stdio_input@@@__crt_stdio_input@@AEAA_NXZ 000000018005d0fc f i libucrt:input.obj
 0001:0005c16c       ?process_integer_specifier@?$input_processor@DV?$string_input_adapter@D@__crt_stdio_input@@@__crt_stdio_input@@AEAA_NI_N@Z 000000018005d16c f i libucrt:input.obj
 0001:0005c21c       ?process_literal_character_tchar@?$input_processor@DV?$string_input_adapter@D@__crt_stdio_input@@@__crt_stdio_input@@AEAA_ND@Z 000000018005d21c f i libucrt:input.obj
 0001:0005c2a8       ?process_state@?$input_processor@DV?$string_input_adapter@D@__crt_stdio_input@@@__crt_stdio_input@@AEAA_NXZ 000000018005d2a8 f i libucrt:input.obj
 0001:0005c35c       ?process_string_specifier@?$input_processor@DV?$string_input_adapter@D@__crt_stdio_input@@@__crt_stdio_input@@AEAA_NW4conversion_mode@2@@Z 000000018005d35c f i libucrt:input.obj
 0001:0005c3e8       ?scan_conversion_specifier@?$format_string_parser@D@__crt_stdio_input@@AEAA_NXZ 000000018005d3e8 f i libucrt:input.obj
 0001:0005c5a4       ?scan_optional_field_width@?$format_string_parser@D@__crt_stdio_input@@AEAA_NXZ 000000018005d5a4 f i libucrt:input.obj
 0001:0005c64c       ?scan_optional_length_modifier@?$format_string_parser@D@__crt_stdio_input@@AEAAXXZ 000000018005d64c f i libucrt:input.obj
 0001:0005c778       ?scan_scanset_range@?$format_string_parser@D@__crt_stdio_input@@AEAA_NXZ 000000018005d778 f i libucrt:input.obj
 0001:0005c90c       ?write_character@?$input_processor@DV?$string_input_adapter@D@__crt_stdio_input@@@__crt_stdio_input@@AEAA_NQEFA_W_KAEAPEFA_WAEA_KD@Z 000000018005d90c f i libucrt:input.obj
 0001:0005c9a8       ?write_integer@?$input_processor@DV?$string_input_adapter@D@__crt_stdio_input@@@__crt_stdio_input@@AEAA_N_K_N@Z 000000018005d9a8 f i libucrt:input.obj
 0001:0005ca2c       __stdio_common_vsscanf     000000018005da2c f   libucrt:input.obj
 0001:0005cb74       ??$?RV<lambda_bfedae4ebbf01fab1bb6dcc6a9e276e0>@@AEAV<lambda_2fe9b910cf3cbf4a0ab98a02ba45b3ec>@@V<lambda_237c231691f317818eb88cc1d5d642d6>@@@?$__crt_seh_guarded_call@H@@QEAAH$$QEAV<lambda_bfedae4ebbf01fab1bb6dcc6a9e276e0>@@AEAV<lambda_2fe9b910cf3cbf4a0ab98a02ba45b3ec>@@$$QEAV<lambda_237c231691f317818eb88cc1d5d642d6>@@@Z 000000018005db74 f i libucrt:close.obj
 0001:0005cbe8       _close                     000000018005dbe8 f   libucrt:close.obj
 0001:0005cc8c       _close_nolock              000000018005dc8c f   libucrt:close.obj
 0001:0005cd48       __acrt_initialize_new_handler 000000018005dd48 f   libucrt:new_handler.obj
 0001:0005cd50       _callnewh                  000000018005dd50 f   libucrt:new_handler.obj
 0001:0005cd90       _query_new_handler         000000018005dd90 f   libucrt:new_handler.obj
 0001:0005cdc4       _initterm                  000000018005ddc4 f   libucrt:initterm.obj
 0001:0005ce3c       _initterm_e                000000018005de3c f   libucrt:initterm.obj
 0001:0005ce88       _seh_filter_dll            000000018005de88 f   libucrt:exception_filter.obj
 0001:0005ce9c       _seh_filter_exe            000000018005de9c f   libucrt:exception_filter.obj
 0001:0005d210       __dcrt_uninitialize_environments_nolock 000000018005e210 f   libucrt:environment_initialization.obj
 0001:0005d248       _initialize_narrow_environment 000000018005e248 f   libucrt:environment_initialization.obj
 0001:0005d250       ??$?RV<lambda_b8c45f8f788dd370798f47cfe8ac3a86>@@AEAV<lambda_4e60a939b0d047cfe11ddc22648dfba9>@@V<lambda_332c3edc96d0294ec56c57d38c1cdfd5>@@@?$__crt_seh_guarded_call@H@@QEAAH$$QEAV<lambda_b8c45f8f788dd370798f47cfe8ac3a86>@@AEAV<lambda_4e60a939b0d047cfe11ddc22648dfba9>@@$$QEAV<lambda_332c3edc96d0294ec56c57d38c1cdfd5>@@@Z 000000018005e250 f i libucrt:onexit.obj
 0001:0005d28c       ??$?RV<lambda_e24bbb7b643b32fcea6fa61b31d4c984>@@AEAV<lambda_275893d493268fdec8709772e3fcec0e>@@V<lambda_9d71df4d7cf3f480f8d633942495c3b0>@@@?$__crt_seh_guarded_call@H@@QEAAH$$QEAV<lambda_e24bbb7b643b32fcea6fa61b31d4c984>@@AEAV<lambda_275893d493268fdec8709772e3fcec0e>@@$$QEAV<lambda_9d71df4d7cf3f480f8d633942495c3b0>@@@Z 000000018005e28c f i libucrt:onexit.obj
 0001:0005d608       _crt_atexit                000000018005e608 f   libucrt:onexit.obj
 0001:0005d618       _execute_onexit_table      000000018005e618 f   libucrt:onexit.obj
 0001:0005d654       _initialize_onexit_table   000000018005e654 f   libucrt:onexit.obj
 0001:0005d694       _register_onexit_function  000000018005e694 f   libucrt:onexit.obj
 0001:0005d724       __acrt_uninitialize_command_line 000000018005e724 f   libucrt:argv_data.obj
 0001:0005d814       __acrt_initialize          000000018005e814 f   libucrt:initialization.obj
 0001:0005d828       __acrt_thread_attach       000000018005e828 f   libucrt:initialization.obj
 0001:0005d83c       __acrt_thread_detach       000000018005e83c f   libucrt:initialization.obj
 0001:0005d84c       __acrt_uninitialize        000000018005e84c f   libucrt:initialization.obj
 0001:0005d860       __acrt_uninitialize_critical 000000018005e860 f   libucrt:initialization.obj
 0001:0005d870       terminate                  000000018005e870 f   libucrt:terminate.obj
 0001:0005ddc8       _read                      000000018005edc8 f   libucrt:read.obj
 0001:0005ddc8       read                       000000018005edc8 f   libucrt:read.obj
 0001:0005dee0       _read_nolock               000000018005eee0 f   libucrt:read.obj
 0001:0005e6ec       _lseek                     000000018005f6ec f   libucrt:lseek.obj
 0001:0005e6ec       lseek                      000000018005f6ec f   libucrt:lseek.obj
 0001:0005e6f4       _lseeki64                  000000018005f6f4 f   libucrt:lseek.obj
 0001:0005e6fc       _lseeki64_nolock           000000018005f6fc f   libucrt:lseek.obj
 0001:0005e704       abort                      000000018005f704 f   libucrt:abort.obj
 0001:0005e75c       strcpy_s                   000000018005f75c f   libucrt:strcpy_s.obj
 0001:0005e7bc       _free_base                 000000018005f7bc f   libucrt:free_base.obj
 0001:0005e7fc       _malloc_base               000000018005f7fc f   libucrt:malloc_base.obj
 0001:0005e85c       _calloc_base               000000018005f85c f   libucrt:calloc_base.obj
 0001:0005e8d4       __acrt_call_reportfault    000000018005f8d4 f   libucrt:invalid_parameter.obj
 0001:0005ea30       __acrt_initialize_invalid_parameter_handler 000000018005fa30 f   libucrt:invalid_parameter.obj
 0001:0005ea38       _invalid_parameter         000000018005fa38 f   libucrt:invalid_parameter.obj
 0001:0005eae0       _invalid_parameter_noinfo  000000018005fae0 f   libucrt:invalid_parameter.obj
 0001:0005eb00       _invoke_watson             000000018005fb00 f   libucrt:invalid_parameter.obj
 0001:0005eb48       _query_app_type            000000018005fb48 f   libucrt:report_runtime_error.obj
 0001:0005eb50       ??$?RV<lambda_c36588078e9f5dfd39652860aa6b3aaf>@@AEAV<lambda_ec61778202f4f5fc7e7711acc23c3bca>@@V<lambda_dc9d2797ccde5d239b4a0efae8ebd7db>@@@?$__crt_seh_guarded_call@P6AXH@Z@@QEAAP6AXH@Z$$QEAV<lambda_c36588078e9f5dfd39652860aa6b3aaf>@@AEAV<lambda_ec61778202f4f5fc7e7711acc23c3bca>@@$$QEAV<lambda_dc9d2797ccde5d239b4a0efae8ebd7db>@@@Z 000000018005fb50 f i libucrt:signal.obj
 0001:0005eb98       __acrt_get_sigabrt_handler 000000018005fb98 f   libucrt:signal.obj
 0001:0005ebc8       __acrt_initialize_signal_handlers 000000018005fbc8 f   libucrt:signal.obj
 0001:0005ebe8       raise                      000000018005fbe8 f   libucrt:signal.obj
 0001:0005ee84       ??$?RV<lambda_46352004c1216016012b18bd6f87e700>@@AEAV<lambda_3bd07e1a1191394380780325891bf33f>@@V<lambda_334532d3f185bcaa59b5be82d7d22bff>@@@?$__crt_seh_guarded_call@X@@QEAAX$$QEAV<lambda_46352004c1216016012b18bd6f87e700>@@AEAV<lambda_3bd07e1a1191394380780325891bf33f>@@$$QEAV<lambda_334532d3f185bcaa59b5be82d7d22bff>@@@Z 000000018005fe84 f i libucrt:per_thread_data.obj
 0001:0005eee4       ??$?RV<lambda_5e887d1dcbef67a5eb4283622ba103bf>@@AEAV<lambda_4466841279450cc726390878d4a41900>@@V<lambda_341c25c0346d94847f1f3c463c57e077>@@@?$__crt_seh_guarded_call@X@@QEAAX$$QEAV<lambda_5e887d1dcbef67a5eb4283622ba103bf>@@AEAV<lambda_4466841279450cc726390878d4a41900>@@$$QEAV<lambda_341c25c0346d94847f1f3c463c57e077>@@@Z 000000018005fee4 f i libucrt:per_thread_data.obj
 0001:0005ef2c       ??$?RV<lambda_72d1df2b273a38828b1ce30cbf4cdab5>@@AEAV<lambda_876a65b173b8412d3a47c70a915b0cf4>@@V<lambda_41932305e351933ebe8f8be3ed8bb5dc>@@@?$__crt_seh_guarded_call@X@@QEAAX$$QEAV<lambda_72d1df2b273a38828b1ce30cbf4cdab5>@@AEAV<lambda_876a65b173b8412d3a47c70a915b0cf4>@@$$QEAV<lambda_41932305e351933ebe8f8be3ed8bb5dc>@@@Z 000000018005ff2c f i libucrt:per_thread_data.obj
 0001:0005ef6c       ??$?RV<lambda_fb3a7dec4e47f37f22dae91bb15c9095>@@AEAV<lambda_698284760c8add0bfb0756c19673e34b>@@V<lambda_dfb8eca1e75fef3034a8fb18dd509707>@@@?$__crt_seh_guarded_call@X@@QEAAX$$QEAV<lambda_fb3a7dec4e47f37f22dae91bb15c9095>@@AEAV<lambda_698284760c8add0bfb0756c19673e34b>@@$$QEAV<lambda_dfb8eca1e75fef3034a8fb18dd509707>@@@Z 000000018005ff6c f i libucrt:per_thread_data.obj
 0001:0005f1fc       __acrt_freeptd             00000001800601fc f   libucrt:per_thread_data.obj
 0001:0005f240       __acrt_getptd              0000000180060240 f   libucrt:per_thread_data.obj
 0001:0005f2d4       __acrt_getptd_noexit       00000001800602d4 f   libucrt:per_thread_data.obj
 0001:0005f374       __acrt_initialize_ptd      0000000180060374 f   libucrt:per_thread_data.obj
 0001:0005f3b0       __acrt_uninitialize_ptd    00000001800603b0 f   libucrt:per_thread_data.obj
 0001:0005f3d4       __acrt_update_locale_info  00000001800603d4 f   libucrt:locale_update.obj
 0001:0005f408       __acrt_update_multibyte_info 0000000180060408 f   libucrt:locale_update.obj
 0001:0005f43c       __acrt_set_locale_changed  000000018006043c f   libucrt:wsetlocale.obj
 0001:0005f448       __acrt_uninitialize_locale 0000000180060448 f   libucrt:wsetlocale.obj
 0001:0005f678       __acrt_initialize_lowio    0000000180060678 f   libucrt:ioinit.obj
 0001:0005f6b4       __acrt_uninitialize_lowio  00000001800606b4 f   libucrt:ioinit.obj
 0001:0005f6f4       __pctype_func              00000001800606f4 f   libucrt:ctype.obj
 0001:0005f724       _isleadbyte_l              0000000180060724 f i libucrt:_wctype.obj
 0001:0005f764       _isctype_l                 0000000180060764 f   libucrt:isctype.obj
 0001:0005fbd0       __acrt_LCMapStringA        0000000180060bd0 f   libucrt:lcmapstringa.obj
 0001:0005fc68       isdigit                    0000000180060c68 f i libucrt:_ctype.obj
 0001:0005fcdc       isspace                    0000000180060cdc f i libucrt:_ctype.obj
 0001:0005fd50       _mbtowc_l                  0000000180060d50 f   libucrt:mbtowc.obj
 0001:0005fe98       mbtowc                     0000000180060e98 f   libucrt:mbtowc.obj
 0001:0005fea0       _wctomb_s_l                0000000180060ea0 f   libucrt:wctomb.obj
 0001:00060024       wctomb_s                   0000000180061024 f   libucrt:wctomb.obj
 0001:00060038       strnlen                    0000000180061038 f   libucrt:strnlen.obj
 0001:00060194       wcsnlen                    0000000180061194 f   libucrt:strnlen.obj
 0001:00060384       ?__acrt_fp_classify@@YA?AW4__acrt_fp_class@@AEBN@Z 0000000180061384 f i libucrt:cvt.obj
 0001:00060dbc       __acrt_fp_format           0000000180061dbc f   libucrt:cvt.obj
 0001:00061000       _fileno                    0000000180062000 f   libucrt:fileno.obj
 0001:00061028       _fputc_nolock              0000000180062028 f   libucrt:fputc.obj
 0001:00061040       _get_printf_count_output   0000000180062040 f   libucrt:printf_count_output.obj
 0001:00061058       __acrt_stdio_begin_temporary_buffering_nolock 0000000180062058 f   libucrt:_sftbuf.obj
 0001:00061128       __acrt_stdio_end_temporary_buffering_nolock 0000000180062128 f   libucrt:_sftbuf.obj
 0001:00061304       __acrt_FlsAlloc            0000000180062304 f   libucrt:winapi_thunks.obj
 0001:0006135c       __acrt_FlsFree             000000018006235c f   libucrt:winapi_thunks.obj
 0001:000613b4       __acrt_FlsGetValue         00000001800623b4 f   libucrt:winapi_thunks.obj
 0001:0006140c       __acrt_FlsSetValue         000000018006240c f   libucrt:winapi_thunks.obj
 0001:00061474       __acrt_InitializeCriticalSectionEx 0000000180062474 f   libucrt:winapi_thunks.obj
 0001:000614ec       __acrt_LCMapStringEx       00000001800624ec f   libucrt:winapi_thunks.obj
 0001:000615dc       __acrt_LocaleNameToLCID    00000001800625dc f   libucrt:winapi_thunks.obj
 0001:00061644       __acrt_initialize_winapi_thunks 0000000180062644 f   libucrt:winapi_thunks.obj
 0001:0006167c       __acrt_is_packaged_app     000000018006267c f   libucrt:winapi_thunks.obj
 0001:00061704       __acrt_uninitialize_winapi_thunks 0000000180062704 f   libucrt:winapi_thunks.obj
 0001:00061748       _fcloseall                 0000000180062748 f   libucrt:closeall.obj
 0001:000617fc       __acrt_stdio_free_buffer_nolock 00000001800627fc f   libucrt:_freebuf.obj
 0001:0006183c       __acrt_initialize_locks    000000018006283c f   libucrt:locks.obj
 0001:00061884       __acrt_lock                0000000180062884 f   libucrt:locks.obj
 0001:000618a0       __acrt_uninitialize_locks  00000001800628a0 f   libucrt:locks.obj
 0001:000618d8       __acrt_unlock              00000001800628d8 f   libucrt:locks.obj
 0001:000618f4       ??$?RV<lambda_b521505b218e5242e90febf6bfebc422>@@AEAV<lambda_6978c1fb23f02e42e1d9e99668cc68aa>@@V<lambda_314360699dd331753a4119843814e9a7>@@@?$__crt_seh_guarded_call@H@@QEAAH$$QEAV<lambda_b521505b218e5242e90febf6bfebc422>@@AEAV<lambda_6978c1fb23f02e42e1d9e99668cc68aa>@@$$QEAV<lambda_314360699dd331753a4119843814e9a7>@@@Z 00000001800628f4 f i libucrt:commit.obj
 0001:00061980       _commit                    0000000180062980 f   libucrt:commit.obj
 0001:00061fb4       _write                     0000000180062fb4 f   libucrt:write.obj
 0001:000620a0       _write_nolock              00000001800630a0 f   libucrt:write.obj
 0001:00062488       __acrt_stdio_flush_and_write_narrow_nolock 0000000180063488 f   libucrt:_flsbuf.obj
 0001:00062570       fegetround                 0000000180063570 f   libucrt:fegetround.obj
 0001:00062584       _realloc_base              0000000180063584 f   libucrt:realloc_base.obj
 0001:00062608       __acrt_lowio_create_handle_array 0000000180063608 f   libucrt:osfinfo.obj
 0001:000626a0       __acrt_lowio_destroy_handle_array 00000001800636a0 f   libucrt:osfinfo.obj
 0001:000626f0       __acrt_lowio_ensure_fh_exists 00000001800636f0 f   libucrt:osfinfo.obj
 0001:000627a8       __acrt_lowio_lock_fh       00000001800637a8 f   libucrt:osfinfo.obj
 0001:000627cc       __acrt_lowio_unlock_fh     00000001800637cc f   libucrt:osfinfo.obj
 0001:000627f0       _free_osfhnd               00000001800637f0 f   libucrt:osfinfo.obj
 0001:000628ac       _get_osfhandle             00000001800638ac f   libucrt:osfinfo.obj
 0001:00062924       ??$?RV<lambda_99476a1ad63dd22509b5d3e65b0ffc95>@@AEAV<lambda_ad1ced32f4ac17aa236e5ef05d6b3b7c>@@V<lambda_f7424dd8d45958661754dc4f2697e9c3>@@@?$__crt_seh_guarded_call@X@@QEAAX$$QEAV<lambda_99476a1ad63dd22509b5d3e65b0ffc95>@@AEAV<lambda_ad1ced32f4ac17aa236e5ef05d6b3b7c>@@$$QEAV<lambda_f7424dd8d45958661754dc4f2697e9c3>@@@Z 0000000180063924 f i libucrt:mbctype.obj
 0001:00063020       __acrt_initialize_multibyte 0000000180064020 f   libucrt:mbctype.obj
 0001:00063048       __acrt_update_thread_multibyte_data 0000000180064048 f   libucrt:mbctype.obj
 0001:00063108       _setmbcp_nolock            0000000180064108 f   libucrt:mbctype.obj
 0001:000633b0       __dcrt_get_narrow_environment_from_os 00000001800643b0 f   libucrt:get_environment_from_os.obj
 0001:000634b4       _recalloc                  00000001800644b4 f   libucrt:recalloc.obj
 0001:000634bc       _recalloc_base             00000001800644bc f   libucrt:recalloc.obj
 0001:00063554       __acrt_initialize_heap     0000000180064554 f   libucrt:heap_handle.obj
 0001:00063570       __acrt_uninitialize_heap   0000000180064570 f   libucrt:heap_handle.obj
 0001:0006357c       __acrt_initialize_command_line 000000018006457c f   libucrt:argv_data.obj
 0001:000635a4       __acrt_execute_initializers 00000001800645a4 f   libucrt:shared_initialization.obj
 0001:00063638       __acrt_execute_uninitializers 0000000180064638 f   libucrt:shared_initialization.obj
 0001:00063688       __acrt_has_user_matherr    0000000180064688 f   libucrt:matherr.obj
 0001:000636a8       __acrt_initialize_user_matherr 00000001800646a8 f   libucrt:matherr.obj
 0001:000636b0       __acrt_invoke_user_matherr 00000001800646b0 f   libucrt:matherr.obj
 0001:000636f8       _isatty                    00000001800646f8 f   libucrt:isatty.obj
 0001:00063758       _query_new_mode            0000000180064758 f   libucrt:new_mode.obj
 0001:00063760       __acrt_add_locale_ref      0000000180064760 f   libucrt:locale_refcounting.obj
 0001:000637ec       __acrt_free_locale         00000001800647ec f   libucrt:locale_refcounting.obj
 0001:00063964       __acrt_locale_add_lc_time_reference 0000000180064964 f   libucrt:locale_refcounting.obj
 0001:0006398c       __acrt_locale_free_lc_time_if_unreferenced 000000018006498c f   libucrt:locale_refcounting.obj
 0001:000639c4       __acrt_locale_release_lc_time_reference 00000001800649c4 f   libucrt:locale_refcounting.obj
 0001:000639ec       __acrt_release_locale_ref  00000001800649ec f   libucrt:locale_refcounting.obj
 0001:00063a94       __acrt_update_thread_locale_data 0000000180064a94 f   libucrt:locale_refcounting.obj
 0001:00063b04       _updatetlocinfoEx_nolock   0000000180064b04 f   libucrt:locale_refcounting.obj
 0001:00063b6c       __acrt_locale_free_monetary 0000000180064b6c f   libucrt:initmon.obj
 0001:00063c78       __acrt_locale_free_numeric 0000000180064c78 f   libucrt:initnum.obj
 0001:00063d3c       __acrt_locale_free_time    0000000180064d3c f   libucrt:inittime.obj
 0001:00063e44       __acrt_GetStringTypeA      0000000180064e44 f   libucrt:getstringtypea.obj
 0001:00063ff8       __strncnt                  0000000180064ff8 f   libucrt:strncnt.obj
 0001:00064010       __acrt_fp_strflt_to_string 0000000180065010 f   libucrt:_fptostr.obj
 0001:000640d0       __acrt_fltout              00000001800650d0 f   libucrt:cfout.obj
 0001:00065504       __acrt_DownlevelLocaleNameToLCID 0000000180066504 f   libucrt:lcidtoname_downlevel.obj
 0001:00065538       _fclose_nolock             0000000180066538 f   libucrt:fclose.obj
 0001:000655bc       fclose                     00000001800665bc f   libucrt:fclose.obj
 0001:00065628       _putwch_nolock             0000000180066628 f   libucrt:putwch.obj
 0001:00065684       __acrt_stdio_allocate_buffer_nolock 0000000180066684 f   libucrt:_getbuf.obj
 0001:000656e8       _getfpcontrolword          00000001800666e8 f   libucrt:_fenvutils.obj
 0001:00065700       _getfpstatusword           0000000180066700 f   libucrt:_fenvutils.obj
 0001:00065714       _setfpcontrolword          0000000180066714 f   libucrt:_fenvutils.obj
 0001:00065720       _setfpstatusword           0000000180066720 f   libucrt:_fenvutils.obj
 0001:00065788       _msize                     0000000180066788 f   libucrt:msize.obj
 0001:000657c4       fegetenv                   00000001800667c4 f   libucrt:fegetenv.obj
 0001:000657e4       fesetenv                   00000001800667e4 f   libucrt:fesetenv.obj
 0001:00065830       feholdexcept               0000000180066830 f   libucrt:feholdexcept.obj
 0001:00065880       ceil                       0000000180066880 f   libucrt:ceil.obj
 0001:00065950       log10                      0000000180066950 f   libucrt:log10.obj
 0001:00065efc       ?__acrt_stdio_free_stream@@YAXV__crt_stdio_stream@@@Z 0000000180066efc f   libucrt:stream.obj
 0001:00065f40       __dcrt_lowio_initialize_console_output 0000000180066f40 f   libucrt:initcon.obj
 0001:00065f7c       __dcrt_terminate_console_output 0000000180066f7c f   libucrt:initcon.obj
 0001:00065f9c       _clearfp                   0000000180066f9c f   libucrt:ieee.obj
 0001:00065ff0       _controlfp                 0000000180066ff0 f   libucrt:ieee.obj
 0001:00065ffc       _statusfp                  0000000180066ffc f   libucrt:ieee.obj
 0001:000662f0       _get_fpsr                  00000001800672f0 f   libucrt:fpsr.obj
 0001:00066300       _set_fpsr                  0000000180067300 f   libucrt:fpsr.obj
 0001:0006630a       _fclrf                     000000018006730a f   libucrt:fpsr.obj
 0001:0006631e       _frnd                      000000018006731e f   libucrt:fpsr.obj
 0001:00066464       _handle_error              0000000180067464 f   libucrt:libm_error.obj
 0001:0006658c       _handle_errorf             000000018006758c f   libucrt:libm_error.obj
 0001:000666c0       _handle_nan                00000001800676c0 f   libucrt:libm_error.obj
 0001:000666dc       _handle_nanf               00000001800676dc f   libucrt:libm_error.obj
 0001:000666f0       __acrt_initialize_fma3     00000001800676f0 f   libucrt:fma3_available.obj
 0001:00066760       _log10_special             0000000180067760 f   libucrt:log_special.obj
 0001:00066780       _log10f_special            0000000180067780 f   libucrt:log_special.obj
 0001:000667a0       _log_special               00000001800677a0 f   libucrt:log_special.obj
 0001:000668f4       _raise_exc                 00000001800678f4 f   libucrt:fpexcept.obj
 0001:0006691c       _raise_exc_ex              000000018006791c f   libucrt:fpexcept.obj
 0001:00066c24       _raise_excf                0000000180067c24 f   libucrt:fpexcept.obj
 0001:00066c50       _set_errno_from_matherr    0000000180067c50 f   libucrt:fpexcept.obj
 0001:00066c80       _clrfp                     0000000180067c80 f   libucrt:fpctrl.obj
 0001:00066ca0       _ctrlfp                    0000000180067ca0 f   libucrt:fpctrl.obj
 0001:00066d1c       _set_statfp                0000000180067d1c f   libucrt:fpctrl.obj
 0001:00066d3c       _statfp                    0000000180067d3c f   libucrt:fpctrl.obj
 0001:00066d4e       IsProcessorFeaturePresent  0000000180067d4e f   kernel32:KERNEL32.dll
 0001:00066d54       RtlUnwindEx                0000000180067d54 f   kernel32:KERNEL32.dll
 0001:00066d5a       SystemFunction036          0000000180067d5a f   advapi32:ADVAPI32.dll
 0001:00066d60       ?DloadAcquireSectionWriteAccess@@YAXXZ 0000000180067d60 f i DelayImp:delayhlp.obj
 0001:00066e1c       ?DloadGetSRWLockFunctionPointers@@YAEXZ 0000000180067e1c f i DelayImp:delayhlp.obj
 0001:00066eb8       ?DloadMakePermanentImageCommit@@YAXPEAX_K@Z 0000000180067eb8 f i DelayImp:delayhlp.obj
 0001:00066f50       ?DloadObtainSection@@YAPEAXPEAK0@Z 0000000180067f50 f i DelayImp:delayhlp.obj
 0001:00066fe8       ?DloadProtectSection@@YAXKPEAK@Z 0000000180067fe8 f i DelayImp:delayhlp.obj
 0001:00067078       ?DloadReleaseSectionWriteAccess@@YAXXZ 0000000180068078 f i DelayImp:delayhlp.obj
 0001:0006711c       __delayLoadHelper2         000000018006811c f   DelayImp:delayhlp.obj
 0001:00067424       __GSHandlerCheck           0000000180068424 f   LIBCMT:_gshandler_.obj
 0001:00067444       __GSHandlerCheckCommon     0000000180068444 f   LIBCMT:_gshandler_.obj
 0001:000674a0       _FindPESection             00000001800684a0 f   LIBCMT:pesect.obj
 0001:000674f0       _IsNonwritableInCurrentImage 00000001800684f0 f   LIBCMT:pesect.obj
 0001:00067540       _ValidateImageBase         0000000180068540 f   LIBCMT:pesect.obj
 0001:00067580       __chkstk                   0000000180068580 f   LIBCMT:_chkstk_.obj
 0001:00067580       _alloca_probe              0000000180068580 f   LIBCMT:_chkstk_.obj
 0001:000675f0       memcmp                     00000001800685f0 f   libvcruntime:memcmp.obj
 0001:000676b8       strrchr                    00000001800686b8 f   libvcruntime:strrchr.obj
 0001:00067800       __vdecl_cos2               0000000180068800 f   LIBCMT:_svml_dcos2_dispatch_.obj
 0001:00067810       __vdecl_log2               0000000180068810 f   LIBCMT:_svml_dlog2_dispatch_.obj
 0001:00067820       __vdecl_pow2               0000000180068820 f   LIBCMT:_svml_dpow2_dispatch_.obj
 0001:00067d30       __sse2_cos2                0000000180068d30 f   LIBCMT:_svml_dcos2_sse2_.obj
 0001:000681d0       __sse2_log2                00000001800691d0 f   LIBCMT:_svml_dlog2_sse2_.obj
 0001:00068600       __sse2_pow2                0000000180069600 f   LIBCMT:_svml_dpow2_sse2_.obj
 0001:00069910       atan                       000000018006a910 f   libucrt:atan.obj
 0001:00069b30       cos                        000000018006ab30 f   libucrt:cos.obj
 0001:0006a0b0       exp                        000000018006b0b0 f   libucrt:exp.obj
 0001:0006a4a8       floor                      000000018006b4a8 f   libucrt:floor.obj
 0001:0006a560       log                        000000018006b560 f   libucrt:log.obj
 0001:0006aa90       log10f                     000000018006ba90 f   libucrt:log10f.obj
 0001:0006af70       pow                        000000018006bf70 f   libucrt:pow.obj
 0001:0006c610       powf                       000000018006d610 f   libucrt:powf.obj
 0001:0006d4e0       sin                        000000018006e4e0 f   libucrt:sin.obj
 0001:0006da4c       sqrt                       000000018006ea4c f   libucrt:sqrt.obj
 0001:0006db20       tan                        000000018006eb20 f   libucrt:tan.obj
 0001:0006e2c0       __remainder_piby2_forAsm   000000018006f2c0 f   libucrt:remainder_piby2_forasm.obj
 0001:0006e4d0       __remainder_piby2_cw_forAsm 000000018006f4d0 f   libucrt:remainder_piby2_forasm.obj
 0001:0006e610       __remainder_piby2_fma3     000000018006f610 f   libucrt:remainder_piby2_forfma3.obj
 0001:0006e800       __remainder_piby2_fma3_bdl 000000018006f800 f   libucrt:remainder_piby2_forfma3.obj
 0001:0006e878       _cos_special               000000018006f878 f   libucrt:sincos_special.obj
 0001:0006e88c       _sin_special               000000018006f88c f   libucrt:sincos_special.obj
 0001:0006e944       _tan_special               000000018006f944 f   libucrt:sincos_special.obj
 0001:0006e960       _exp_special               000000018006f960 f   libucrt:exp_special.obj
 0001:0006ea00       _pow_special               000000018006fa00 f   libucrt:pow_special.obj
 0001:0006eb24       _powf_special              000000018006fb24 f   libucrt:pow_special.obj
 0001:0006ecc0       _guard_dispatch_icall_nop  000000018006fcc0 f   LIBCMT:_guard_dispatch_.obj
 0002:00000000       __imp_SystemFunction036    0000000180070000     advapi32:ADVAPI32.dll
 0002:00000008       \177ADVAPI32_NULL_THUNK_DATA 0000000180070008     advapi32:ADVAPI32.dll
 0002:00000010       __imp_RtlCaptureContext    0000000180070010     kernel32:KERNEL32.dll
 0002:00000018       __imp_RtlLookupFunctionEntry 0000000180070018     kernel32:KERNEL32.dll
 0002:00000020       __imp_RtlVirtualUnwind     0000000180070020     kernel32:KERNEL32.dll
 0002:00000028       __imp_UnhandledExceptionFilter 0000000180070028     kernel32:KERNEL32.dll
 0002:00000030       __imp_SetUnhandledExceptionFilter 0000000180070030     kernel32:KERNEL32.dll
 0002:00000038       __imp_GetCurrentProcess    0000000180070038     kernel32:KERNEL32.dll
 0002:00000040       __imp_TerminateProcess     0000000180070040     kernel32:KERNEL32.dll
 0002:00000048       __imp_IsProcessorFeaturePresent 0000000180070048     kernel32:KERNEL32.dll
 0002:00000050       __imp_QueryPerformanceCounter 0000000180070050     kernel32:KERNEL32.dll
 0002:00000058       __imp_GetCurrentProcessId  0000000180070058     kernel32:KERNEL32.dll
 0002:00000060       __imp_GetCurrentThreadId   0000000180070060     kernel32:KERNEL32.dll
 0002:00000068       __imp_GetSystemTimeAsFileTime 0000000180070068     kernel32:KERNEL32.dll
 0002:00000070       __imp_InitializeSListHead  0000000180070070     kernel32:KERNEL32.dll
 0002:00000078       __imp_IsDebuggerPresent    0000000180070078     kernel32:KERNEL32.dll
 0002:00000080       __imp_GetStartupInfoW      0000000180070080     kernel32:KERNEL32.dll
 0002:00000088       __imp_GetModuleHandleW     0000000180070088     kernel32:KERNEL32.dll
 0002:00000090       __imp_GetLastError         0000000180070090     kernel32:KERNEL32.dll
 0002:00000098       __imp_GetModuleFileNameW   0000000180070098     kernel32:KERNEL32.dll
 0002:000000a0       __imp_RtlUnwindEx          00000001800700a0     kernel32:KERNEL32.dll
 0002:000000a8       __imp_RtlPcToFileHeader    00000001800700a8     kernel32:KERNEL32.dll
 0002:000000b0       __imp_RaiseException       00000001800700b0     kernel32:KERNEL32.dll
 0002:000000b8       __imp_InterlockedFlushSList 00000001800700b8     kernel32:KERNEL32.dll
 0002:000000c0       __imp_InitializeCriticalSectionAndSpinCount 00000001800700c0     kernel32:KERNEL32.dll
 0002:000000c8       __imp_TlsAlloc             00000001800700c8     kernel32:KERNEL32.dll
 0002:000000d0       __imp_TlsGetValue          00000001800700d0     kernel32:KERNEL32.dll
 0002:000000d8       __imp_TlsSetValue          00000001800700d8     kernel32:KERNEL32.dll
 0002:000000e0       __imp_TlsFree              00000001800700e0     kernel32:KERNEL32.dll
 0002:000000e8       __imp_FreeLibrary          00000001800700e8     kernel32:KERNEL32.dll
 0002:000000f0       __imp_GetProcAddress       00000001800700f0     kernel32:KERNEL32.dll
 0002:000000f8       __imp_LoadLibraryExW       00000001800700f8     kernel32:KERNEL32.dll
 0002:00000100       __imp_SetLastError         0000000180070100     kernel32:KERNEL32.dll
 0002:00000108       __imp_EnterCriticalSection 0000000180070108     kernel32:KERNEL32.dll
 0002:00000110       __imp_LeaveCriticalSection 0000000180070110     kernel32:KERNEL32.dll
 0002:00000118       __imp_DeleteCriticalSection 0000000180070118     kernel32:KERNEL32.dll
 0002:00000120       __imp_GetStdHandle         0000000180070120     kernel32:KERNEL32.dll
 0002:00000128       __imp_GetFileType          0000000180070128     kernel32:KERNEL32.dll
 0002:00000130       __imp_GetModuleHandleExW   0000000180070130     kernel32:KERNEL32.dll
 0002:00000138       __imp_WriteConsoleW        0000000180070138     kernel32:KERNEL32.dll
 0002:00000140       __imp_ReadFile             0000000180070140     kernel32:KERNEL32.dll
 0002:00000148       __imp_CloseHandle          0000000180070148     kernel32:KERNEL32.dll
 0002:00000150       __imp_CreateFileW          0000000180070150     kernel32:KERNEL32.dll
 0002:00000158       __imp_MultiByteToWideChar  0000000180070158     kernel32:KERNEL32.dll
 0002:00000160       __imp_WideCharToMultiByte  0000000180070160     kernel32:KERNEL32.dll
 0002:00000168       __imp_GetConsoleMode       0000000180070168     kernel32:KERNEL32.dll
 0002:00000170       __imp_ReadConsoleW         0000000180070170     kernel32:KERNEL32.dll
 0002:00000178       __imp_SetFilePointerEx     0000000180070178     kernel32:KERNEL32.dll
 0002:00000180       __imp_HeapFree             0000000180070180     kernel32:KERNEL32.dll
 0002:00000188       __imp_HeapAlloc            0000000180070188     kernel32:KERNEL32.dll
 0002:00000190       __imp_WriteFile            0000000180070190     kernel32:KERNEL32.dll
 0002:00000198       __imp_GetACP               0000000180070198     kernel32:KERNEL32.dll
 0002:000001a0       __imp_GetStringTypeW       00000001800701a0     kernel32:KERNEL32.dll
 0002:000001a8       __imp_LCMapStringW         00000001800701a8     kernel32:KERNEL32.dll
 0002:000001b0       __imp_FlushFileBuffers     00000001800701b0     kernel32:KERNEL32.dll
 0002:000001b8       __imp_GetConsoleCP         00000001800701b8     kernel32:KERNEL32.dll
 0002:000001c0       __imp_HeapReAlloc          00000001800701c0     kernel32:KERNEL32.dll
 0002:000001c8       __imp_SetStdHandle         00000001800701c8     kernel32:KERNEL32.dll
 0002:000001d0       __imp_IsValidCodePage      00000001800701d0     kernel32:KERNEL32.dll
 0002:000001d8       __imp_GetOEMCP             00000001800701d8     kernel32:KERNEL32.dll
 0002:000001e0       __imp_GetCPInfo            00000001800701e0     kernel32:KERNEL32.dll
 0002:000001e8       __imp_GetEnvironmentStringsW 00000001800701e8     kernel32:KERNEL32.dll
 0002:000001f0       __imp_FreeEnvironmentStringsW 00000001800701f0     kernel32:KERNEL32.dll
 0002:000001f8       __imp_GetProcessHeap       00000001800701f8     kernel32:KERNEL32.dll
 0002:00000200       __imp_GetCommandLineA      0000000180070200     kernel32:KERNEL32.dll
 0002:00000208       __imp_GetCommandLineW      0000000180070208     kernel32:KERNEL32.dll
 0002:00000210       __imp_HeapSize             0000000180070210     kernel32:KERNEL32.dll
 0002:00000218       __imp_ExitProcess          0000000180070218     kernel32:KERNEL32.dll
 0002:00000220       __imp_GetModuleHandleA     0000000180070220     kernel32:KERNEL32.dll
 0002:00000228       __imp_GetSystemInfo        0000000180070228     kernel32:KERNEL32.dll
 0002:00000230       __imp_VirtualProtect       0000000180070230     kernel32:KERNEL32.dll
 0002:00000238       __imp_VirtualQuery         0000000180070238     kernel32:KERNEL32.dll
 0002:00000240       __imp_LoadLibraryExA       0000000180070240     kernel32:KERNEL32.dll
 0002:00000248       \177KERNEL32_NULL_THUNK_DATA 0000000180070248     kernel32:KERNEL32.dll
 0002:00000250       __guard_check_icall_fptr   0000000180070250     LIBCMT:guard_support.obj
 0002:00000258       __guard_dispatch_icall_fptr 0000000180070258     LIBCMT:guard_support.obj
 0002:00000260       __xc_a                     0000000180070260     LIBCMT:initializers.obj
 0002:00000268       _register_bindings_        0000000180070268     bindings.obj
 0002:00000270       __xc_z                     0000000180070270     LIBCMT:initializers.obj
 0002:00000278       __xi_a                     0000000180070278     LIBCMT:initializers.obj
 0002:00000280       __acrt_stdio_initializer   0000000180070280     libucrt:stdio_initializer.obj
 0002:00000288       __acrt_multibyte_initializer 0000000180070288     libucrt:multibyte_initializer.obj
 0002:00000290       __acrt_tran_fma3_initializer 0000000180070290     libucrt:fma3_initializer.obj
 0002:00000298       __xi_z                     0000000180070298     LIBCMT:initializers.obj
 0002:000002a0       __xp_a                     00000001800702a0     LIBCMT:initializers.obj
 0002:000002a8       __acrt_locale_terminator   00000001800702a8     libucrt:locale_initializer.obj
 0002:000002b0       __dcrt_console_output_terminator 00000001800702b0     libucrt:console_output_initializer.obj
 0002:000002b8       __acrt_stdio_terminator    00000001800702b8     libucrt:stdio_initializer.obj
 0002:000002c0       __xp_z                     00000001800702c0     LIBCMT:initializers.obj
 0002:000002c8       __xt_a                     00000001800702c8     LIBCMT:initializers.obj
 0002:000002d0       __xt_z                     00000001800702d0     LIBCMT:initializers.obj
 0002:000002e0       __sz_node_exe              00000001800702e0     node:node.exe
 0002:000002f0       _pDefaultRawDllMain        00000001800702f0     LIBCMT:dll_dllmain.obj
 0002:000002f0       _pRawDllMain               00000001800702f0     LIBCMT:dll_dllmain.obj
 0002:00000310       ??_7exception@std@@6B@     0000000180070310     LIBCMT:throw_bad_alloc.obj
 0002:00000320       ??_C@_0BC@EOODALEL@Unknown?5exception?$AA@ 0000000180070320     LIBCMT:throw_bad_alloc.obj
 0002:00000340       ??_7bad_alloc@std@@6B@     0000000180070340     LIBCMT:throw_bad_alloc.obj
 0002:00000350       ??_C@_0P@GHFPNOJB@bad?5allocation?$AA@ 0000000180070350     LIBCMT:throw_bad_alloc.obj
 0002:00000368       ??_7bad_array_new_length@std@@6B@ 0000000180070368     LIBCMT:throw_bad_alloc.obj
 0002:00000378       ??_C@_0BF@KINCDENJ@bad?5array?5new?5length?$AA@ 0000000180070378     LIBCMT:throw_bad_alloc.obj
 0002:00000398       ??_7type_info@@6B@         0000000180070398     LIBCMT:std_type_info_static.obj
 0002:000003a0       _Microsoft_CRTProvider     00000001800703a0     libvcruntime:telemetry.obj
 0002:000003a8       ??_C@_11LOCGONAA@?$AA?$AA@ 00000001800703a8     libvcruntime:telemetry.obj
 0002:000003b0       ??_C@_0O@JEOPJOMI@Main?5Invoked?4?$AA@ 00000001800703b0     libvcruntime:telemetry.obj
 0002:000003c0       ??_C@_0P@NEAEIBDO@Main?5Returned?4?$AA@ 00000001800703c0     libvcruntime:telemetry.obj
 0002:00000430       ??_C@_1BC@DNHGCMLG@?$AAa?$AAd?$AAv?$AAa?$AAp?$AAi?$AA3?$AA2?$AA?$AA@ 0000000180070430     libvcruntime:winapi_downlevel.obj
 0002:00000448       ??_C@_1DM@KHCHBNEB@?$AAa?$AAp?$AAi?$AA?9?$AAm?$AAs?$AA?9?$AAw?$AAi?$AAn?$AA?9?$AAc?$AAo?$AAr?$AAe?$AA?9?$AAf?$AAi?$AAb?$AAe?$AAr?$AAs?$AA?9?$AAl?$AA1?$AA?9?$AA1?$AA?9?$AA1?$AA?$AA@ 0000000180070448     libvcruntime:winapi_downlevel.obj
 0002:00000488       ??_C@_1DK@LPPGFMPP@?$AAa?$AAp?$AAi?$AA?9?$AAm?$AAs?$AA?9?$AAw?$AAi?$AAn?$AA?9?$AAc?$AAo?$AAr?$AAe?$AA?9?$AAs?$AAy?$AAn?$AAc?$AAh?$AA?9?$AAl?$AA1?$AA?9?$AA2?$AA?9?$AA0?$AA?$AA@ 0000000180070488     libvcruntime:winapi_downlevel.obj
 0002:000004c8       ??_C@_1BC@GDMECMAK@?$AAk?$AAe?$AAr?$AAn?$AAe?$AAl?$AA3?$AA2?$AA?$AA@ 00000001800704c8     libvcruntime:winapi_downlevel.obj
 0002:000004e0       ??_C@_0O@BAMBGLIE@EventRegister?$AA@ 00000001800704e0     libvcruntime:winapi_downlevel.obj
 0002:000004f8       ??_C@_0BE@BJEEGHGK@EventSetInformation?$AA@ 00000001800704f8     libvcruntime:winapi_downlevel.obj
 0002:00000510       ??_C@_0BA@FAKLIPIC@EventUnregister?$AA@ 0000000180070510     libvcruntime:winapi_downlevel.obj
 0002:00000528       ??_C@_0BD@PKLHJPHD@EventWriteTransfer?$AA@ 0000000180070528     libvcruntime:winapi_downlevel.obj
 0002:00000548       ??_C@_08KNHFBNJ@FlsAlloc?$AA@ 0000000180070548     libvcruntime:winapi_downlevel.obj
 0002:00000560       ??_C@_07PEJMOBNF@FlsFree?$AA@ 0000000180070560     libvcruntime:winapi_downlevel.obj
 0002:00000570       ??_C@_0M@GDNOONDI@FlsGetValue?$AA@ 0000000180070570     libvcruntime:winapi_downlevel.obj
 0002:00000588       ??_C@_0M@JCPCPOEF@FlsSetValue?$AA@ 0000000180070588     libvcruntime:winapi_downlevel.obj
 0002:000005a0       ??_C@_0BM@HCFOFFN@InitializeCriticalSectionEx?$AA@ 00000001800705a0     libvcruntime:winapi_downlevel.obj
 0002:000005bc       ??_C@_01JOAMLHOP@?9?$AA@   00000001800705bc     libvcruntime:undname.obj
 0002:000005c0       ??_C@_01MIFGBAGJ@?$CL?$AA@ 00000001800705c0     libvcruntime:undname.obj
 0002:000005c4       ??_C@_01HNPIGOCE@?$CG?$AA@ 00000001800705c4     libvcruntime:undname.obj
 0002:000005c8       ??_C@_03MNHNFDLC@?9?$DO?$CK?$AA@ 00000001800705c8     libvcruntime:undname.obj
 0002:000005cc       ??_C@_01KMDKNFGN@?1?$AA@   00000001800705cc     libvcruntime:undname.obj
 0002:000005d0       ??_C@_01FGNFDNOH@?$CF?$AA@ 00000001800705d0     libvcruntime:undname.obj
 0002:000005d4       ??_C@_01MNNFJEPP@?$DM?$AA@ 00000001800705d4     libvcruntime:undname.obj
 0002:000005d8       ??_C@_02EHCHHCKH@?$DM?$DN?$AA@ 00000001800705d8     libvcruntime:undname.obj
 0002:000005dc       ??_C@_01PPODPGHN@?$DO?$AA@ 00000001800705dc     libvcruntime:undname.obj
 0002:000005e0       ??_C@_02EEKDKGMJ@?$DO?$DN?$AA@ 00000001800705e0     libvcruntime:undname.obj
 0002:000005e4       ??_C@_01IHBHIGKO@?0?$AA@   00000001800705e4     libvcruntime:undname.obj
 0002:000005e8       ??_C@_02HCKGKOFO@?$CI?$CJ?$AA@ 00000001800705e8     libvcruntime:undname.obj
 0002:000005ec       ??_C@_01PJKLJHI@?$HO?$AA@  00000001800705ec     libvcruntime:undname.obj
 0002:000005f0       ??_C@_01JKBOJNNK@?$FO?$AA@ 00000001800705f0     libvcruntime:undname.obj
 0002:000005f4       ??_C@_01DNKMNLPK@?$HM?$AA@ 00000001800705f4     libvcruntime:undname.obj
 0002:000005f8       ??_C@_02PPKAJPJL@?$CG?$CG?$AA@ 00000001800705f8     libvcruntime:undname.obj
 0002:000005fc       ??_C@_02NONPIBCD@?$HM?$HM?$AA@ 00000001800705fc     libvcruntime:undname.obj
 0002:00000600       ??_C@_02FPIMKNGF@?$CK?$DN?$AA@ 0000000180070600     libvcruntime:undname.obj
 0002:00000604       ??_C@_02FOEOMHFC@?$CL?$DN?$AA@ 0000000180070604     libvcruntime:undname.obj
 0002:00000608       ??_C@_02FKMDLLOA@?9?$DN?$AA@ 0000000180070608     libvcruntime:undname.obj
 0002:0000060c       ??_C@_02FJEHGPIO@?1?$DN?$AA@ 000000018007060c     libvcruntime:undname.obj
 0002:00000610       ??_C@_02FENAOKFI@?$CF?$DN?$AA@ 0000000180070610     libvcruntime:undname.obj
 0002:00000614       ??_C@_03IKFCCPFF@?$DO?$DO?$DN?$AA@ 0000000180070614     libvcruntime:undname.obj
 0002:00000618       ??_C@_03CDNPDDLA@?$DM?$DM?$DN?$AA@ 0000000180070618     libvcruntime:undname.obj
 0002:0000061c       ??_C@_02FGJGFEAB@?$CG?$DN?$AA@ 000000018007061c     libvcruntime:undname.obj
 0002:00000620       ??_C@_02DHLNPPGH@?$HM?$DN?$AA@ 0000000180070620     libvcruntime:undname.obj
 0002:00000624       ??_C@_02MHEGNOJ@?$FO?$DN?$AA@ 0000000180070624     libvcruntime:undname.obj
 0002:00000628       ??_C@_09IFPLHPGF@?$GAvftable?8?$AA@ 0000000180070628     libvcruntime:undname.obj
 0002:00000638       ??_C@_09BLBHBJP@?$GAvbtable?8?$AA@ 0000000180070638     libvcruntime:undname.obj
 0002:00000648       ??_C@_07FEEIOKP@?$GAvcall?8?$AA@ 0000000180070648     libvcruntime:undname.obj
 0002:00000650       ??_C@_08LLFFHHDJ@?$GAtypeof?8?$AA@ 0000000180070650     libvcruntime:undname.obj
 0002:00000660       ??_C@_0BF@KDPPACIK@?$GAlocal?5static?5guard?8?$AA@ 0000000180070660     libvcruntime:undname.obj
 0002:00000678       ??_C@_08OBABFOLI@?$GAstring?8?$AA@ 0000000180070678     libvcruntime:undname.obj
 0002:00000688       ??_C@_0BD@JDLKDPAB@?$GAvbase?5destructor?8?$AA@ 0000000180070688     libvcruntime:undname.obj
 0002:000006a0       ??_C@_0BN@DEGPLNFK@?$GAvector?5deleting?5destructor?8?$AA@ 00000001800706a0     libvcruntime:undname.obj
 0002:000006c0       ??_C@_0BO@OBMKPJIG@?$GAdefault?5constructor?5closure?8?$AA@ 00000001800706c0     libvcruntime:undname.obj
 0002:000006e0       ??_C@_0BN@IMDCHIKM@?$GAscalar?5deleting?5destructor?8?$AA@ 00000001800706e0     libvcruntime:undname.obj
 0002:00000700       ??_C@_0BO@PFGOCPJJ@?$GAvector?5constructor?5iterator?8?$AA@ 0000000180070700     libvcruntime:undname.obj
 0002:00000720       ??_C@_0BN@LFPFMEDL@?$GAvector?5destructor?5iterator?8?$AA@ 0000000180070720     libvcruntime:undname.obj
 0002:00000740       ??_C@_0CE@IKBNEHA@?$GAvector?5vbase?5constructor?5iterat@ 0000000180070740     libvcruntime:undname.obj
 0002:00000768       ??_C@_0BL@NILFHHPC@?$GAvirtual?5displacement?5map?8?$AA@ 0000000180070768     libvcruntime:undname.obj
 0002:00000788       ??_C@_0CB@JONCMFFK@?$GAeh?5vector?5constructor?5iterator?8@ 0000000180070788     libvcruntime:undname.obj
 0002:000007b0       ??_C@_0CA@GCEOPDGL@?$GAeh?5vector?5destructor?5iterator?8?$AA@ 00000001800707b0     libvcruntime:undname.obj
 0002:000007d0       ??_C@_0CH@OOJPLCPH@?$GAeh?5vector?5vbase?5constructor?5ite@ 00000001800707d0     libvcruntime:undname.obj
 0002:000007f8       ??_C@_0BL@LLKPOHJI@?$GAcopy?5constructor?5closure?8?$AA@ 00000001800707f8     libvcruntime:undname.obj
 0002:00000818       ??_C@_0BA@KBCDOMBN@?$GAudt?5returning?8?$AA@ 0000000180070818     libvcruntime:undname.obj
 0002:00000828       ??_C@_03KLGMFNMG@?$GAEH?$AA@ 0000000180070828     libvcruntime:undname.obj
 0002:0000082c       ??_C@_05KHLCHHI@?$GARTTI?$AA@ 000000018007082c     libvcruntime:undname.obj
 0002:00000838       ??_C@_0BA@KKLDJDLB@?$GAlocal?5vftable?8?$AA@ 0000000180070838     libvcruntime:undname.obj
 0002:00000848       ??_C@_0CE@IIHCMGGL@?$GAlocal?5vftable?5constructor?5closu@ 0000000180070848     libvcruntime:undname.obj
 0002:0000086c       ??_C@_06FHBGPFGH@?5new?$FL?$FN?$AA@ 000000018007086c     libvcruntime:undname.obj
 0002:00000878       ??_C@_09LBNFPBCA@?5delete?$FL?$FN?$AA@ 0000000180070878     libvcruntime:undname.obj
 0002:00000888       ??_C@_0P@HJKNJFNN@?$GAomni?5callsig?8?$AA@ 0000000180070888     libvcruntime:undname.obj
 0002:00000898       ??_C@_0BL@CNOONJFP@?$GAplacement?5delete?5closure?8?$AA@ 0000000180070898     libvcruntime:undname.obj
 0002:000008b8       ??_C@_0BN@CKNJLHMB@?$GAplacement?5delete?$FL?$FN?5closure?8?$AA@ 00000001800708b8     libvcruntime:undname.obj
 0002:000008d8       ??_C@_0CG@CFDHKGGD@?$GAmanaged?5vector?5constructor?5iter@ 00000001800708d8     libvcruntime:undname.obj
 0002:00000900       ??_C@_0CF@IMGKMJNO@?$GAmanaged?5vector?5destructor?5itera@ 0000000180070900     libvcruntime:undname.obj
 0002:00000928       ??_C@_0CG@HLDDJMAG@?$GAeh?5vector?5copy?5constructor?5iter@ 0000000180070928     libvcruntime:undname.obj
 0002:00000950       ??_C@_0CM@FCBBDIGB@?$GAeh?5vector?5vbase?5copy?5constructo@ 0000000180070950     libvcruntime:undname.obj
 0002:00000980       ??_C@_0BL@CLIPGLGB@?$GAdynamic?5initializer?5for?5?8?$AA@ 0000000180070980     libvcruntime:undname.obj
 0002:000009a0       ??_C@_0CB@PDBIFEP@?$GAdynamic?5atexit?5destructor?5for?5?8@ 00000001800709a0     libvcruntime:undname.obj
 0002:000009c8       ??_C@_0CD@CGAJBKEJ@?$GAvector?5copy?5constructor?5iterato@ 00000001800709c8     libvcruntime:undname.obj
 0002:000009f0       ??_C@_0CJ@GJELGAMM@?$GAvector?5vbase?5copy?5constructor?5i@ 00000001800709f0     libvcruntime:undname.obj
 0002:00000a20       ??_C@_0CL@FGIJHLCE@?$GAmanaged?5vector?5copy?5constructor@ 0000000180070a20     libvcruntime:undname.obj
 0002:00000a50       ??_C@_0BM@PMGGMLDN@?$GAlocal?5static?5thread?5guard?8?$AA@ 0000000180070a50     libvcruntime:undname.obj
 0002:00000a70       ??_C@_0N@BDNMDMOL@operator?5?$CC?$CC?5?$AA@ 0000000180070a70     libvcruntime:undname.obj
 0002:00000da8       ??_C@_0BC@DAFEJGAK@?5Type?5Descriptor?8?$AA@ 0000000180070da8     libvcruntime:undname.obj
 0002:00000dc0       ??_C@_0BM@LDKODKLH@?5Base?5Class?5Descriptor?5at?5?$CI?$AA@ 0000000180070dc0     libvcruntime:undname.obj
 0002:00000de0       ??_C@_0BD@LGICGFMM@?5Base?5Class?5Array?8?$AA@ 0000000180070de0     libvcruntime:undname.obj
 0002:00000df8       ??_C@_0BN@MECKDCOJ@?5Class?5Hierarchy?5Descriptor?8?$AA@ 0000000180070df8     libvcruntime:undname.obj
 0002:00000e18       ??_C@_0BK@CFCOFLF@?5Complete?5Object?5Locator?8?$AA@ 0000000180070e18     libvcruntime:undname.obj
 0002:00000e38       ??_C@_08EHJDFFNH@__based?$CI?$AA@ 0000000180070e38     libvcruntime:undname.obj
 0002:00000e48       ??_C@_07KOLFKCDI@__cdecl?$AA@ 0000000180070e48     libvcruntime:undname.obj
 0002:00000e50       ??_C@_08GHMPAG@__pascal?$AA@ 0000000180070e50     libvcruntime:undname.obj
 0002:00000e60       ??_C@_09IFJBGAPI@__stdcall?$AA@ 0000000180070e60     libvcruntime:undname.obj
 0002:00000e70       ??_C@_0L@NPHFGOKO@__thiscall?$AA@ 0000000180070e70     libvcruntime:undname.obj
 0002:00000e80       ??_C@_0L@JMKHOMEK@__fastcall?$AA@ 0000000180070e80     libvcruntime:undname.obj
 0002:00000e90       ??_C@_0N@BCKKPABJ@__vectorcall?$AA@ 0000000180070e90     libvcruntime:undname.obj
 0002:00000ea0       ??_C@_09HIJEGCPM@__clrcall?$AA@ 0000000180070ea0     libvcruntime:undname.obj
 0002:00000eac       ??_C@_06GHPCKEAG@__eabi?$AA@ 0000000180070eac     libvcruntime:undname.obj
 0002:00000eb8       ??_C@_07JOMMBBKO@__ptr64?$AA@ 0000000180070eb8     libvcruntime:undname.obj
 0002:00000ec0       ??_C@_0L@PILCLIHE@__restrict?$AA@ 0000000180070ec0     libvcruntime:undname.obj
 0002:00000ed0       ??_C@_0M@GFIIJFMG@__unaligned?$AA@ 0000000180070ed0     libvcruntime:undname.obj
 0002:00000ee0       ??_C@_09DHDLOLLB@restrict?$CI?$AA@ 0000000180070ee0     libvcruntime:undname.obj
 0002:00000eec       ??_C@_04NIHEBCM@?5new?$AA@ 0000000180070eec     libvcruntime:undname.obj
 0002:00000ef8       ??_C@_07FPCDHGMM@?5delete?$AA@ 0000000180070ef8     libvcruntime:undname.obj
 0002:00000f00       ??_C@_01NEMOKFLO@?$DN?$AA@ 0000000180070f00     libvcruntime:undname.obj
 0002:00000f04       ??_C@_02GPIOPFAK@?$DO?$DO?$AA@ 0000000180070f04     libvcruntime:undname.obj
 0002:00000f08       ??_C@_02FODMEDOG@?$DM?$DM?$AA@ 0000000180070f08     libvcruntime:undname.obj
 0002:00000f0c       ??_C@_01DCLJPIOD@?$CB?$AA@ 0000000180070f0c     libvcruntime:undname.obj
 0002:00000f10       ??_C@_02EGOFBIJA@?$DN?$DN?$AA@ 0000000180070f10     libvcruntime:undname.obj
 0002:00000f14       ??_C@_02FDNJECIE@?$CB?$DN?$AA@ 0000000180070f14     libvcruntime:undname.obj
 0002:00000f18       ??_C@_02GPECMEKF@?$FL?$FN?$AA@ 0000000180070f18     libvcruntime:undname.obj
 0002:00000f20       ??_C@_08LHJFAFGD@operator?$AA@ 0000000180070f20     libvcruntime:undname.obj
 0002:00000f2c       ??_C@_02HBOOOICD@?9?$DO?$AA@ 0000000180070f2c     libvcruntime:undname.obj
 0002:00000f30       ??_C@_01NBENCBCI@?$CK?$AA@ 0000000180070f30     libvcruntime:undname.obj
 0002:00000f34       ??_C@_02ECNGHCIF@?$CL?$CL?$AA@ 0000000180070f34     libvcruntime:undname.obj
 0002:00000f38       ??_C@_02BAABKJLB@?9?9?$AA@ 0000000180070f38     libvcruntime:undname.obj
 0002:00000f40       standard_lookup_table      0000000180070f40     libucrt:output.obj
 0002:00000f9c       ??_C@_06OJHGLDPL@?$CInull?$CJ?$AA@ 0000000180070f9c     libucrt:output.obj
 0002:00000fa8       ??_C@_1O@CEDCILHN@?$AA?$CI?$AAn?$AAu?$AAl?$AAl?$AA?$CJ?$AA?$AA@ 0000000180070fa8     libucrt:output.obj
 0002:00000fb8       ??_C@_1BI@BGOHAHKC@?$AAm?$AAs?$AAc?$AAo?$AAr?$AAe?$AAe?$AA?4?$AAd?$AAl?$AAl?$AA?$AA@ 0000000180070fb8     libucrt:exit.obj
 0002:00000fd0       ??_C@_0P@MIGLKIOC@CorExitProcess?$AA@ 0000000180070fd0     libucrt:exit.obj
 0002:00000fe0       ?large_power_data@?1??multiply_by_power_of_ten@__crt_strtox@@YA_NAEAUbig_integer@2@I@Z@4QBIB 0000000180070fe0     libucrt:atof.obj
 0002:000018f0       ?large_power_indices@?1??multiply_by_power_of_ten@__crt_strtox@@YA_NAEAUbig_integer@2@I@Z@4QBUunpack_index@?1??12@YA_N0I@Z@B 00000001800718f0     libucrt:atof.obj
 0002:00001988       ?small_powers_of_ten@?6??multiply_by_power_of_ten@__crt_strtox@@YA_NAEAUbig_integer@2@I@Z@4QBIB 0000000180071988     libucrt:atof.obj
 0002:000019b0       ??_C@_1GE@DPGDJKLM@?$AAm?$AAi?$AAn?$AAk?$AAe?$AAr?$AAn?$AAe?$AAl?$AA?2?$AAc?$AAr?$AAt?$AAs?$AA?2?$AAu?$AAc?$AAr?$AAt?$AA?2?$AAi?$AAn?$AAc?$AA?2?$AAc?$AAo?$AAr?$AAe?$AAc?$AAr?$AAt?$AA_@ 00000001800719b0     libucrt:atof.obj
 0002:00001a20       ??_C@_1FM@FELNCOBF@?$AA_?$AA_?$AAc?$AAr?$AAt?$AA_?$AAs?$AAt?$AAr?$AAt?$AAo?$AAx?$AA?3?$AA?3?$AAf?$AAl?$AAo?$AAa?$AAt?$AAi?$AAn?$AAg?$AA_?$AAp?$AAo?$AAi?$AAn?$AAt?$AA_?$AAv?$AAa?$AAl@ 0000000180071a20     libucrt:atof.obj
 0002:00001a80       ??_C@_1BG@GEMHBGAF@?$AA_?$AAi?$AAs?$AA_?$AAd?$AAo?$AAu?$AAb?$AAl?$AAe?$AA?$AA@ 0000000180071a80     libucrt:atof.obj
 0002:00001aa0       ??_C@_1FK@JOJELFFO@?$AA_?$AA_?$AAc?$AAr?$AAt?$AA_?$AAs?$AAt?$AAr?$AAt?$AAo?$AAx?$AA?3?$AA?3?$AAf?$AAl?$AAo?$AAa?$AAt?$AAi?$AAn?$AAg?$AA_?$AAp?$AAo?$AAi?$AAn?$AAt?$AA_?$AAv?$AAa?$AAl@ 0000000180071aa0     libucrt:atof.obj
 0002:00001b00       ??_C@_1BI@BANMPGJI@?$AA?$CB?$AA_?$AAi?$AAs?$AA_?$AAd?$AAo?$AAu?$AAb?$AAl?$AAe?$AA?$AA@ 0000000180071b00     libucrt:atof.obj
 0002:00001b18       ?inf_uppercase@?2???$parse_floating_point_possible_infinity@DV?$c_string_character_source@D@__crt_strtox@@PEBD@__crt_strtox@@YA?AW4floating_point_parse_result@1@AEADAEAV?$c_string_character_source@D@1@PEBD@Z@4QBDB 0000000180071b18     libucrt:atof.obj
 0002:00001b1c       ?inf_lowercase@?2???$parse_floating_point_possible_infinity@DV?$c_string_character_source@D@__crt_strtox@@PEBD@__crt_strtox@@YA?AW4floating_point_parse_result@1@AEADAEAV?$c_string_character_source@D@1@PEBD@Z@4QBDB 0000000180071b1c     libucrt:atof.obj
 0002:00001b20       ?inity_uppercase@?5???$parse_floating_point_possible_infinity@DV?$c_string_character_source@D@__crt_strtox@@PEBD@__crt_strtox@@YA?AW4floating_point_parse_result@1@AEADAEAV?$c_string_character_source@D@1@PEBD@Z@4QBDB 0000000180071b20     libucrt:atof.obj
 0002:00001b28       ?inity_lowercase@?5???$parse_floating_point_possible_infinity@DV?$c_string_character_source@D@__crt_strtox@@PEBD@__crt_strtox@@YA?AW4floating_point_parse_result@1@AEADAEAV?$c_string_character_source@D@1@PEBD@Z@4QBDB 0000000180071b28     libucrt:atof.obj
 0002:00001b30       ?uppercase@?2???$parse_floating_point_possible_nan@DV?$c_string_character_source@D@__crt_strtox@@PEBD@__crt_strtox@@YA?AW4floating_point_parse_result@1@AEADAEAV?$c_string_character_source@D@1@PEBD@Z@4QBDB 0000000180071b30     libucrt:atof.obj
 0002:00001b34       ?lowercase@?2???$parse_floating_point_possible_nan@DV?$c_string_character_source@D@__crt_strtox@@PEBD@__crt_strtox@@YA?AW4floating_point_parse_result@1@AEADAEAV?$c_string_character_source@D@1@PEBD@Z@4QBDB 0000000180071b34     libucrt:atof.obj
 0002:00001b38       ?uppercase@?1???$parse_floating_point_possible_nan_is_snan@DV?$c_string_character_source@D@__crt_strtox@@@__crt_strtox@@YA_NAEADAEAV?$c_string_character_source@D@1@@Z@4QBDB 0000000180071b38     libucrt:atof.obj
 0002:00001b40       ?lowercase@?1???$parse_floating_point_possible_nan_is_snan@DV?$c_string_character_source@D@__crt_strtox@@@__crt_strtox@@YA_NAEADAEAV?$c_string_character_source@D@1@@Z@4QBDB 0000000180071b40     libucrt:atof.obj
 0002:00001b48       ?uppercase@?1???$parse_floating_point_possible_nan_is_ind@DV?$c_string_character_source@D@__crt_strtox@@@__crt_strtox@@YA_NAEADAEAV?$c_string_character_source@D@1@@Z@4QBDB 0000000180071b48     libucrt:atof.obj
 0002:00001b4c       ?lowercase@?1???$parse_floating_point_possible_nan_is_ind@DV?$c_string_character_source@D@__crt_strtox@@@__crt_strtox@@YA_NAEADAEAV?$c_string_character_source@D@1@@Z@4QBDB 0000000180071b4c     libucrt:atof.obj
 0002:00001cc0       ?constraints@?1??is_length_valid@__crt_stdio_input@@YA_NW4conversion_mode@2@W4length_modifier@2@@Z@4QAY0M@$$CBEA 0000000180071cc0     libucrt:input.obj
 0002:00001d38       ?inf_uppercase@?2???$parse_floating_point_possible_infinity@DV?$input_adapter_character_source@V?$string_input_adapter@D@__crt_stdio_input@@@__crt_strtox@@_K@__crt_strtox@@YA?AW4floating_point_parse_result@1@AEADAEAV?$input_adapter_character_source@V?$string_input_adapter@D@__crt_stdio_input@@@1@_K@Z@4QBDB 0000000180071d38     libucrt:input.obj
 0002:00001d3c       ?inf_lowercase@?2???$parse_floating_point_possible_infinity@DV?$input_adapter_character_source@V?$string_input_adapter@D@__crt_stdio_input@@@__crt_strtox@@_K@__crt_strtox@@YA?AW4floating_point_parse_result@1@AEADAEAV?$input_adapter_character_source@V?$string_input_adapter@D@__crt_stdio_input@@@1@_K@Z@4QBDB 0000000180071d3c     libucrt:input.obj
 0002:00001d40       ?inity_uppercase@?5???$parse_floating_point_possible_infinity@DV?$input_adapter_character_source@V?$string_input_adapter@D@__crt_stdio_input@@@__crt_strtox@@_K@__crt_strtox@@YA?AW4floating_point_parse_result@1@AEADAEAV?$input_adapter_character_source@V?$string_input_adapter@D@__crt_stdio_input@@@1@_K@Z@4QBDB 0000000180071d40     libucrt:input.obj
 0002:00001d48       ?inity_lowercase@?5???$parse_floating_point_possible_infinity@DV?$input_adapter_character_source@V?$string_input_adapter@D@__crt_stdio_input@@@__crt_strtox@@_K@__crt_strtox@@YA?AW4floating_point_parse_result@1@AEADAEAV?$input_adapter_character_source@V?$string_input_adapter@D@__crt_stdio_input@@@1@_K@Z@4QBDB 0000000180071d48     libucrt:input.obj
 0002:00001d50       ?uppercase@?2???$parse_floating_point_possible_nan@DV?$input_adapter_character_source@V?$string_input_adapter@D@__crt_stdio_input@@@__crt_strtox@@_K@__crt_strtox@@YA?AW4floating_point_parse_result@1@AEADAEAV?$input_adapter_character_source@V?$string_input_adapter@D@__crt_stdio_input@@@1@_K@Z@4QBDB 0000000180071d50     libucrt:input.obj
 0002:00001d54       ?lowercase@?2???$parse_floating_point_possible_nan@DV?$input_adapter_character_source@V?$string_input_adapter@D@__crt_stdio_input@@@__crt_strtox@@_K@__crt_strtox@@YA?AW4floating_point_parse_result@1@AEADAEAV?$input_adapter_character_source@V?$string_input_adapter@D@__crt_stdio_input@@@1@_K@Z@4QBDB 0000000180071d54     libucrt:input.obj
 0002:00001d58       ?uppercase@?1???$parse_floating_point_possible_nan_is_snan@DV?$input_adapter_character_source@V?$string_input_adapter@D@__crt_stdio_input@@@__crt_strtox@@@__crt_strtox@@YA_NAEADAEAV?$input_adapter_character_source@V?$string_input_adapter@D@__crt_stdio_input@@@1@@Z@4QBDB 0000000180071d58     libucrt:input.obj
 0002:00001d60       ?lowercase@?1???$parse_floating_point_possible_nan_is_snan@DV?$input_adapter_character_source@V?$string_input_adapter@D@__crt_stdio_input@@@__crt_strtox@@@__crt_strtox@@YA_NAEADAEAV?$input_adapter_character_source@V?$string_input_adapter@D@__crt_stdio_input@@@1@@Z@4QBDB 0000000180071d60     libucrt:input.obj
 0002:00001d68       ?uppercase@?1???$parse_floating_point_possible_nan_is_ind@DV?$input_adapter_character_source@V?$string_input_adapter@D@__crt_stdio_input@@@__crt_strtox@@@__crt_strtox@@YA_NAEADAEAV?$input_adapter_character_source@V?$string_input_adapter@D@__crt_stdio_input@@@1@@Z@4QBDB 0000000180071d68     libucrt:input.obj
 0002:00001d6c       ?lowercase@?1???$parse_floating_point_possible_nan_is_ind@DV?$input_adapter_character_source@V?$string_input_adapter@D@__crt_stdio_input@@@__crt_strtox@@@__crt_strtox@@YA_NAEADAEAV?$input_adapter_character_source@V?$string_input_adapter@D@__crt_stdio_input@@@1@@Z@4QBDB 0000000180071d6c     libucrt:input.obj
 0002:00001d70       __acrt_exception_action_table 0000000180071d70     libucrt:exception_filter.obj
 0002:00001e30       __acrt_signal_action_table_count 0000000180071e30     libucrt:exception_filter.obj
 0002:00001e38       __acrt_signal_action_first_fpe_index 0000000180071e38     libucrt:exception_filter.obj
 0002:00001e40       __acrt_signal_action_fpe_count 0000000180071e40     libucrt:exception_filter.obj
 0002:00001f40       __lc_time_c                0000000180071f40     libucrt:nlsdata.obj
 0002:00002200       ??_C@_03KOEHGMDN@Sun?$AA@  0000000180072200     libucrt:nlsdata.obj
 0002:00002204       ??_C@_03PDAGKDH@Mon?$AA@   0000000180072204     libucrt:nlsdata.obj
 0002:00002208       ??_C@_03NAGEINEP@Tue?$AA@  0000000180072208     libucrt:nlsdata.obj
 0002:0000220c       ??_C@_03MHOMLAJA@Wed?$AA@  000000018007220c     libucrt:nlsdata.obj
 0002:00002210       ??_C@_03IOFIKPDN@Thu?$AA@  0000000180072210     libucrt:nlsdata.obj
 0002:00002214       ??_C@_03IDIOELNC@Fri?$AA@  0000000180072214     libucrt:nlsdata.obj
 0002:00002218       ??_C@_03FEFJNEK@Sat?$AA@   0000000180072218     libucrt:nlsdata.obj
 0002:0000221c       ??_C@_06OOPIFAJ@Sunday?$AA@ 000000018007221c     libucrt:nlsdata.obj
 0002:00002224       ??_C@_06JLEDEDGH@Monday?$AA@ 0000000180072224     libucrt:nlsdata.obj
 0002:00002230       ??_C@_07BAAGCFCM@Tuesday?$AA@ 0000000180072230     libucrt:nlsdata.obj
 0002:00002238       ??_C@_09DLIGFAKA@Wednesday?$AA@ 0000000180072238     libucrt:nlsdata.obj
 0002:00002248       ??_C@_08HACCIKIA@Thursday?$AA@ 0000000180072248     libucrt:nlsdata.obj
 0002:00002254       ??_C@_06JECMNKMI@Friday?$AA@ 0000000180072254     libucrt:nlsdata.obj
 0002:00002260       ??_C@_08INBOOONO@Saturday?$AA@ 0000000180072260     libucrt:nlsdata.obj
 0002:0000226c       ??_C@_03JIHJHPIE@Jan?$AA@  000000018007226c     libucrt:nlsdata.obj
 0002:00002270       ??_C@_03HJBDCHOM@Feb?$AA@  0000000180072270     libucrt:nlsdata.obj
 0002:00002274       ??_C@_03ODNJBKGA@Mar?$AA@  0000000180072274     libucrt:nlsdata.obj
 0002:00002278       ??_C@_03LEOLGMJP@Apr?$AA@  0000000180072278     libucrt:nlsdata.obj
 0002:0000227c       ??_C@_03CNMDKL@May?$AA@    000000018007227c     libucrt:nlsdata.obj
 0002:00002280       ??_C@_03IDFGHECI@Jun?$AA@  0000000180072280     libucrt:nlsdata.obj
 0002:00002284       ??_C@_03LBGABGKK@Jul?$AA@  0000000180072284     libucrt:nlsdata.obj
 0002:00002288       ??_C@_03IFJFEIGA@Aug?$AA@  0000000180072288     libucrt:nlsdata.obj
 0002:0000228c       ??_C@_03GGCAPAJC@Sep?$AA@  000000018007228c     libucrt:nlsdata.obj
 0002:00002290       ??_C@_03BMAOKBAD@Oct?$AA@  0000000180072290     libucrt:nlsdata.obj
 0002:00002294       ??_C@_03JPJOFNIA@Nov?$AA@  0000000180072294     libucrt:nlsdata.obj
 0002:00002298       ??_C@_03MKABNOCG@Dec?$AA@  0000000180072298     libucrt:nlsdata.obj
 0002:000022a0       ??_C@_07CGJPFGJA@January?$AA@ 00000001800722a0     libucrt:nlsdata.obj
 0002:000022a8       ??_C@_08GNJGEPFN@February?$AA@ 00000001800722a8     libucrt:nlsdata.obj
 0002:000022b4       ??_C@_05HPCKOFNC@March?$AA@ 00000001800722b4     libucrt:nlsdata.obj
 0002:000022bc       ??_C@_05DMJDNLEJ@April?$AA@ 00000001800722bc     libucrt:nlsdata.obj
 0002:000022c4       ??_C@_04CNLMGBGM@June?$AA@ 00000001800722c4     libucrt:nlsdata.obj
 0002:000022cc       ??_C@_04MIEPOIFP@July?$AA@ 00000001800722cc     libucrt:nlsdata.obj
 0002:000022d4       ??_C@_06LBBHFDDG@August?$AA@ 00000001800722d4     libucrt:nlsdata.obj
 0002:000022e0       ??_C@_09BHHEALKD@September?$AA@ 00000001800722e0     libucrt:nlsdata.obj
 0002:000022f0       ??_C@_07JJNFCEND@October?$AA@ 00000001800722f0     libucrt:nlsdata.obj
 0002:000022f8       ??_C@_08HCHEGEOA@November?$AA@ 00000001800722f8     libucrt:nlsdata.obj
 0002:00002308       ??_C@_08EDHMEBNP@December?$AA@ 0000000180072308     libucrt:nlsdata.obj
 0002:00002314       ??_C@_02DEDBPAFC@AM?$AA@   0000000180072314     libucrt:nlsdata.obj
 0002:00002318       ??_C@_02CJNFDJBF@PM?$AA@   0000000180072318     libucrt:nlsdata.obj
 0002:00002320       ??_C@_08BPBNCDIB@MM?1dd?1yy?$AA@ 0000000180072320     libucrt:nlsdata.obj
 0002:00002330       ??_C@_0BE@CKGJFCPC@dddd?0?5MMMM?5dd?0?5yyyy?$AA@ 0000000180072330     libucrt:nlsdata.obj
 0002:00002348       ??_C@_08JCCMCCIL@HH?3mm?3ss?$AA@ 0000000180072348     libucrt:nlsdata.obj
 0002:00002358       ??_C@_17MBGCMIPB@?$AAS?$AAu?$AAn?$AA?$AA@ 0000000180072358     libucrt:nlsdata.obj
 0002:00002360       ??_C@_17KBOMKBF@?$AAM?$AAo?$AAn?$AA?$AA@ 0000000180072360     libucrt:nlsdata.obj
 0002:00002368       ??_C@_17BMKGEGOJ@?$AAT?$AAu?$AAe?$AA?$AA@ 0000000180072368     libucrt:nlsdata.obj
 0002:00002370       ??_C@_17CJEDCEPE@?$AAW?$AAe?$AAd?$AA?$AA@ 0000000180072370     libucrt:nlsdata.obj
 0002:00002378       ??_C@_17PDPHAADD@?$AAT?$AAh?$AAu?$AA?$AA@ 0000000180072378     libucrt:nlsdata.obj
 0002:00002380       ??_C@_17HFOLPPLP@?$AAF?$AAr?$AAi?$AA?$AA@ 0000000180072380     libucrt:nlsdata.obj
 0002:00002388       ??_C@_17GGIBDPIH@?$AAS?$AAa?$AAt?$AA?$AA@ 0000000180072388     libucrt:nlsdata.obj
 0002:00002390       ??_C@_1O@IHNHDHPB@?$AAS?$AAu?$AAn?$AAd?$AAa?$AAy?$AA?$AA@ 0000000180072390     libucrt:nlsdata.obj
 0002:000023a0       ??_C@_1O@MMNBFLIA@?$AAM?$AAo?$AAn?$AAd?$AAa?$AAy?$AA?$AA@ 00000001800723a0     libucrt:nlsdata.obj
 0002:000023b0       ??_C@_1BA@ENFBFFEK@?$AAT?$AAu?$AAe?$AAs?$AAd?$AAa?$AAy?$AA?$AA@ 00000001800723b0     libucrt:nlsdata.obj
 0002:000023c0       ??_C@_1BE@EBOGMDOH@?$AAW?$AAe?$AAd?$AAn?$AAe?$AAs?$AAd?$AAa?$AAy?$AA?$AA@ 00000001800723c0     libucrt:nlsdata.obj
 0002:000023d8       ??_C@_1BC@HHMNLIHE@?$AAT?$AAh?$AAu?$AAr?$AAs?$AAd?$AAa?$AAy?$AA?$AA@ 00000001800723d8     libucrt:nlsdata.obj
 0002:000023f0       ??_C@_1O@PDICJHAG@?$AAF?$AAr?$AAi?$AAd?$AAa?$AAy?$AA?$AA@ 00000001800723f0     libucrt:nlsdata.obj
 0002:00002400       ??_C@_1BC@ENMNNPAJ@?$AAS?$AAa?$AAt?$AAu?$AAr?$AAd?$AAa?$AAy?$AA?$AA@ 0000000180072400     libucrt:nlsdata.obj
 0002:00002418       ??_C@_17DKNBKCHM@?$AAJ?$AAa?$AAn?$AA?$AA@ 0000000180072418     libucrt:nlsdata.obj
 0002:00002420       ??_C@_17LMDJEKJN@?$AAF?$AAe?$AAb?$AA?$AA@ 0000000180072420     libucrt:nlsdata.obj
 0002:00002428       ??_C@_17CKNLEDEC@?$AAM?$AAa?$AAr?$AA?$AA@ 0000000180072428     libucrt:nlsdata.obj
 0002:00002430       ??_C@_17LFPOIHDD@?$AAA?$AAp?$AAr?$AA?$AA@ 0000000180072430     libucrt:nlsdata.obj
 0002:00002438       ??_C@_17PNNKMEED@?$AAM?$AAa?$AAy?$AA?$AA@ 0000000180072438     libucrt:nlsdata.obj
 0002:00002440       ??_C@_17KCJGOCPB@?$AAJ?$AAu?$AAn?$AA?$AA@ 0000000180072440     libucrt:nlsdata.obj
 0002:00002448       ??_C@_17IJPCKHK@?$AAJ?$AAu?$AAl?$AA?$AA@ 0000000180072448     libucrt:nlsdata.obj
 0002:00002450       ??_C@_17ICPELBCN@?$AAA?$AAu?$AAg?$AA?$AA@ 0000000180072450     libucrt:nlsdata.obj
 0002:00002458       ??_C@_17HCHCOKMG@?$AAS?$AAe?$AAp?$AA?$AA@ 0000000180072458     libucrt:nlsdata.obj
 0002:00002460       ??_C@_17FNLKOI@?$AAO?$AAc?$AAt?$AA?$AA@ 0000000180072460     libucrt:nlsdata.obj
 0002:00002468       ??_C@_17BBDMLCIG@?$AAN?$AAo?$AAv?$AA?$AA@ 0000000180072468     libucrt:nlsdata.obj
 0002:00002470       ??_C@_17EGKACKIF@?$AAD?$AAe?$AAc?$AA?$AA@ 0000000180072470     libucrt:nlsdata.obj
 0002:00002478       ??_C@_1BA@EFMEIEBA@?$AAJ?$AAa?$AAn?$AAu?$AAa?$AAr?$AAy?$AA?$AA@ 0000000180072478     libucrt:nlsdata.obj
 0002:00002488       ??_C@_1BC@JGDDFFAM@?$AAF?$AAe?$AAb?$AAr?$AAu?$AAa?$AAr?$AAy?$AA?$AA@ 0000000180072488     libucrt:nlsdata.obj
 0002:000024a0       ??_C@_1M@IKEENEDF@?$AAM?$AAa?$AAr?$AAc?$AAh?$AA?$AA@ 00000001800724a0     libucrt:nlsdata.obj
 0002:000024b0       ??_C@_1M@GJNLMHFD@?$AAA?$AAp?$AAr?$AAi?$AAl?$AA?$AA@ 00000001800724b0     libucrt:nlsdata.obj
 0002:000024c0       ??_C@_19EPFLPGAP@?$AAJ?$AAu?$AAn?$AAe?$AA?$AA@ 00000001800724c0     libucrt:nlsdata.obj
 0002:000024d0       ??_C@_19BIFMLPCD@?$AAJ?$AAu?$AAl?$AAy?$AA?$AA@ 00000001800724d0     libucrt:nlsdata.obj
 0002:000024e0       ??_C@_1O@PAHLKOAC@?$AAA?$AAu?$AAg?$AAu?$AAs?$AAt?$AA?$AA@ 00000001800724e0     libucrt:nlsdata.obj
 0002:000024f0       ??_C@_1BE@DKAAMBJL@?$AAS?$AAe?$AAp?$AAt?$AAe?$AAm?$AAb?$AAe?$AAr?$AA?$AA@ 00000001800724f0     libucrt:nlsdata.obj
 0002:00002508       ??_C@_1BA@EPANDLNG@?$AAO?$AAc?$AAt?$AAo?$AAb?$AAe?$AAr?$AA?$AA@ 0000000180072508     libucrt:nlsdata.obj
 0002:00002518       ??_C@_1BC@BGLIFPF@?$AAN?$AAo?$AAv?$AAe?$AAm?$AAb?$AAe?$AAr?$AA?$AA@ 0000000180072518     libucrt:nlsdata.obj
 0002:00002530       ??_C@_1BC@FEMKIFH@?$AAD?$AAe?$AAc?$AAe?$AAm?$AAb?$AAe?$AAr?$AA?$AA@ 0000000180072530     libucrt:nlsdata.obj
 0002:00002544       ??_C@_15ODEHAHHF@?$AAA?$AAM?$AA?$AA@ 0000000180072544     libucrt:nlsdata.obj
 0002:0000254c       ??_C@_15CLMNNGEL@?$AAP?$AAM?$AA?$AA@ 000000018007254c     libucrt:nlsdata.obj
 0002:00002558       ??_C@_1BC@IEBCMHCM@?$AAM?$AAM?$AA?1?$AAd?$AAd?$AA?1?$AAy?$AAy?$AA?$AA@ 0000000180072558     libucrt:nlsdata.obj
 0002:00002570       ??_C@_1CI@KNAKOEBC@?$AAd?$AAd?$AAd?$AAd?$AA?0?$AA?5?$AAM?$AAM?$AAM?$AAM?$AA?5?$AAd?$AAd?$AA?0?$AA?5?$AAy?$AAy?$AAy?$AAy?$AA?$AA@ 0000000180072570     libucrt:nlsdata.obj
 0002:00002598       ??_C@_1BC@GDGBMEMK@?$AAH?$AAH?$AA?3?$AAm?$AAm?$AA?3?$AAs?$AAs?$AA?$AA@ 0000000180072598     libucrt:nlsdata.obj
 0002:000025b0       ??_C@_1M@BMHNFIME@?$AAe?$AAn?$AA?9?$AAU?$AAS?$AA?$AA@ 00000001800725b0     libucrt:nlsdata.obj
 0002:000025c0       __newctype                 00000001800725c0     libucrt:ctype.obj
 0002:000028c0       __newclmap                 00000001800728c0     libucrt:ctype.obj
 0002:00002a40       __newcumap                 0000000180072a40     libucrt:ctype.obj
 0002:00002bc0       ??_C@_03OEIAHPBN@INF?$AA@  0000000180072bc0     libucrt:cvt.obj
 0002:00002bc4       ??_C@_03OJHLLCGB@inf?$AA@  0000000180072bc4     libucrt:cvt.obj
 0002:00002bc8       ??_C@_03LKNCIKJB@NAN?$AA@  0000000180072bc8     libucrt:cvt.obj
 0002:00002bcc       ??_C@_03LHCJEHON@nan?$AA@  0000000180072bcc     libucrt:cvt.obj
 0002:00002bd0       ??_C@_09OFJJIMPC@NAN?$CISNAN?$CJ?$AA@ 0000000180072bd0     libucrt:cvt.obj
 0002:00002be0       ??_C@_09IPFBKMDL@nan?$CIsnan?$CJ?$AA@ 0000000180072be0     libucrt:cvt.obj
 0002:00002bf0       ??_C@_08IKHNHAJ@NAN?$CIIND?$CJ?$AA@ 0000000180072bf0     libucrt:cvt.obj
 0002:00002c00       ??_C@_08OFCDMILK@nan?$CIind?$CJ?$AA@ 0000000180072c00     libucrt:cvt.obj
 0002:00002c0c       ??_C@_05KLBDPFGC@e?$CL000?$AA@ 0000000180072c0c     libucrt:cvt.obj
 0002:00002cc0       ??_C@_1EG@CNNIPFIM@?$AAa?$AAp?$AAi?$AA?9?$AAm?$AAs?$AA?9?$AAw?$AAi?$AAn?$AA?9?$AAa?$AAp?$AAp?$AAm?$AAo?$AAd?$AAe?$AAl?$AA?9?$AAr?$AAu?$AAn?$AAt?$AAi?$AAm?$AAe?$AA?9?$AAl?$AA1?$AA?9?$AA1@ 0000000180072cc0     libucrt:winapi_thunks.obj
 0002:00002d10       ??_C@_1EA@JGEFHKEI@?$AAa?$AAp?$AAi?$AA?9?$AAm?$AAs?$AA?9?$AAw?$AAi?$AAn?$AA?9?$AAc?$AAo?$AAr?$AAe?$AA?9?$AAd?$AAa?$AAt?$AAe?$AAt?$AAi?$AAm?$AAe?$AA?9?$AAl?$AA1?$AA?9?$AA1?$AA?9?$AA1?$AA?$AA@ 0000000180072d10     libucrt:winapi_thunks.obj
 0002:00002d50       ??_C@_1DI@GCIAAENM@?$AAa?$AAp?$AAi?$AA?9?$AAm?$AAs?$AA?9?$AAw?$AAi?$AAn?$AA?9?$AAc?$AAo?$AAr?$AAe?$AA?9?$AAf?$AAi?$AAl?$AAe?$AA?9?$AAl?$AA2?$AA?9?$AA1?$AA?9?$AA1?$AA?$AA@ 0000000180072d50     libucrt:winapi_thunks.obj
 0002:00002d90       ??_C@_1EI@MPIAOHOC@?$AAa?$AAp?$AAi?$AA?9?$AAm?$AAs?$AA?9?$AAw?$AAi?$AAn?$AA?9?$AAc?$AAo?$AAr?$AAe?$AA?9?$AAl?$AAo?$AAc?$AAa?$AAl?$AAi?$AAz?$AAa?$AAt?$AAi?$AAo?$AAn?$AA?9?$AAl?$AA1?$AA?9@ 0000000180072d90     libucrt:winapi_thunks.obj
 0002:00002de0       ??_C@_1FK@FPHCKFIE@?$AAa?$AAp?$AAi?$AA?9?$AAm?$AAs?$AA?9?$AAw?$AAi?$AAn?$AA?9?$AAc?$AAo?$AAr?$AAe?$AA?9?$AAl?$AAo?$AAc?$AAa?$AAl?$AAi?$AAz?$AAa?$AAt?$AAi?$AAo?$AAn?$AA?9?$AAo?$AAb?$AAs@ 0000000180072de0     libucrt:winapi_thunks.obj
 0002:00002e40       ??_C@_1EM@DILCGIIO@?$AAa?$AAp?$AAi?$AA?9?$AAm?$AAs?$AA?9?$AAw?$AAi?$AAn?$AA?9?$AAc?$AAo?$AAr?$AAe?$AA?9?$AAp?$AAr?$AAo?$AAc?$AAe?$AAs?$AAs?$AAt?$AAh?$AAr?$AAe?$AAa?$AAd?$AAs?$AA?9?$AAl@ 0000000180072e40     libucrt:winapi_thunks.obj
 0002:00002e90       ??_C@_1DM@LNCGDDPN@?$AAa?$AAp?$AAi?$AA?9?$AAm?$AAs?$AA?9?$AAw?$AAi?$AAn?$AA?9?$AAc?$AAo?$AAr?$AAe?$AA?9?$AAs?$AAt?$AAr?$AAi?$AAn?$AAg?$AA?9?$AAl?$AA1?$AA?9?$AA1?$AA?9?$AA0?$AA?$AA@ 0000000180072e90     libucrt:winapi_thunks.obj
 0002:00002ed0       ??_C@_1DO@FPAPJEMD@?$AAa?$AAp?$AAi?$AA?9?$AAm?$AAs?$AA?9?$AAw?$AAi?$AAn?$AA?9?$AAc?$AAo?$AAr?$AAe?$AA?9?$AAs?$AAy?$AAs?$AAi?$AAn?$AAf?$AAo?$AA?9?$AAl?$AA1?$AA?9?$AA2?$AA?9?$AA1?$AA?$AA@ 0000000180072ed0     libucrt:winapi_thunks.obj
 0002:00002f10       ??_C@_1DK@NDHNAHIO@?$AAa?$AAp?$AAi?$AA?9?$AAm?$AAs?$AA?9?$AAw?$AAi?$AAn?$AA?9?$AAc?$AAo?$AAr?$AAe?$AA?9?$AAw?$AAi?$AAn?$AAr?$AAt?$AA?9?$AAl?$AA1?$AA?9?$AA1?$AA?9?$AA0?$AA?$AA@ 0000000180072f10     libucrt:winapi_thunks.obj
 0002:00002f50       ??_C@_1DM@KGHDGBCM@?$AAa?$AAp?$AAi?$AA?9?$AAm?$AAs?$AA?9?$AAw?$AAi?$AAn?$AA?9?$AAc?$AAo?$AAr?$AAe?$AA?9?$AAx?$AAs?$AAt?$AAa?$AAt?$AAe?$AA?9?$AAl?$AA2?$AA?9?$AA1?$AA?9?$AA0?$AA?$AA@ 0000000180072f50     libucrt:winapi_thunks.obj
 0002:00002f90       ??_C@_1EO@IJIOEFOH@?$AAa?$AAp?$AAi?$AA?9?$AAm?$AAs?$AA?9?$AAw?$AAi?$AAn?$AA?9?$AAr?$AAt?$AAc?$AAo?$AAr?$AAe?$AA?9?$AAn?$AAt?$AAu?$AAs?$AAe?$AAr?$AA?9?$AAw?$AAi?$AAn?$AAd?$AAo?$AAw?$AA?9@ 0000000180072f90     libucrt:winapi_thunks.obj
 0002:00002fe0       ??_C@_1FG@HHGEKANL@?$AAa?$AAp?$AAi?$AA?9?$AAm?$AAs?$AA?9?$AAw?$AAi?$AAn?$AA?9?$AAs?$AAe?$AAc?$AAu?$AAr?$AAi?$AAt?$AAy?$AA?9?$AAs?$AAy?$AAs?$AAt?$AAe?$AAm?$AAf?$AAu?$AAn?$AAc?$AAt?$AAi@ 0000000180072fe0     libucrt:winapi_thunks.obj
 0002:00003040       ??_C@_1FG@NCKKOLKO@?$AAe?$AAx?$AAt?$AA?9?$AAm?$AAs?$AA?9?$AAw?$AAi?$AAn?$AA?9?$AAk?$AAe?$AAr?$AAn?$AAe?$AAl?$AA3?$AA2?$AA?9?$AAp?$AAa?$AAc?$AAk?$AAa?$AAg?$AAe?$AA?9?$AAc?$AAu?$AAr?$AAr@ 0000000180073040     libucrt:winapi_thunks.obj
 0002:000030a0       ??_C@_1EG@DBIOJECG@?$AAe?$AAx?$AAt?$AA?9?$AAm?$AAs?$AA?9?$AAw?$AAi?$AAn?$AA?9?$AAn?$AAt?$AAu?$AAs?$AAe?$AAr?$AA?9?$AAd?$AAi?$AAa?$AAl?$AAo?$AAg?$AAb?$AAo?$AAx?$AA?9?$AAl?$AA1?$AA?9?$AA1@ 00000001800730a0     libucrt:winapi_thunks.obj
 0002:000030f0       ??_C@_1EO@FIHMJCLF@?$AAe?$AAx?$AAt?$AA?9?$AAm?$AAs?$AA?9?$AAw?$AAi?$AAn?$AA?9?$AAn?$AAt?$AAu?$AAs?$AAe?$AAr?$AA?9?$AAw?$AAi?$AAn?$AAd?$AAo?$AAw?$AAs?$AAt?$AAa?$AAt?$AAi?$AAo?$AAn?$AA?9@ 00000001800730f0     libucrt:winapi_thunks.obj
 0002:00003140       ??_C@_1O@BCCLBEOE@?$AAu?$AAs?$AAe?$AAr?$AA3?$AA2?$AA?$AA@ 0000000180073140     libucrt:winapi_thunks.obj
 0002:00003178       ??_C@_0BE@JOGNEJCI@GetCurrentPackageId?$AA@ 0000000180073178     libucrt:winapi_thunks.obj
 0002:000031a0       ??_C@_0O@KKBNKAPF@LCMapStringEx?$AA@ 00000001800731a0     libucrt:winapi_thunks.obj
 0002:000031b8       ??_C@_0BB@HBDEELFH@LocaleNameToLCID?$AA@ 00000001800731b8     libucrt:winapi_thunks.obj
 0002:000031f0       ??_C@_1M@HPNHIDJI@?$AAj?$AAa?$AA?9?$AAJ?$AAP?$AA?$AA@ 00000001800731f0     libucrt:mbctype.obj
 0002:00003200       ??_C@_1M@BIBDDEMK@?$AAz?$AAh?$AA?9?$AAC?$AAN?$AA?$AA@ 0000000180073200     libucrt:mbctype.obj
 0002:00003210       ??_C@_1M@JLOOOEGK@?$AAk?$AAo?$AA?9?$AAK?$AAR?$AA?$AA@ 0000000180073210     libucrt:mbctype.obj
 0002:00003220       ??_C@_1M@CLNBBOPM@?$AAz?$AAh?$AA?9?$AAT?$AAW?$AA?$AA@ 0000000180073220     libucrt:mbctype.obj
 0002:0000322c       ??_C@_15PJPFLCCM@?$AAu?$AAk?$AA?$AA@ 000000018007322c     libucrt:get_qualified_locale.obj
 0002:00003234       ??_C@_01GBGANLPD@0?$AA@    0000000180073234     libucrt:cfout.obj
 0002:00003238       ??_C@_05DNEBIAHO@1?$CDINF?$AA@ 0000000180073238     libucrt:cfout.obj
 0002:00003240       ??_C@_06IMKFLFPG@1?$CDQNAN?$AA@ 0000000180073240     libucrt:cfout.obj
 0002:00003248       ??_C@_06PGGFOGJG@1?$CDSNAN?$AA@ 0000000180073248     libucrt:cfout.obj
 0002:00003250       ??_C@_05PHHOCPM@1?$CDIND?$AA@ 0000000180073250     libucrt:cfout.obj
 0002:000040a0       ??_C@_15EMKDOKLE@?$AAa?$AAr?$AA?$AA@ 00000001800740a0     libucrt:lcidtoname_downlevel.obj
 0002:000040a8       ??_C@_15KNPADPLH@?$AAb?$AAg?$AA?$AA@ 00000001800740a8     libucrt:lcidtoname_downlevel.obj
 0002:000040b0       ??_C@_15EDMHLDMO@?$AAc?$AAa?$AA?$AA@ 00000001800740b0     libucrt:lcidtoname_downlevel.obj
 0002:000040b8       ??_C@_1O@BPEAJADD@?$AAz?$AAh?$AA?9?$AAC?$AAH?$AAS?$AA?$AA@ 00000001800740b8     libucrt:lcidtoname_downlevel.obj
 0002:000040c8       ??_C@_15LJNHCMNK@?$AAc?$AAs?$AA?$AA@ 00000001800740c8     libucrt:lcidtoname_downlevel.obj
 0002:000040d0       ??_C@_15FOMCIDHG@?$AAd?$AAa?$AA?$AA@ 00000001800740d0     libucrt:lcidtoname_downlevel.obj
 0002:000040d8       ??_C@_15NBKABECB@?$AAd?$AAe?$AA?$AA@ 00000001800740d8     libucrt:lcidtoname_downlevel.obj
 0002:000040e0       ??_C@_15GHPEIIAO@?$AAe?$AAl?$AA?$AA@ 00000001800740e0     libucrt:lcidtoname_downlevel.obj
 0002:000040e8       ??_C@_15MNPNEAIF@?$AAe?$AAn?$AA?$AA@ 00000001800740e8     libucrt:lcidtoname_downlevel.obj
 0002:000040f0       ??_C@_15GPIOMPMH@?$AAe?$AAs?$AA?$AA@ 00000001800740f0     libucrt:lcidtoname_downlevel.obj
 0002:000040f8       ??_C@_15NGLOAKJC@?$AAf?$AAi?$AA?$AA@ 00000001800740f8     libucrt:lcidtoname_downlevel.obj
 0002:00004100       ??_C@_15FBKGNKAM@?$AAf?$AAr?$AA?$AA@ 0000000180074100     libucrt:lcidtoname_downlevel.obj
 0002:00004108       ??_C@_15KGGCNEFK@?$AAh?$AAe?$AA?$AA@ 0000000180074108     libucrt:lcidtoname_downlevel.obj
 0002:00004110       ??_C@_15PGHLIDMF@?$AAh?$AAu?$AA?$AA@ 0000000180074110     libucrt:lcidtoname_downlevel.obj
 0002:00004118       ??_C@_15BIEMAPLM@?$AAi?$AAs?$AA?$AA@ 0000000180074118     libucrt:lcidtoname_downlevel.obj
 0002:00004120       ??_C@_15IFJLDHAF@?$AAi?$AAt?$AA?$AA@ 0000000180074120     libucrt:lcidtoname_downlevel.obj
 0002:00004128       ??_C@_15GEMIOCAG@?$AAj?$AAa?$AA?$AA@ 0000000180074128     libucrt:lcidtoname_downlevel.obj
 0002:00004130       ??_C@_15EPELEGJA@?$AAk?$AAo?$AA?$AA@ 0000000180074130     libucrt:lcidtoname_downlevel.obj
 0002:00004138       ??_C@_15NDDHIMN@?$AAn?$AAl?$AA?$AA@ 0000000180074138     libucrt:lcidtoname_downlevel.obj
 0002:00004140       ??_C@_15BPIGNHCD@?$AAn?$AAo?$AA?$AA@ 0000000180074140     libucrt:lcidtoname_downlevel.obj
 0002:00004148       ??_C@_15DEOPBLCG@?$AAp?$AAl?$AA?$AA@ 0000000180074148     libucrt:lcidtoname_downlevel.obj
 0002:00004150       ??_C@_15KBECGEFG@?$AAp?$AAt?$AA?$AA@ 0000000180074150     libucrt:lcidtoname_downlevel.obj
 0002:00004158       ??_C@_15GLJCBFMD@?$AAr?$AAo?$AA?$AA@ 0000000180074158     libucrt:lcidtoname_downlevel.obj
 0002:00004160       ??_C@_15FEDGKCDI@?$AAr?$AAu?$AA?$AA@ 0000000180074160     libucrt:lcidtoname_downlevel.obj
 0002:00004168       ??_C@_15GLKMLLHM@?$AAh?$AAr?$AA?$AA@ 0000000180074168     libucrt:lcidtoname_downlevel.obj
 0002:00004170       ??_C@_15CPKMFBDB@?$AAs?$AAk?$AA?$AA@ 0000000180074170     libucrt:lcidtoname_downlevel.obj
 0002:00004178       ??_C@_15BAAIOGMK@?$AAs?$AAq?$AA?$AA@ 0000000180074178     libucrt:lcidtoname_downlevel.obj
 0002:00004180       ??_C@_15INNPNOHD@?$AAs?$AAv?$AA?$AA@ 0000000180074180     libucrt:lcidtoname_downlevel.obj
 0002:00004188       ??_C@_15CABMMOGH@?$AAt?$AAh?$AA?$AA@ 0000000180074188     libucrt:lcidtoname_downlevel.obj
 0002:00004190       ??_C@_15BPLIHJJM@?$AAt?$AAr?$AA?$AA@ 0000000180074190     libucrt:lcidtoname_downlevel.obj
 0002:00004198       ??_C@_15NEOEKKDJ@?$AAu?$AAr?$AA?$AA@ 0000000180074198     libucrt:lcidtoname_downlevel.obj
 0002:000041a0       ??_C@_15NFICGAJK@?$AAi?$AAd?$AA?$AA@ 00000001800741a0     libucrt:lcidtoname_downlevel.obj
 0002:000041a8       ??_C@_15HPJPHDM@?$AAb?$AAe?$AA?$AA@ 00000001800741a8     libucrt:lcidtoname_downlevel.obj
 0002:000041b0       ??_C@_15LCHLGJII@?$AAs?$AAl?$AA?$AA@ 00000001800741b0     libucrt:lcidtoname_downlevel.obj
 0002:000041b8       ??_C@_15PCFJPHHO@?$AAe?$AAt?$AA?$AA@ 00000001800741b8     libucrt:lcidtoname_downlevel.obj
 0002:000041c0       ??_C@_15HPFPGODN@?$AAl?$AAv?$AA?$AA@ 00000001800741c0     libucrt:lcidtoname_downlevel.obj
 0002:000041c8       ??_C@_15NFFGKGLG@?$AAl?$AAt?$AA?$AA@ 00000001800741c8     libucrt:lcidtoname_downlevel.obj
 0002:000041d0       ??_C@_15BDAKCCHN@?$AAf?$AAa?$AA?$AA@ 00000001800741d0     libucrt:lcidtoname_downlevel.obj
 0002:000041d8       ??_C@_15NFGIAIAJ@?$AAv?$AAi?$AA?$AA@ 00000001800741d8     libucrt:lcidtoname_downlevel.obj
 0002:000041e0       ??_C@_15LMKNDMHN@?$AAh?$AAy?$AA?$AA@ 00000001800741e0     libucrt:lcidtoname_downlevel.obj
 0002:000041e8       ??_C@_15IJBHMCFL@?$AAa?$AAz?$AA?$AA@ 00000001800741e8     libucrt:lcidtoname_downlevel.obj
 0002:000041f0       ??_C@_15EKOFJABL@?$AAe?$AAu?$AA?$AA@ 00000001800741f0     libucrt:lcidtoname_downlevel.obj
 0002:000041f8       ??_C@_15BGHADCNK@?$AAm?$AAk?$AA?$AA@ 00000001800741f8     libucrt:lcidtoname_downlevel.obj
 0002:00004200       ??_C@_15JDNICKHM@?$AAa?$AAf?$AA?$AA@ 0000000180074200     libucrt:lcidtoname_downlevel.obj
 0002:00004208       ??_C@_15KPJEDBKD@?$AAk?$AAa?$AA?$AA@ 0000000180074208     libucrt:lcidtoname_downlevel.obj
 0002:00004210       ??_C@_15PDNFFFEO@?$AAf?$AAo?$AA?$AA@ 0000000180074210     libucrt:lcidtoname_downlevel.obj
 0002:00004218       ??_C@_15OMLEGLOC@?$AAh?$AAi?$AA?$AA@ 0000000180074218     libucrt:lcidtoname_downlevel.obj
 0002:00004220       ??_C@_15IDNNENKK@?$AAm?$AAs?$AA?$AA@ 0000000180074220     libucrt:lcidtoname_downlevel.obj
 0002:00004228       ??_C@_15MACJNBMH@?$AAk?$AAk?$AA?$AA@ 0000000180074228     libucrt:lcidtoname_downlevel.obj
 0002:00004230       ??_C@_15DKDJEOND@?$AAk?$AAy?$AA?$AA@ 0000000180074230     libucrt:lcidtoname_downlevel.obj
 0002:00004238       ??_C@_15DFGDLJBG@?$AAs?$AAw?$AA?$AA@ 0000000180074238     libucrt:lcidtoname_downlevel.obj
 0002:00004240       ??_C@_15BBFAICNG@?$AAu?$AAz?$AA?$AA@ 0000000180074240     libucrt:lcidtoname_downlevel.obj
 0002:00004248       ??_C@_15DKNDCGEA@?$AAt?$AAt?$AA?$AA@ 0000000180074248     libucrt:lcidtoname_downlevel.obj
 0002:00004250       ??_C@_15MGIFMDPL@?$AAp?$AAa?$AA?$AA@ 0000000180074250     libucrt:lcidtoname_downlevel.obj
 0002:00004258       ??_C@_15HCNDBBA@?$AAg?$AAu?$AA?$AA@ 0000000180074258     libucrt:lcidtoname_downlevel.obj
 0002:00004260       ??_C@_15FNBEIBON@?$AAt?$AAa?$AA?$AA@ 0000000180074260     libucrt:lcidtoname_downlevel.obj
 0002:00004268       ??_C@_15NCHGBGLK@?$AAt?$AAe?$AA?$AA@ 0000000180074268     libucrt:lcidtoname_downlevel.obj
 0002:00004270       ??_C@_15PHPHCBPF@?$AAk?$AAn?$AA?$AA@ 0000000180074270     libucrt:lcidtoname_downlevel.obj
 0002:00004278       ??_C@_15DLGBCKMP@?$AAm?$AAr?$AA?$AA@ 0000000180074278     libucrt:lcidtoname_downlevel.obj
 0002:00004280       ??_C@_15EABBLBFF@?$AAs?$AAa?$AA?$AA@ 0000000180074280     libucrt:lcidtoname_downlevel.obj
 0002:00004288       ??_C@_15CBKOMCOI@?$AAm?$AAn?$AA?$AA@ 0000000180074288     libucrt:lcidtoname_downlevel.obj
 0002:00004290       ??_C@_15CKDMCJAF@?$AAg?$AAl?$AA?$AA@ 0000000180074290     libucrt:lcidtoname_downlevel.obj
 0002:00004298       ??_C@_17CNJFBPG@?$AAk?$AAo?$AAk?$AA?$AA@ 0000000180074298     libucrt:lcidtoname_downlevel.obj
 0002:000042a0       ??_C@_17FFBJICPL@?$AAs?$AAy?$AAr?$AA?$AA@ 00000001800742a0     libucrt:lcidtoname_downlevel.obj
 0002:000042a8       ??_C@_17KPNDCPAF@?$AAd?$AAi?$AAv?$AA?$AA@ 00000001800742a8     libucrt:lcidtoname_downlevel.obj
 0002:000042b0       ??_C@_1M@OKAHONE@?$AAa?$AAr?$AA?9?$AAS?$AAA?$AA?$AA@ 00000001800742b0     libucrt:lcidtoname_downlevel.obj
 0002:000042c0       ??_C@_1M@FFFIGIGK@?$AAb?$AAg?$AA?9?$AAB?$AAG?$AA?$AA@ 00000001800742c0     libucrt:lcidtoname_downlevel.obj
 0002:000042d0       ??_C@_1M@BJNKEDC@?$AAc?$AAa?$AA?9?$AAE?$AAS?$AA?$AA@ 00000001800742d0     libucrt:lcidtoname_downlevel.obj
 0002:000042e0       ??_C@_1M@IJJHFJHA@?$AAc?$AAs?$AA?9?$AAC?$AAZ?$AA?$AA@ 00000001800742e0     libucrt:lcidtoname_downlevel.obj
 0002:000042f0       ??_C@_1M@CLPEOBGI@?$AAd?$AAa?$AA?9?$AAD?$AAK?$AA?$AA@ 00000001800742f0     libucrt:lcidtoname_downlevel.obj
 0002:00004300       ??_C@_1M@MCMADGCB@?$AAd?$AAe?$AA?9?$AAD?$AAE?$AA?$AA@ 0000000180074300     libucrt:lcidtoname_downlevel.obj
 0002:00004310       ??_C@_1M@OOCKEMAM@?$AAe?$AAl?$AA?9?$AAG?$AAR?$AA?$AA@ 0000000180074310     libucrt:lcidtoname_downlevel.obj
 0002:00004320       ??_C@_1M@DDNJFGID@?$AAf?$AAi?$AA?9?$AAF?$AAI?$AA?$AA@ 0000000180074320     libucrt:lcidtoname_downlevel.obj
 0002:00004330       ??_C@_1M@GLIPPMAC@?$AAf?$AAr?$AA?9?$AAF?$AAR?$AA?$AA@ 0000000180074330     libucrt:lcidtoname_downlevel.obj
 0002:00004340       ??_C@_1M@GFMCHPE@?$AAh?$AAe?$AA?9?$AAI?$AAL?$AA?$AA@ 0000000180074340     libucrt:lcidtoname_downlevel.obj
 0002:00004350       ??_C@_1M@MHLPGNKM@?$AAh?$AAu?$AA?9?$AAH?$AAU?$AA?$AA@ 0000000180074350     libucrt:lcidtoname_downlevel.obj
 0002:00004360       ??_C@_1M@LPDDNNPN@?$AAi?$AAs?$AA?9?$AAI?$AAS?$AA?$AA@ 0000000180074360     libucrt:lcidtoname_downlevel.obj
 0002:00004370       ??_C@_1M@MADIPODN@?$AAi?$AAt?$AA?9?$AAI?$AAT?$AA?$AA@ 0000000180074370     libucrt:lcidtoname_downlevel.obj
 0002:00004380       ??_C@_1M@IHBJJGG@?$AAn?$AAl?$AA?9?$AAN?$AAL?$AA?$AA@ 0000000180074380     libucrt:lcidtoname_downlevel.obj
 0002:00004390       ??_C@_1M@EANAGDL@?$AAn?$AAb?$AA?9?$AAN?$AAO?$AA?$AA@ 0000000180074390     libucrt:lcidtoname_downlevel.obj
 0002:000043a0       ??_C@_1M@NEIEMEGP@?$AAp?$AAl?$AA?9?$AAP?$AAL?$AA?$AA@ 00000001800743a0     libucrt:lcidtoname_downlevel.obj
 0002:000043b0       ??_C@_1M@BOCFIGEP@?$AAp?$AAt?$AA?9?$AAB?$AAR?$AA?$AA@ 00000001800743b0     libucrt:lcidtoname_downlevel.obj
 0002:000043c0       ??_C@_1M@IMPFOPBG@?$AAr?$AAo?$AA?9?$AAR?$AAO?$AA?$AA@ 00000001800743c0     libucrt:lcidtoname_downlevel.obj
 0002:000043d0       ??_C@_1M@IDNNEJMM@?$AAr?$AAu?$AA?9?$AAR?$AAU?$AA?$AA@ 00000001800743d0     libucrt:lcidtoname_downlevel.obj
 0002:000043e0       ??_C@_1M@LILEEOGM@?$AAh?$AAr?$AA?9?$AAH?$AAR?$AA?$AA@ 00000001800743e0     libucrt:lcidtoname_downlevel.obj
 0002:000043f0       ??_C@_1M@FKIFEHPB@?$AAs?$AAk?$AA?9?$AAS?$AAK?$AA?$AA@ 00000001800743f0     libucrt:lcidtoname_downlevel.obj
 0002:00004400       ??_C@_1M@LJMAMNPJ@?$AAs?$AAq?$AA?9?$AAA?$AAL?$AA?$AA@ 0000000180074400     libucrt:lcidtoname_downlevel.obj
 0002:00004410       ??_C@_1M@GIAKDKJK@?$AAs?$AAv?$AA?9?$AAS?$AAE?$AA?$AA@ 0000000180074410     libucrt:lcidtoname_downlevel.obj
 0002:00004420       ??_C@_1M@MKJKIKCL@?$AAt?$AAh?$AA?9?$AAT?$AAH?$AA?$AA@ 0000000180074420     libucrt:lcidtoname_downlevel.obj
 0002:00004430       ??_C@_1M@MFLCCMPB@?$AAt?$AAr?$AA?9?$AAT?$AAR?$AA?$AA@ 0000000180074430     libucrt:lcidtoname_downlevel.obj
 0002:00004440       ??_C@_1M@OIJHDKJN@?$AAu?$AAr?$AA?9?$AAP?$AAK?$AA?$AA@ 0000000180074440     libucrt:lcidtoname_downlevel.obj
 0002:00004450       ??_C@_1M@LHIPCIEK@?$AAi?$AAd?$AA?9?$AAI?$AAD?$AA?$AA@ 0000000180074450     libucrt:lcidtoname_downlevel.obj
 0002:00004460       ??_C@_1M@MFMOBGI@?$AAu?$AAk?$AA?9?$AAU?$AAA?$AA?$AA@ 0000000180074460     libucrt:lcidtoname_downlevel.obj
 0002:00004470       ??_C@_1M@OBGLJIPL@?$AAb?$AAe?$AA?9?$AAB?$AAY?$AA?$AA@ 0000000180074470     libucrt:lcidtoname_downlevel.obj
 0002:00004480       ??_C@_1M@BCFAJEAD@?$AAs?$AAl?$AA?9?$AAS?$AAI?$AA?$AA@ 0000000180074480     libucrt:lcidtoname_downlevel.obj
 0002:00004490       ??_C@_1M@FKFFEDDN@?$AAe?$AAt?$AA?9?$AAE?$AAE?$AA?$AA@ 0000000180074490     libucrt:lcidtoname_downlevel.obj
 0002:000044a0       ??_C@_1M@KGKKAACI@?$AAl?$AAv?$AA?9?$AAL?$AAV?$AA?$AA@ 00000001800744a0     libucrt:lcidtoname_downlevel.obj
 0002:000044b0       ??_C@_1M@IFGBIJO@?$AAl?$AAt?$AA?9?$AAL?$AAT?$AA?$AA@ 00000001800744b0     libucrt:lcidtoname_downlevel.obj
 0002:000044c0       ??_C@_1M@FGEAHEDM@?$AAf?$AAa?$AA?9?$AAI?$AAR?$AA?$AA@ 00000001800744c0     libucrt:lcidtoname_downlevel.obj
 0002:000044d0       ??_C@_1M@KBMAIBFN@?$AAv?$AAi?$AA?9?$AAV?$AAN?$AA?$AA@ 00000001800744d0     libucrt:lcidtoname_downlevel.obj
 0002:000044e0       ??_C@_1M@GPCBKDJK@?$AAh?$AAy?$AA?9?$AAA?$AAM?$AA?$AA@ 00000001800744e0     libucrt:lcidtoname_downlevel.obj
 0002:000044f0       ??_C@_1BG@BECMDDJB@?$AAa?$AAz?$AA?9?$AAA?$AAZ?$AA?9?$AAL?$AAa?$AAt?$AAn?$AA?$AA@ 00000001800744f0     libucrt:lcidtoname_downlevel.obj
 0002:00004508       ??_C@_1M@MAOFCAEA@?$AAe?$AAu?$AA?9?$AAE?$AAS?$AA?$AA@ 0000000180074508     libucrt:lcidtoname_downlevel.obj
 0002:00004518       ??_C@_1M@IGHABKPI@?$AAm?$AAk?$AA?9?$AAM?$AAK?$AA?$AA@ 0000000180074518     libucrt:lcidtoname_downlevel.obj
 0002:00004528       ??_C@_1M@IAIGNEJG@?$AAt?$AAn?$AA?9?$AAZ?$AAA?$AA?$AA@ 0000000180074528     libucrt:lcidtoname_downlevel.obj
 0002:00004538       ??_C@_1M@IIJCOJFA@?$AAx?$AAh?$AA?9?$AAZ?$AAA?$AA?$AA@ 0000000180074538     libucrt:lcidtoname_downlevel.obj
 0002:00004548       ??_C@_1M@LGPJHNJH@?$AAz?$AAu?$AA?9?$AAZ?$AAA?$AA?$AA@ 0000000180074548     libucrt:lcidtoname_downlevel.obj
 0002:00004558       ??_C@_1M@HOKAOIO@?$AAa?$AAf?$AA?9?$AAZ?$AAA?$AA?$AA@ 0000000180074558     libucrt:lcidtoname_downlevel.obj
 0002:00004568       ??_C@_1M@DPCLHLIE@?$AAk?$AAa?$AA?9?$AAG?$AAE?$AA?$AA@ 0000000180074568     libucrt:lcidtoname_downlevel.obj
 0002:00004578       ??_C@_1M@BLKMHJBI@?$AAf?$AAo?$AA?9?$AAF?$AAO?$AA?$AA@ 0000000180074578     libucrt:lcidtoname_downlevel.obj
 0002:00004588       ??_C@_1M@LGGJAPPB@?$AAh?$AAi?$AA?9?$AAI?$AAN?$AA?$AA@ 0000000180074588     libucrt:lcidtoname_downlevel.obj
 0002:00004598       ??_C@_1M@FIKPIHFE@?$AAm?$AAt?$AA?9?$AAM?$AAT?$AA?$AA@ 0000000180074598     libucrt:lcidtoname_downlevel.obj
 0002:000045a8       ??_C@_1M@HEGGPBFA@?$AAs?$AAe?$AA?9?$AAN?$AAO?$AA?$AA@ 00000001800745a8     libucrt:lcidtoname_downlevel.obj
 0002:000045b8       ??_C@_1M@EIBJEEPA@?$AAm?$AAs?$AA?9?$AAM?$AAY?$AA?$AA@ 00000001800745b8     libucrt:lcidtoname_downlevel.obj
 0002:000045c8       ??_C@_1M@FHLBGMPP@?$AAk?$AAk?$AA?9?$AAK?$AAZ?$AA?$AA@ 00000001800745c8     libucrt:lcidtoname_downlevel.obj
 0002:000045d8       ??_C@_1M@NGJJLCGI@?$AAk?$AAy?$AA?9?$AAK?$AAG?$AA?$AA@ 00000001800745d8     libucrt:lcidtoname_downlevel.obj
 0002:000045e8       ??_C@_1M@GIENNBFC@?$AAs?$AAw?$AA?9?$AAK?$AAE?$AA?$AA@ 00000001800745e8     libucrt:lcidtoname_downlevel.obj
 0002:000045f8       ??_C@_1BG@NDGMJIMJ@?$AAu?$AAz?$AA?9?$AAU?$AAZ?$AA?9?$AAL?$AAa?$AAt?$AAn?$AA?$AA@ 00000001800745f8     libucrt:lcidtoname_downlevel.obj
 0002:00004610       ??_C@_1M@IDCCIHBC@?$AAt?$AAt?$AA?9?$AAR?$AAU?$AA?$AA@ 0000000180074610     libucrt:lcidtoname_downlevel.obj
 0002:00004620       ??_C@_1M@LOICPMOJ@?$AAb?$AAn?$AA?9?$AAI?$AAN?$AA?$AA@ 0000000180074620     libucrt:lcidtoname_downlevel.obj
 0002:00004630       ??_C@_1M@KPKKNEAH@?$AAp?$AAa?$AA?9?$AAI?$AAN?$AA?$AA@ 0000000180074630     libucrt:lcidtoname_downlevel.obj
 0002:00004640       ??_C@_1M@PJGPPBOG@?$AAg?$AAu?$AA?9?$AAI?$AAN?$AA?$AA@ 0000000180074640     libucrt:lcidtoname_downlevel.obj
 0002:00004650       ??_C@_1M@KMKMOPHI@?$AAt?$AAa?$AA?9?$AAI?$AAN?$AA?$AA@ 0000000180074650     libucrt:lcidtoname_downlevel.obj
 0002:00004660       ??_C@_1M@KFEHEPAC@?$AAt?$AAe?$AA?9?$AAI?$AAN?$AA?$AA@ 0000000180074660     libucrt:lcidtoname_downlevel.obj
 0002:00004670       ??_C@_1M@CDCLMGHI@?$AAk?$AAn?$AA?9?$AAI?$AAN?$AA?$AA@ 0000000180074670     libucrt:lcidtoname_downlevel.obj
 0002:00004680       ??_C@_1M@MIODLDKF@?$AAm?$AAl?$AA?9?$AAI?$AAN?$AA?$AA@ 0000000180074680     libucrt:lcidtoname_downlevel.obj
 0002:00004690       ??_C@_1M@PBIEACPO@?$AAm?$AAr?$AA?9?$AAI?$AAN?$AA?$AA@ 0000000180074690     libucrt:lcidtoname_downlevel.obj
 0002:000046a0       ??_C@_1M@NIDEAGPH@?$AAs?$AAa?$AA?9?$AAI?$AAN?$AA?$AA@ 00000001800746a0     libucrt:lcidtoname_downlevel.obj
 0002:000046b0       ??_C@_1M@FHIHCBIO@?$AAm?$AAn?$AA?9?$AAM?$AAN?$AA?$AA@ 00000001800746b0     libucrt:lcidtoname_downlevel.obj
 0002:000046c0       ??_C@_1M@JAIJPENP@?$AAc?$AAy?$AA?9?$AAG?$AAB?$AA?$AA@ 00000001800746c0     libucrt:lcidtoname_downlevel.obj
 0002:000046d0       ??_C@_1M@PHGFBEPN@?$AAg?$AAl?$AA?9?$AAE?$AAS?$AA?$AA@ 00000001800746d0     libucrt:lcidtoname_downlevel.obj
 0002:000046e0       ??_C@_1O@KPIPDNCP@?$AAk?$AAo?$AAk?$AA?9?$AAI?$AAN?$AA?$AA@ 00000001800746e0     libucrt:lcidtoname_downlevel.obj
 0002:000046f0       ??_C@_1O@KNHJLDJA@?$AAs?$AAy?$AAr?$AA?9?$AAS?$AAY?$AA?$AA@ 00000001800746f0     libucrt:lcidtoname_downlevel.obj
 0002:00004700       ??_C@_1O@MKEKBLAH@?$AAd?$AAi?$AAv?$AA?9?$AAM?$AAV?$AA?$AA@ 0000000180074700     libucrt:lcidtoname_downlevel.obj
 0002:00004710       ??_C@_1O@OHDCKDDF@?$AAq?$AAu?$AAz?$AA?9?$AAB?$AAO?$AA?$AA@ 0000000180074710     libucrt:lcidtoname_downlevel.obj
 0002:00004720       ??_C@_1M@LEPJNLFD@?$AAn?$AAs?$AA?9?$AAZ?$AAA?$AA?$AA@ 0000000180074720     libucrt:lcidtoname_downlevel.obj
 0002:00004730       ??_C@_1M@OMLEIIJB@?$AAm?$AAi?$AA?9?$AAN?$AAZ?$AA?$AA@ 0000000180074730     libucrt:lcidtoname_downlevel.obj
 0002:00004740       ??_C@_1M@PMPEAILG@?$AAa?$AAr?$AA?9?$AAI?$AAQ?$AA?$AA@ 0000000180074740     libucrt:lcidtoname_downlevel.obj
 0002:00004750       ??_C@_1M@CNKPNOEE@?$AAd?$AAe?$AA?9?$AAC?$AAH?$AA?$AA@ 0000000180074750     libucrt:lcidtoname_downlevel.obj
 0002:00004760       ??_C@_1M@LKMGMLKO@?$AAe?$AAn?$AA?9?$AAG?$AAB?$AA?$AA@ 0000000180074760     libucrt:lcidtoname_downlevel.obj
 0002:00004770       ??_C@_1M@PGKJFFGL@?$AAe?$AAs?$AA?9?$AAM?$AAX?$AA?$AA@ 0000000180074770     libucrt:lcidtoname_downlevel.obj
 0002:00004780       ??_C@_1M@DNNANBDC@?$AAf?$AAr?$AA?9?$AAB?$AAE?$AA?$AA@ 0000000180074780     libucrt:lcidtoname_downlevel.obj
 0002:00004790       ??_C@_1M@HLGMDFHM@?$AAi?$AAt?$AA?9?$AAC?$AAH?$AA?$AA@ 0000000180074790     libucrt:lcidtoname_downlevel.obj
 0002:000047a0       ??_C@_1M@CLLBGJH@?$AAn?$AAl?$AA?9?$AAB?$AAE?$AA?$AA@ 00000001800747a0     libucrt:lcidtoname_downlevel.obj
 0002:000047b0       ??_C@_1M@BODBOGLF@?$AAn?$AAn?$AA?9?$AAN?$AAO?$AA?$AA@ 00000001800747b0     libucrt:lcidtoname_downlevel.obj
 0002:000047c0       ??_C@_1M@HFFAHKAD@?$AAp?$AAt?$AA?9?$AAP?$AAT?$AA?$AA@ 00000001800747c0     libucrt:lcidtoname_downlevel.obj
 0002:000047d0       ??_C@_1BG@LNOAKHIE@?$AAs?$AAr?$AA?9?$AAS?$AAP?$AA?9?$AAL?$AAa?$AAt?$AAn?$AA?$AA@ 00000001800747d0     libucrt:lcidtoname_downlevel.obj
 0002:000047e8       ??_C@_1M@HBMHBGAK@?$AAs?$AAv?$AA?9?$AAF?$AAI?$AA?$AA@ 00000001800747e8     libucrt:lcidtoname_downlevel.obj
 0002:000047f8       ??_C@_1BG@DGCJGJBE@?$AAa?$AAz?$AA?9?$AAA?$AAZ?$AA?9?$AAC?$AAy?$AAr?$AAl?$AA?$AA@ 00000001800747f8     libucrt:lcidtoname_downlevel.obj
 0002:00004810       ??_C@_1M@KEJDAAHB@?$AAs?$AAe?$AA?9?$AAS?$AAE?$AA?$AA@ 0000000180074810     libucrt:lcidtoname_downlevel.obj
 0002:00004820       ??_C@_1M@HEIBJJAD@?$AAm?$AAs?$AA?9?$AAB?$AAN?$AA?$AA@ 0000000180074820     libucrt:lcidtoname_downlevel.obj
 0002:00004830       ??_C@_1BG@PBGJMCEM@?$AAu?$AAz?$AA?9?$AAU?$AAZ?$AA?9?$AAC?$AAy?$AAr?$AAl?$AA?$AA@ 0000000180074830     libucrt:lcidtoname_downlevel.obj
 0002:00004848       ??_C@_1O@LAOBCMDF@?$AAq?$AAu?$AAz?$AA?9?$AAE?$AAC?$AA?$AA@ 0000000180074848     libucrt:lcidtoname_downlevel.obj
 0002:00004858       ??_C@_1M@POEEMAIO@?$AAa?$AAr?$AA?9?$AAE?$AAG?$AA?$AA@ 0000000180074858     libucrt:lcidtoname_downlevel.obj
 0002:00004868       ??_C@_1M@EFAKDEDL@?$AAz?$AAh?$AA?9?$AAH?$AAK?$AA?$AA@ 0000000180074868     libucrt:lcidtoname_downlevel.obj
 0002:00004878       ??_C@_1M@HKKIJHGI@?$AAd?$AAe?$AA?9?$AAA?$AAT?$AA?$AA@ 0000000180074878     libucrt:lcidtoname_downlevel.obj
 0002:00004888       ??_C@_1M@KBFBEHJF@?$AAe?$AAn?$AA?9?$AAA?$AAU?$AA?$AA@ 0000000180074888     libucrt:lcidtoname_downlevel.obj
 0002:00004898       ??_C@_1M@MNPLFAAH@?$AAe?$AAs?$AA?9?$AAE?$AAS?$AA?$AA@ 0000000180074898     libucrt:lcidtoname_downlevel.obj
 0002:000048a8       ??_C@_1M@HJOOJFMA@?$AAf?$AAr?$AA?9?$AAC?$AAA?$AA?$AA@ 00000001800748a8     libucrt:lcidtoname_downlevel.obj
 0002:000048b8       ??_C@_1BG@JPOFPNAB@?$AAs?$AAr?$AA?9?$AAS?$AAP?$AA?9?$AAC?$AAy?$AAr?$AAl?$AA?$AA@ 00000001800748b8     libucrt:lcidtoname_downlevel.obj
 0002:000048d0       ??_C@_1M@LNFOCMOB@?$AAs?$AAe?$AA?9?$AAF?$AAI?$AA?$AA@ 00000001800748d0     libucrt:lcidtoname_downlevel.obj
 0002:000048e0       ??_C@_1O@MGJBOAMB@?$AAq?$AAu?$AAz?$AA?9?$AAP?$AAE?$AA?$AA@ 00000001800748e0     libucrt:lcidtoname_downlevel.obj
 0002:000048f0       ??_C@_1M@GJINLBOK@?$AAa?$AAr?$AA?9?$AAL?$AAY?$AA?$AA@ 00000001800748f0     libucrt:lcidtoname_downlevel.obj
 0002:00004900       ??_C@_1M@GGMNHJNL@?$AAz?$AAh?$AA?9?$AAS?$AAG?$AA?$AA@ 0000000180074900     libucrt:lcidtoname_downlevel.obj
 0002:00004910       ??_C@_1M@HOIKODND@?$AAd?$AAe?$AA?9?$AAL?$AAU?$AA?$AA@ 0000000180074910     libucrt:lcidtoname_downlevel.obj
 0002:00004920       ??_C@_1M@DDOCCGFG@?$AAe?$AAn?$AA?9?$AAC?$AAA?$AA?$AA@ 0000000180074920     libucrt:lcidtoname_downlevel.obj
 0002:00004930       ??_C@_1M@BNOEMJLF@?$AAe?$AAs?$AA?9?$AAG?$AAT?$AA?$AA@ 0000000180074930     libucrt:lcidtoname_downlevel.obj
 0002:00004940       ??_C@_1M@EOGNKEK@?$AAf?$AAr?$AA?9?$AAC?$AAH?$AA?$AA@ 0000000180074940     libucrt:lcidtoname_downlevel.obj
 0002:00004950       ??_C@_1M@FLIDJFHL@?$AAh?$AAr?$AA?9?$AAB?$AAA?$AA?$AA@ 0000000180074950     libucrt:lcidtoname_downlevel.obj
 0002:00004960       ??_C@_1O@FMCELNAJ@?$AAs?$AAm?$AAj?$AA?9?$AAN?$AAO?$AA?$AA@ 0000000180074960     libucrt:lcidtoname_downlevel.obj
 0002:00004970       ??_C@_1M@JHGLJMGJ@?$AAa?$AAr?$AA?9?$AAD?$AAZ?$AA?$AA@ 0000000180074970     libucrt:lcidtoname_downlevel.obj
 0002:00004980       ??_C@_1M@JKKFDCNP@?$AAz?$AAh?$AA?9?$AAM?$AAO?$AA?$AA@ 0000000180074980     libucrt:lcidtoname_downlevel.obj
 0002:00004990       ??_C@_1M@GEEFALPE@?$AAd?$AAe?$AA?9?$AAL?$AAI?$AA?$AA@ 0000000180074990     libucrt:lcidtoname_downlevel.obj
 0002:000049a0       ??_C@_1M@IGEOFBG@?$AAe?$AAn?$AA?9?$AAN?$AAZ?$AA?$AA@ 00000001800749a0     libucrt:lcidtoname_downlevel.obj
 0002:000049b0       ??_C@_1M@KDBONEHP@?$AAe?$AAs?$AA?9?$AAC?$AAR?$AA?$AA@ 00000001800749b0     libucrt:lcidtoname_downlevel.obj
 0002:000049c0       ??_C@_1M@FHMDOHNN@?$AAf?$AAr?$AA?9?$AAL?$AAU?$AA?$AA@ 00000001800749c0     libucrt:lcidtoname_downlevel.obj
 0002:000049d0       ??_C@_1BG@NFKKMAFG@?$AAb?$AAs?$AA?9?$AAB?$AAA?$AA?9?$AAL?$AAa?$AAt?$AAn?$AA?$AA@ 00000001800749d0     libucrt:lcidtoname_downlevel.obj
 0002:000049e8       ??_C@_1O@IMNBEMCI@?$AAs?$AAm?$AAj?$AA?9?$AAS?$AAE?$AA?$AA@ 00000001800749e8     libucrt:lcidtoname_downlevel.obj
 0002:000049f8       ??_C@_1M@DHHMBNDP@?$AAa?$AAr?$AA?9?$AAM?$AAA?$AA?$AA@ 00000001800749f8     libucrt:lcidtoname_downlevel.obj
 0002:00004a08       ??_C@_1M@BNBLJCGH@?$AAe?$AAn?$AA?9?$AAI?$AAE?$AA?$AA@ 0000000180074a08     libucrt:lcidtoname_downlevel.obj
 0002:00004a18       ??_C@_1M@GEPAFMDL@?$AAe?$AAs?$AA?9?$AAP?$AAA?$AA?$AA@ 0000000180074a18     libucrt:lcidtoname_downlevel.obj
 0002:00004a28       ??_C@_1M@OJONDMDL@?$AAf?$AAr?$AA?9?$AAM?$AAC?$AA?$AA@ 0000000180074a28     libucrt:lcidtoname_downlevel.obj
 0002:00004a38       ??_C@_1BG@OBCNFJB@?$AAs?$AAr?$AA?9?$AAB?$AAA?$AA?9?$AAL?$AAa?$AAt?$AAn?$AA?$AA@ 0000000180074a38     libucrt:lcidtoname_downlevel.obj
 0002:00004a50       ??_C@_1O@KEMEEGPO@?$AAs?$AAm?$AAa?$AA?9?$AAN?$AAO?$AA?$AA@ 0000000180074a50     libucrt:lcidtoname_downlevel.obj
 0002:00004a60       ??_C@_1M@ELMGFODK@?$AAa?$AAr?$AA?9?$AAT?$AAN?$AA?$AA@ 0000000180074a60     libucrt:lcidtoname_downlevel.obj
 0002:00004a70       ??_C@_1M@BHDLHFAF@?$AAe?$AAn?$AA?9?$AAZ?$AAA?$AA?$AA@ 0000000180074a70     libucrt:lcidtoname_downlevel.obj
 0002:00004a80       ??_C@_1M@BMGIGLIF@?$AAe?$AAs?$AA?9?$AAD?$AAO?$AA?$AA@ 0000000180074a80     libucrt:lcidtoname_downlevel.obj
 0002:00004a90       ??_C@_1BG@CMBHIPBE@?$AAs?$AAr?$AA?9?$AAB?$AAA?$AA?9?$AAC?$AAy?$AAr?$AAl?$AA?$AA@ 0000000180074a90     libucrt:lcidtoname_downlevel.obj
 0002:00004aa8       ??_C@_1O@HEDBLHNP@?$AAs?$AAm?$AAa?$AA?9?$AAS?$AAE?$AA?$AA@ 0000000180074aa8     libucrt:lcidtoname_downlevel.obj
 0002:00004ab8       ??_C@_1M@DAGCADIM@?$AAa?$AAr?$AA?9?$AAO?$AAM?$AA?$AA@ 0000000180074ab8     libucrt:lcidtoname_downlevel.obj
 0002:00004ac8       ??_C@_1M@FODLMICG@?$AAe?$AAn?$AA?9?$AAJ?$AAM?$AA?$AA@ 0000000180074ac8     libucrt:lcidtoname_downlevel.obj
 0002:00004ad8       ??_C@_1M@DNMLCIHB@?$AAe?$AAs?$AA?9?$AAV?$AAE?$AA?$AA@ 0000000180074ad8     libucrt:lcidtoname_downlevel.obj
 0002:00004ae8       ??_C@_1O@EOKHMKJK@?$AAs?$AAm?$AAs?$AA?9?$AAF?$AAI?$AA?$AA@ 0000000180074ae8     libucrt:lcidtoname_downlevel.obj
 0002:00004af8       ??_C@_1M@CAFJMKOF@?$AAa?$AAr?$AA?9?$AAY?$AAE?$AA?$AA@ 0000000180074af8     libucrt:lcidtoname_downlevel.obj
 0002:00004b08       ??_C@_1M@CBFHIJLI@?$AAe?$AAn?$AA?9?$AAC?$AAB?$AA?$AA@ 0000000180074b08     libucrt:lcidtoname_downlevel.obj
 0002:00004b18       ??_C@_1M@BGNFLDN@?$AAe?$AAs?$AA?9?$AAC?$AAO?$AA?$AA@ 0000000180074b18     libucrt:lcidtoname_downlevel.obj
 0002:00004b28       ??_C@_1O@JMPHMAMC@?$AAs?$AAm?$AAn?$AA?9?$AAF?$AAI?$AA?$AA@ 0000000180074b28     libucrt:lcidtoname_downlevel.obj
 0002:00004b38       ??_C@_1M@JLANABKE@?$AAa?$AAr?$AA?9?$AAS?$AAY?$AA?$AA@ 0000000180074b38     libucrt:lcidtoname_downlevel.obj
 0002:00004b48       ??_C@_1M@HPKGCFGN@?$AAe?$AAn?$AA?9?$AAB?$AAZ?$AA?$AA@ 0000000180074b48     libucrt:lcidtoname_downlevel.obj
 0002:00004b58       ??_C@_1M@OLJCMLGM@?$AAe?$AAs?$AA?9?$AAP?$AAE?$AA?$AA@ 0000000180074b58     libucrt:lcidtoname_downlevel.obj
 0002:00004b68       ??_C@_1M@MKKGFKLE@?$AAa?$AAr?$AA?9?$AAJ?$AAO?$AA?$AA@ 0000000180074b68     libucrt:lcidtoname_downlevel.obj
 0002:00004b78       ??_C@_1M@EKPGLDNI@?$AAe?$AAn?$AA?9?$AAT?$AAT?$AA?$AA@ 0000000180074b78     libucrt:lcidtoname_downlevel.obj
 0002:00004b88       ??_C@_1M@OONGHFHE@?$AAe?$AAs?$AA?9?$AAA?$AAR?$AA?$AA@ 0000000180074b88     libucrt:lcidtoname_downlevel.obj
 0002:00004b98       ??_C@_1M@OOJFGBHE@?$AAa?$AAr?$AA?9?$AAL?$AAB?$AA?$AA@ 0000000180074b98     libucrt:lcidtoname_downlevel.obj
 0002:00004ba8       ??_C@_1M@GCEJHNEG@?$AAe?$AAn?$AA?9?$AAZ?$AAW?$AA?$AA@ 0000000180074ba8     libucrt:lcidtoname_downlevel.obj
 0002:00004bb8       ??_C@_1M@JNOCAHJI@?$AAe?$AAs?$AA?9?$AAE?$AAC?$AA?$AA@ 0000000180074bb8     libucrt:lcidtoname_downlevel.obj
 0002:00004bc8       ??_C@_1M@JEFHPGGB@?$AAa?$AAr?$AA?9?$AAK?$AAW?$AA?$AA@ 0000000180074bc8     libucrt:lcidtoname_downlevel.obj
 0002:00004bd8       ??_C@_1M@MLKIBJOJ@?$AAe?$AAn?$AA?9?$AAP?$AAH?$AA?$AA@ 0000000180074bd8     libucrt:lcidtoname_downlevel.obj
 0002:00004be8       ??_C@_1M@BDNIPEND@?$AAe?$AAs?$AA?9?$AAC?$AAL?$AA?$AA@ 0000000180074be8     libucrt:lcidtoname_downlevel.obj
 0002:00004bf8       ??_C@_1M@MPNMEKBD@?$AAa?$AAr?$AA?9?$AAA?$AAE?$AA?$AA@ 0000000180074bf8     libucrt:lcidtoname_downlevel.obj
 0002:00004c08       ??_C@_1M@KBJALCPI@?$AAe?$AAs?$AA?9?$AAU?$AAY?$AA?$AA@ 0000000180074c08     libucrt:lcidtoname_downlevel.obj
 0002:00004c18       ??_C@_1M@LLCCOAGA@?$AAa?$AAr?$AA?9?$AAB?$AAH?$AA?$AA@ 0000000180074c18     libucrt:lcidtoname_downlevel.obj
 0002:00004c28       ??_C@_1M@PBFNCDEL@?$AAe?$AAs?$AA?9?$AAP?$AAY?$AA?$AA@ 0000000180074c28     libucrt:lcidtoname_downlevel.obj
 0002:00004c38       ??_C@_1M@EDGINPNP@?$AAa?$AAr?$AA?9?$AAQ?$AAA?$AA?$AA@ 0000000180074c38     libucrt:lcidtoname_downlevel.obj
 0002:00004c48       ??_C@_1M@MKDBIIJI@?$AAe?$AAs?$AA?9?$AAB?$AAO?$AA?$AA@ 0000000180074c48     libucrt:lcidtoname_downlevel.obj
 0002:00004c58       ??_C@_1M@CPKKEBLD@?$AAe?$AAs?$AA?9?$AAS?$AAV?$AA?$AA@ 0000000180074c58     libucrt:lcidtoname_downlevel.obj
 0002:00004c68       ??_C@_1M@NDBGMMJL@?$AAe?$AAs?$AA?9?$AAH?$AAN?$AA?$AA@ 0000000180074c68     libucrt:lcidtoname_downlevel.obj
 0002:00004c78       ??_C@_1M@JIJIBHDP@?$AAe?$AAs?$AA?9?$AAN?$AAI?$AA?$AA@ 0000000180074c78     libucrt:lcidtoname_downlevel.obj
 0002:00004c88       ??_C@_1M@CGFMKEEK@?$AAe?$AAs?$AA?9?$AAP?$AAR?$AA?$AA@ 0000000180074c88     libucrt:lcidtoname_downlevel.obj
 0002:00004c98       ??_C@_1O@ICJHKIIK@?$AAz?$AAh?$AA?9?$AAC?$AAH?$AAT?$AA?$AA@ 0000000180074c98     libucrt:lcidtoname_downlevel.obj
 0002:00004ca8       ??_C@_15CLNEJCE@?$AAs?$AAr?$AA?$AA@ 0000000180074ca8     libucrt:lcidtoname_downlevel.obj
 0002:00005af0       ??_C@_1M@KAHEKEIG@?$AAa?$AAf?$AA?9?$AAz?$AAa?$AA?$AA@ 0000000180075af0     libucrt:lcidtoname_downlevel.obj
 0002:00005b00       ??_C@_1M@GIECOABL@?$AAa?$AAr?$AA?9?$AAa?$AAe?$AA?$AA@ 0000000180075b00     libucrt:lcidtoname_downlevel.obj
 0002:00005b10       ??_C@_1M@BMLMEKGI@?$AAa?$AAr?$AA?9?$AAb?$AAh?$AA?$AA@ 0000000180075b10     libucrt:lcidtoname_downlevel.obj
 0002:00005b20       ??_C@_1M@DAPFDGGB@?$AAa?$AAr?$AA?9?$AAd?$AAz?$AA?$AA@ 0000000180075b20     libucrt:lcidtoname_downlevel.obj
 0002:00005b30       ??_C@_1M@FJNKGKIG@?$AAa?$AAr?$AA?9?$AAe?$AAg?$AA?$AA@ 0000000180075b30     libucrt:lcidtoname_downlevel.obj
 0002:00005b40       ??_C@_1M@FLGKKCLO@?$AAa?$AAr?$AA?9?$AAi?$AAq?$AA?$AA@ 0000000180075b40     libucrt:lcidtoname_downlevel.obj
 0002:00005b50       ??_C@_1M@GNDIPALM@?$AAa?$AAr?$AA?9?$AAj?$AAo?$AA?$AA@ 0000000180075b50     libucrt:lcidtoname_downlevel.obj
 0002:00005b60       ??_C@_1M@DDMJFMGJ@?$AAa?$AAr?$AA?9?$AAk?$AAw?$AA?$AA@ 0000000180075b60     libucrt:lcidtoname_downlevel.obj
 0002:00005b70       ??_C@_1M@EJALMLHM@?$AAa?$AAr?$AA?9?$AAl?$AAb?$AA?$AA@ 0000000180075b70     libucrt:lcidtoname_downlevel.obj
 0002:00005b80       ??_C@_1M@MOBDBLOC@?$AAa?$AAr?$AA?9?$AAl?$AAy?$AA?$AA@ 0000000180075b80     libucrt:lcidtoname_downlevel.obj
 0002:00005b90       ??_C@_1M@JAOCLHDH@?$AAa?$AAr?$AA?9?$AAm?$AAa?$AA?$AA@ 0000000180075b90     libucrt:lcidtoname_downlevel.obj
 0002:00005ba0       ??_C@_1M@JHPMKJIE@?$AAa?$AAr?$AA?9?$AAo?$AAm?$AA?$AA@ 0000000180075ba0     libucrt:lcidtoname_downlevel.obj
 0002:00005bb0       ??_C@_1M@OEPGHFNH@?$AAa?$AAr?$AA?9?$AAq?$AAa?$AA?$AA@ 0000000180075bb0     libucrt:lcidtoname_downlevel.obj
 0002:00005bc0       ??_C@_1M@KJDONENM@?$AAa?$AAr?$AA?9?$AAs?$AAa?$AA?$AA@ 0000000180075bc0     libucrt:lcidtoname_downlevel.obj
 0002:00005bd0       ??_C@_1M@DMJDKLKM@?$AAa?$AAr?$AA?9?$AAs?$AAy?$AA?$AA@ 0000000180075bd0     libucrt:lcidtoname_downlevel.obj
 0002:00005be0       ??_C@_1M@OMFIPEDC@?$AAa?$AAr?$AA?9?$AAt?$AAn?$AA?$AA@ 0000000180075be0     libucrt:lcidtoname_downlevel.obj
 0002:00005bf0       ??_C@_1M@IHMHGAON@?$AAa?$AAr?$AA?9?$AAy?$AAe?$AA?$AA@ 0000000180075bf0     libucrt:lcidtoname_downlevel.obj
 0002:00005c00       ??_C@_1BG@KDCPGJGB@?$AAa?$AAz?$AA?9?$AAa?$AAz?$AA?9?$AAc?$AAy?$AAr?$AAl?$AA?$AA@ 0000000180075c00     libucrt:lcidtoname_downlevel.obj
 0002:00005c18       ??_C@_1BG@IBCKDDOE@?$AAa?$AAz?$AA?9?$AAa?$AAz?$AA?9?$AAl?$AAa?$AAt?$AAn?$AA?$AA@ 0000000180075c18     libucrt:lcidtoname_downlevel.obj
 0002:00005c30       ??_C@_1M@EGPFDCPD@?$AAb?$AAe?$AA?9?$AAb?$AAy?$AA?$AA@ 0000000180075c30     libucrt:lcidtoname_downlevel.obj
 0002:00005c40       ??_C@_1M@PCMGMCGC@?$AAb?$AAg?$AA?9?$AAb?$AAg?$AA?$AA@ 0000000180075c40     libucrt:lcidtoname_downlevel.obj
 0002:00005c50       ??_C@_1M@BJBMFGOB@?$AAb?$AAn?$AA?9?$AAi?$AAn?$AA?$AA@ 0000000180075c50     libucrt:lcidtoname_downlevel.obj
 0002:00005c60       ??_C@_1BG@EAKMMACD@?$AAb?$AAs?$AA?9?$AAb?$AAa?$AA?9?$AAl?$AAa?$AAt?$AAn?$AA?$AA@ 0000000180075c60     libucrt:lcidtoname_downlevel.obj
 0002:00005c78       ??_C@_1M@KGADAODK@?$AAc?$AAa?$AA?9?$AAe?$AAs?$AA?$AA@ 0000000180075c78     libucrt:lcidtoname_downlevel.obj
 0002:00005c88       ??_C@_1M@COAJPDHI@?$AAc?$AAs?$AA?9?$AAc?$AAz?$AA?$AA@ 0000000180075c88     libucrt:lcidtoname_downlevel.obj
 0002:00005c98       ??_C@_1M@DHBHFONH@?$AAc?$AAy?$AA?9?$AAg?$AAb?$AA?$AA@ 0000000180075c98     libucrt:lcidtoname_downlevel.obj
 0002:00005ca8       ??_C@_1M@IMGKELGA@?$AAd?$AAa?$AA?9?$AAd?$AAk?$AA?$AA@ 0000000180075ca8     libucrt:lcidtoname_downlevel.obj
 0002:00005cb8       ??_C@_1M@NNDGDNGA@?$AAd?$AAe?$AA?9?$AAa?$AAt?$AA?$AA@ 0000000180075cb8     libucrt:lcidtoname_downlevel.obj
 0002:00005cc8       ??_C@_1M@IKDBHEEM@?$AAd?$AAe?$AA?9?$AAc?$AAh?$AA?$AA@ 0000000180075cc8     libucrt:lcidtoname_downlevel.obj
 0002:00005cd8       ??_C@_1M@GFFOJMCJ@?$AAd?$AAe?$AA?9?$AAd?$AAe?$AA?$AA@ 0000000180075cd8     libucrt:lcidtoname_downlevel.obj
 0002:00005ce8       ??_C@_1M@MDNLKBPM@?$AAd?$AAe?$AA?9?$AAl?$AAi?$AA?$AA@ 0000000180075ce8     libucrt:lcidtoname_downlevel.obj
 0002:00005cf8       ??_C@_1M@NJBEEJNL@?$AAd?$AAe?$AA?9?$AAl?$AAu?$AA?$AA@ 0000000180075cf8     libucrt:lcidtoname_downlevel.obj
 0002:00005d08       ??_C@_1O@GNNELBAP@?$AAd?$AAi?$AAv?$AA?9?$AAm?$AAv?$AA?$AA@ 0000000180075d08     libucrt:lcidtoname_downlevel.obj
 0002:00005d18       ??_C@_1M@EJLEOGAE@?$AAe?$AAl?$AA?9?$AAg?$AAr?$AA?$AA@ 0000000180075d18     libucrt:lcidtoname_downlevel.obj
 0002:00005d28       ??_C@_1M@GMPONJN@?$AAe?$AAn?$AA?9?$AAa?$AAu?$AA?$AA@ 0000000180075d28     libucrt:lcidtoname_downlevel.obj
 0002:00005d38       ??_C@_1M@NIDIIPGF@?$AAe?$AAn?$AA?9?$AAb?$AAz?$AA?$AA@ 0000000180075d38     libucrt:lcidtoname_downlevel.obj
 0002:00005d48       ??_C@_1M@JEHMIMFO@?$AAe?$AAn?$AA?9?$AAc?$AAa?$AA?$AA@ 0000000180075d48     libucrt:lcidtoname_downlevel.obj
 0002:00005d58       ??_C@_1M@IGMJCDLA@?$AAe?$AAn?$AA?9?$AAc?$AAb?$AA?$AA@ 0000000180075d58     libucrt:lcidtoname_downlevel.obj
 0002:00005d68       ??_C@_1M@BNFIGBKG@?$AAe?$AAn?$AA?9?$AAg?$AAb?$AA?$AA@ 0000000180075d68     libucrt:lcidtoname_downlevel.obj
 0002:00005d78       ??_C@_1M@LKIFDIGP@?$AAe?$AAn?$AA?9?$AAi?$AAe?$AA?$AA@ 0000000180075d78     libucrt:lcidtoname_downlevel.obj
 0002:00005d88       ??_C@_1M@PJKFGCCO@?$AAe?$AAn?$AA?9?$AAj?$AAm?$AA?$AA@ 0000000180075d88     libucrt:lcidtoname_downlevel.obj
 0002:00005d98       ??_C@_1M@KPPKEPBO@?$AAe?$AAn?$AA?9?$AAn?$AAz?$AA?$AA@ 0000000180075d98     libucrt:lcidtoname_downlevel.obj
 0002:00005da8       ??_C@_1M@GMDGLDOB@?$AAe?$AAn?$AA?9?$AAp?$AAh?$AA?$AA@ 0000000180075da8     libucrt:lcidtoname_downlevel.obj
 0002:00005db8       ??_C@_1M@ONGIBJNA@?$AAe?$AAn?$AA?9?$AAt?$AAt?$AA?$AA@ 0000000180075db8     libucrt:lcidtoname_downlevel.obj
 0002:00005dc8       ??_C@_1M@LLODPCMM@?$AAe?$AAn?$AA?9?$AAu?$AAs?$AA?$AA@ 0000000180075dc8     libucrt:lcidtoname_downlevel.obj
 0002:00005dd8       ??_C@_1M@LAKFNPAN@?$AAe?$AAn?$AA?9?$AAz?$AAa?$AA?$AA@ 0000000180075dd8     libucrt:lcidtoname_downlevel.obj
 0002:00005de8       ??_C@_1M@MFNHNHEO@?$AAe?$AAn?$AA?9?$AAz?$AAw?$AA?$AA@ 0000000180075de8     libucrt:lcidtoname_downlevel.obj
 0002:00005df8       ??_C@_1M@EJEINPHM@?$AAe?$AAs?$AA?9?$AAa?$AAr?$AA?$AA@ 0000000180075df8     libucrt:lcidtoname_downlevel.obj
 0002:00005e08       ??_C@_1M@GNKPCCJA@?$AAe?$AAs?$AA?9?$AAb?$AAo?$AA?$AA@ 0000000180075e08     libucrt:lcidtoname_downlevel.obj
 0002:00005e18       ??_C@_1M@LEEGFONL@?$AAe?$AAs?$AA?9?$AAc?$AAl?$AA?$AA@ 0000000180075e18     libucrt:lcidtoname_downlevel.obj
 0002:00005e28       ??_C@_1M@KGPDPBDF@?$AAe?$AAs?$AA?9?$AAc?$AAo?$AA?$AA@ 0000000180075e28     libucrt:lcidtoname_downlevel.obj
 0002:00005e38       ??_C@_1M@EIAHOHH@?$AAe?$AAs?$AA?9?$AAc?$AAr?$AA?$AA@ 0000000180075e38     libucrt:lcidtoname_downlevel.obj
 0002:00005e48       ??_C@_1M@LLPGMBIN@?$AAe?$AAs?$AA?9?$AAd?$AAo?$AA?$AA@ 0000000180075e48     libucrt:lcidtoname_downlevel.obj
 0002:00005e58       ??_C@_1M@DKHMKNJA@?$AAe?$AAs?$AA?9?$AAe?$AAc?$AA?$AA@ 0000000180075e58     libucrt:lcidtoname_downlevel.obj
 0002:00005e68       ??_C@_1M@GKGFPKAP@?$AAe?$AAs?$AA?9?$AAe?$AAs?$AA?$AA@ 0000000180075e68     libucrt:lcidtoname_downlevel.obj
 0002:00005e78       ??_C@_1M@LKHKGDLN@?$AAe?$AAs?$AA?9?$AAg?$AAt?$AA?$AA@ 0000000180075e78     libucrt:lcidtoname_downlevel.obj
 0002:00005e88       ??_C@_1M@HEIIGGJD@?$AAe?$AAs?$AA?9?$AAh?$AAn?$AA?$AA@ 0000000180075e88     libucrt:lcidtoname_downlevel.obj
 0002:00005e98       ??_C@_1M@FBDHPPGD@?$AAe?$AAs?$AA?9?$AAm?$AAx?$AA?$AA@ 0000000180075e98     libucrt:lcidtoname_downlevel.obj
 0002:00005ea8       ??_C@_1M@DPAGLNDH@?$AAe?$AAs?$AA?9?$AAn?$AAi?$AA?$AA@ 0000000180075ea8     libucrt:lcidtoname_downlevel.obj
 0002:00005eb8       ??_C@_1M@MDGOPGDD@?$AAe?$AAs?$AA?9?$AAp?$AAa?$AA?$AA@ 0000000180075eb8     libucrt:lcidtoname_downlevel.obj
 0002:00005ec8       ??_C@_1M@EMAMGBGE@?$AAe?$AAs?$AA?9?$AAp?$AAe?$AA?$AA@ 0000000180075ec8     libucrt:lcidtoname_downlevel.obj
 0002:00005ed8       ??_C@_1M@IBMCAOEC@?$AAe?$AAs?$AA?9?$AAp?$AAr?$AA?$AA@ 0000000180075ed8     libucrt:lcidtoname_downlevel.obj
 0002:00005ee8       ??_C@_1M@FGMDIJED@?$AAe?$AAs?$AA?9?$AAp?$AAy?$AA?$AA@ 0000000180075ee8     libucrt:lcidtoname_downlevel.obj
 0002:00005ef8       ??_C@_1M@IIDEOLLL@?$AAe?$AAs?$AA?9?$AAs?$AAv?$AA?$AA@ 0000000180075ef8     libucrt:lcidtoname_downlevel.obj
 0002:00005f08       ??_C@_1M@GAOBIPA@?$AAe?$AAs?$AA?9?$AAu?$AAy?$AA?$AA@ 0000000180075f08     libucrt:lcidtoname_downlevel.obj
 0002:00005f18       ??_C@_1M@JKFFICHJ@?$AAe?$AAs?$AA?9?$AAv?$AAe?$AA?$AA@ 0000000180075f18     libucrt:lcidtoname_downlevel.obj
 0002:00005f28       ??_C@_1M@PNMLOJDF@?$AAe?$AAt?$AA?9?$AAe?$AAe?$AA?$AA@ 0000000180075f28     libucrt:lcidtoname_downlevel.obj
 0002:00005f38       ??_C@_1M@GHHLIKEI@?$AAe?$AAu?$AA?9?$AAe?$AAs?$AA?$AA@ 0000000180075f38     libucrt:lcidtoname_downlevel.obj
 0002:00005f48       ??_C@_1M@PBNONODE@?$AAf?$AAa?$AA?9?$AAi?$AAr?$AA?$AA@ 0000000180075f48     libucrt:lcidtoname_downlevel.obj
 0002:00005f58       ??_C@_1M@JEEHPMIL@?$AAf?$AAi?$AA?9?$AAf?$AAi?$AA?$AA@ 0000000180075f58     libucrt:lcidtoname_downlevel.obj
 0002:00005f68       ??_C@_1M@LMDCNDBA@?$AAf?$AAo?$AA?9?$AAf?$AAo?$AA?$AA@ 0000000180075f68     libucrt:lcidtoname_downlevel.obj
 0002:00005f78       ??_C@_1M@JKEOHLDK@?$AAf?$AAr?$AA?9?$AAb?$AAe?$AA?$AA@ 0000000180075f78     libucrt:lcidtoname_downlevel.obj
 0002:00005f88       ??_C@_1M@NOHADPMI@?$AAf?$AAr?$AA?9?$AAc?$AAa?$AA?$AA@ 0000000180075f88     libucrt:lcidtoname_downlevel.obj
 0002:00005f98       ??_C@_1M@KDHIHAEC@?$AAf?$AAr?$AA?9?$AAc?$AAh?$AA?$AA@ 0000000180075f98     libucrt:lcidtoname_downlevel.obj
 0002:00005fa8       ??_C@_1M@MMBBFGAK@?$AAf?$AAr?$AA?9?$AAf?$AAr?$AA?$AA@ 0000000180075fa8     libucrt:lcidtoname_downlevel.obj
 0002:00005fb8       ??_C@_1M@PAFNENNF@?$AAf?$AAr?$AA?9?$AAl?$AAu?$AA?$AA@ 0000000180075fb8     libucrt:lcidtoname_downlevel.obj
 0002:00005fc8       ??_C@_1M@EOHDJGDD@?$AAf?$AAr?$AA?9?$AAm?$AAc?$AA?$AA@ 0000000180075fc8     libucrt:lcidtoname_downlevel.obj
 0002:00005fd8       ??_C@_1M@FAPLLOPF@?$AAg?$AAl?$AA?9?$AAe?$AAs?$AA?$AA@ 0000000180075fd8     libucrt:lcidtoname_downlevel.obj
 0002:00005fe8       ??_C@_1M@FOPBFLOO@?$AAg?$AAu?$AA?9?$AAi?$AAn?$AA?$AA@ 0000000180075fe8     libucrt:lcidtoname_downlevel.obj
 0002:00005ff8       ??_C@_1M@KBMCINPM@?$AAh?$AAe?$AA?9?$AAi?$AAl?$AA?$AA@ 0000000180075ff8     libucrt:lcidtoname_downlevel.obj
 0002:00006008       ??_C@_1M@BBPHKFPJ@?$AAh?$AAi?$AA?9?$AAi?$AAn?$AA?$AA@ 0000000180076008     libucrt:lcidtoname_downlevel.obj
 0002:00006018       ??_C@_1M@PMBNDPHD@?$AAh?$AAr?$AA?9?$AAb?$AAa?$AA?$AA@ 0000000180076018     libucrt:lcidtoname_downlevel.obj
 0002:00006028       ??_C@_1M@BPCKOEGE@?$AAh?$AAr?$AA?9?$AAh?$AAr?$AA?$AA@ 0000000180076028     libucrt:lcidtoname_downlevel.obj
 0002:00006038       ??_C@_1M@GACBMHKE@?$AAh?$AAu?$AA?9?$AAh?$AAu?$AA?$AA@ 0000000180076038     libucrt:lcidtoname_downlevel.obj
 0002:00006048       ??_C@_1M@MILPAJJC@?$AAh?$AAy?$AA?9?$AAa?$AAm?$AA?$AA@ 0000000180076048     libucrt:lcidtoname_downlevel.obj
 0002:00006058       ??_C@_1M@BABBICEC@?$AAi?$AAd?$AA?9?$AAi?$AAd?$AA?$AA@ 0000000180076058     libucrt:lcidtoname_downlevel.obj
 0002:00006068       ??_C@_1M@BIKNHHPF@?$AAi?$AAs?$AA?9?$AAi?$AAs?$AA?$AA@ 0000000180076068     libucrt:lcidtoname_downlevel.obj
 0002:00006078       ??_C@_1M@NMPCJPHE@?$AAi?$AAt?$AA?9?$AAc?$AAh?$AA?$AA@ 0000000180076078     libucrt:lcidtoname_downlevel.obj
 0002:00006088       ??_C@_1M@GHKGFEDF@?$AAi?$AAt?$AA?9?$AAi?$AAt?$AA?$AA@ 0000000180076088     libucrt:lcidtoname_downlevel.obj
 0002:00006098       ??_C@_1M@NIEJCJJA@?$AAj?$AAa?$AA?9?$AAj?$AAp?$AA?$AA@ 0000000180076098     libucrt:lcidtoname_downlevel.obj
 0002:000060a8       ??_C@_1M@JILFNBIM@?$AAk?$AAa?$AA?9?$AAg?$AAe?$AA?$AA@ 00000001800760a8     libucrt:lcidtoname_downlevel.obj
 0002:000060b8       ??_C@_1M@PACPMGPH@?$AAk?$AAk?$AA?9?$AAk?$AAz?$AA?$AA@ 00000001800760b8     libucrt:lcidtoname_downlevel.obj
 0002:000060c8       ??_C@_1M@IELFGMHA@?$AAk?$AAn?$AA?9?$AAi?$AAn?$AA?$AA@ 00000001800760c8     libucrt:lcidtoname_downlevel.obj
 0002:000060d8       ??_C@_1O@IBBJHCH@?$AAk?$AAo?$AAk?$AA?9?$AAi?$AAn?$AA?$AA@ 00000001800760d8     libucrt:lcidtoname_downlevel.obj
 0002:000060e8       ??_C@_1M@DMHAEOGC@?$AAk?$AAo?$AA?9?$AAk?$AAr?$AA?$AA@ 00000001800760e8     libucrt:lcidtoname_downlevel.obj
 0002:000060f8       ??_C@_1M@HBAHBIGA@?$AAk?$AAy?$AA?9?$AAk?$AAg?$AA?$AA@ 00000001800760f8     libucrt:lcidtoname_downlevel.obj
 0002:00006108       ??_C@_1M@KPMILCJG@?$AAl?$AAt?$AA?9?$AAl?$AAt?$AA?$AA@ 0000000180076108     libucrt:lcidtoname_downlevel.obj
 0002:00006118       ??_C@_1M@BDEKKCA@?$AAl?$AAv?$AA?9?$AAl?$AAv?$AA?$AA@ 0000000180076118     libucrt:lcidtoname_downlevel.obj
 0002:00006128       ??_C@_1M@ELCKCCJJ@?$AAm?$AAi?$AA?9?$AAn?$AAz?$AA?$AA@ 0000000180076128     libucrt:lcidtoname_downlevel.obj
 0002:00006138       ??_C@_1M@CBOOLAPA@?$AAm?$AAk?$AA?9?$AAm?$AAk?$AA?$AA@ 0000000180076138     libucrt:lcidtoname_downlevel.obj
 0002:00006148       ??_C@_1M@GPHNBJKN@?$AAm?$AAl?$AA?9?$AAi?$AAn?$AA?$AA@ 0000000180076148     libucrt:lcidtoname_downlevel.obj
 0002:00006158       ??_C@_1M@PABJILIG@?$AAm?$AAn?$AA?9?$AAm?$AAn?$AA?$AA@ 0000000180076158     libucrt:lcidtoname_downlevel.obj
 0002:00006168       ??_C@_1M@FGBKKIPG@?$AAm?$AAr?$AA?9?$AAi?$AAn?$AA?$AA@ 0000000180076168     libucrt:lcidtoname_downlevel.obj
 0002:00006178       ??_C@_1M@NDBPDDAL@?$AAm?$AAs?$AA?9?$AAb?$AAn?$AA?$AA@ 0000000180076178     libucrt:lcidtoname_downlevel.obj
 0002:00006188       ??_C@_1M@OPIHOOPI@?$AAm?$AAs?$AA?9?$AAm?$AAy?$AA?$AA@ 0000000180076188     libucrt:lcidtoname_downlevel.obj
 0002:00006198       ??_C@_1M@PPDBCNFM@?$AAm?$AAt?$AA?9?$AAm?$AAt?$AA?$AA@ 0000000180076198     libucrt:lcidtoname_downlevel.obj
 0002:000061a8       ??_C@_1M@KDJDKMDD@?$AAn?$AAb?$AA?9?$AAn?$AAo?$AA?$AA@ 00000001800761a8     libucrt:lcidtoname_downlevel.obj
 0002:000061b8       ??_C@_1M@KFCFLMJP@?$AAn?$AAl?$AA?9?$AAb?$AAe?$AA?$AA@ 00000001800761b8     libucrt:lcidtoname_downlevel.obj
 0002:000061c8       ??_C@_1M@KPOPDDGO@?$AAn?$AAl?$AA?9?$AAn?$AAl?$AA?$AA@ 00000001800761c8     libucrt:lcidtoname_downlevel.obj
 0002:000061d8       ??_C@_1M@LJKPEMLN@?$AAn?$AAn?$AA?9?$AAn?$AAo?$AA?$AA@ 00000001800761d8     libucrt:lcidtoname_downlevel.obj
 0002:000061e8       ??_C@_1M@BDGHHBFL@?$AAn?$AAs?$AA?9?$AAz?$AAa?$AA?$AA@ 00000001800761e8     libucrt:lcidtoname_downlevel.obj
 0002:000061f8       ??_C@_1M@IDEHOAP@?$AAp?$AAa?$AA?9?$AAi?$AAn?$AA?$AA@ 00000001800761f8     libucrt:lcidtoname_downlevel.obj
 0002:00006208       ??_C@_1M@HDBKGOGH@?$AAp?$AAl?$AA?9?$AAp?$AAl?$AA?$AA@ 0000000180076208     libucrt:lcidtoname_downlevel.obj
 0002:00006218       ??_C@_1M@LJLLCMEH@?$AAp?$AAt?$AA?9?$AAb?$AAr?$AA?$AA@ 0000000180076218     libucrt:lcidtoname_downlevel.obj
 0002:00006228       ??_C@_1M@NCMONAAL@?$AAp?$AAt?$AA?9?$AAp?$AAt?$AA?$AA@ 0000000180076228     libucrt:lcidtoname_downlevel.obj
 0002:00006238       ??_C@_1O@EAKMAJDN@?$AAq?$AAu?$AAz?$AA?9?$AAb?$AAo?$AA?$AA@ 0000000180076238     libucrt:lcidtoname_downlevel.obj
 0002:00006248       ??_C@_1O@BHHPIGDN@?$AAq?$AAu?$AAz?$AA?9?$AAe?$AAc?$AA?$AA@ 0000000180076248     libucrt:lcidtoname_downlevel.obj
 0002:00006258       ??_C@_1O@GBAPEKMJ@?$AAq?$AAu?$AAz?$AA?9?$AAp?$AAe?$AA?$AA@ 0000000180076258     libucrt:lcidtoname_downlevel.obj
 0002:00006268       ??_C@_1M@CLGLEFBO@?$AAr?$AAo?$AA?9?$AAr?$AAo?$AA?$AA@ 0000000180076268     libucrt:lcidtoname_downlevel.obj
 0002:00006278       ??_C@_1M@CEEDODME@?$AAr?$AAu?$AA?9?$AAr?$AAu?$AA?$AA@ 0000000180076278     libucrt:lcidtoname_downlevel.obj
 0002:00006288       ??_C@_1M@HPKKKMPP@?$AAs?$AAa?$AA?9?$AAi?$AAn?$AA?$AA@ 0000000180076288     libucrt:lcidtoname_downlevel.obj
 0002:00006298       ??_C@_1M@BKMAIGOJ@?$AAs?$AAe?$AA?9?$AAf?$AAi?$AA?$AA@ 0000000180076298     libucrt:lcidtoname_downlevel.obj
 0002:000062a8       ??_C@_1M@NDPIFLFI@?$AAs?$AAe?$AA?9?$AAn?$AAo?$AA?$AA@ 00000001800762a8     libucrt:lcidtoname_downlevel.obj
 0002:000062b8       ??_C@_1M@DANKKHJ@?$AAs?$AAe?$AA?9?$AAs?$AAe?$AA?$AA@ 00000001800762b8     libucrt:lcidtoname_downlevel.obj
 0002:000062c8       ??_C@_1M@PNBLONPJ@?$AAs?$AAk?$AA?9?$AAs?$AAk?$AA?$AA@ 00000001800762c8     libucrt:lcidtoname_downlevel.obj
 0002:000062d8       ??_C@_1M@LFMODOAL@?$AAs?$AAl?$AA?9?$AAs?$AAi?$AA?$AA@ 00000001800762d8     libucrt:lcidtoname_downlevel.obj
 0002:000062e8       ??_C@_1O@DFKOMPG@?$AAs?$AAm?$AAa?$AA?9?$AAn?$AAo?$AA?$AA@ 00000001800762e8     libucrt:lcidtoname_downlevel.obj
 0002:000062f8       ??_C@_1O@NDKPBNNH@?$AAs?$AAm?$AAa?$AA?9?$AAs?$AAe?$AA?$AA@ 00000001800762f8     libucrt:lcidtoname_downlevel.obj
 0002:00006308       ??_C@_1O@PLLKBHAB@?$AAs?$AAm?$AAj?$AA?9?$AAn?$AAo?$AA?$AA@ 0000000180076308     libucrt:lcidtoname_downlevel.obj
 0002:00006318       ??_C@_1O@CLEPOGCA@?$AAs?$AAm?$AAj?$AA?9?$AAs?$AAe?$AA?$AA@ 0000000180076318     libucrt:lcidtoname_downlevel.obj
 0002:00006328       ??_C@_1O@DLGJGKMK@?$AAs?$AAm?$AAn?$AA?9?$AAf?$AAi?$AA?$AA@ 0000000180076328     libucrt:lcidtoname_downlevel.obj
 0002:00006338       ??_C@_1O@OJDJGAJC@?$AAs?$AAm?$AAs?$AA?9?$AAf?$AAi?$AA?$AA@ 0000000180076338     libucrt:lcidtoname_downlevel.obj
 0002:00006348       ??_C@_1M@BOFOGHPB@?$AAs?$AAq?$AA?9?$AAa?$AAl?$AA?$AA@ 0000000180076348     libucrt:lcidtoname_downlevel.obj
 0002:00006358       ??_C@_1BG@LJBBIPGB@?$AAs?$AAr?$AA?9?$AAb?$AAa?$AA?9?$AAc?$AAy?$AAr?$AAl?$AA?$AA@ 0000000180076358     libucrt:lcidtoname_downlevel.obj
 0002:00006370       ??_C@_1BG@JLBENFOE@?$AAs?$AAr?$AA?9?$AAb?$AAa?$AA?9?$AAl?$AAa?$AAt?$AAn?$AA?$AA@ 0000000180076370     libucrt:lcidtoname_downlevel.obj
 0002:00006388       ??_C@_1BG@KODPNHE@?$AAs?$AAr?$AA?9?$AAs?$AAp?$AA?9?$AAc?$AAy?$AAr?$AAl?$AA?$AA@ 0000000180076388     libucrt:lcidtoname_downlevel.obj
 0002:000063a0       ??_C@_1BG@CIOGKHPB@?$AAs?$AAr?$AA?9?$AAs?$AAp?$AA?9?$AAl?$AAa?$AAt?$AAn?$AA?$AA@ 00000001800763a0     libucrt:lcidtoname_downlevel.obj
 0002:000063b8       ??_C@_1M@NGFJLMAC@?$AAs?$AAv?$AA?9?$AAf?$AAi?$AA?$AA@ 00000001800763b8     libucrt:lcidtoname_downlevel.obj
 0002:000063c8       ??_C@_1M@MPJEJAJC@?$AAs?$AAv?$AA?9?$AAs?$AAe?$AA?$AA@ 00000001800763c8     libucrt:lcidtoname_downlevel.obj
 0002:000063d8       ??_C@_1M@MPNDHLFK@?$AAs?$AAw?$AA?9?$AAk?$AAe?$AA?$AA@ 00000001800763d8     libucrt:lcidtoname_downlevel.obj
 0002:000063e8       ??_C@_1O@KOHBJJI@?$AAs?$AAy?$AAr?$AA?9?$AAs?$AAy?$AA?$AA@ 00000001800763e8     libucrt:lcidtoname_downlevel.obj
 0002:000063f8       ??_C@_1M@LDCEFHA@?$AAt?$AAa?$AA?9?$AAi?$AAn?$AA?$AA@ 00000001800763f8     libucrt:lcidtoname_downlevel.obj
 0002:00006408       ??_C@_1M@CNJOFAK@?$AAt?$AAe?$AA?9?$AAi?$AAn?$AA?$AA@ 0000000180076408     libucrt:lcidtoname_downlevel.obj
 0002:00006418       ??_C@_1M@GNAECACD@?$AAt?$AAh?$AA?9?$AAt?$AAh?$AA?$AA@ 0000000180076418     libucrt:lcidtoname_downlevel.obj
 0002:00006428       ??_C@_1M@CHBIHOJO@?$AAt?$AAn?$AA?9?$AAz?$AAa?$AA?$AA@ 0000000180076428     libucrt:lcidtoname_downlevel.obj
 0002:00006438       ??_C@_1M@GCCMIGPJ@?$AAt?$AAr?$AA?9?$AAt?$AAr?$AA?$AA@ 0000000180076438     libucrt:lcidtoname_downlevel.obj
 0002:00006448       ??_C@_1M@CELMCNBK@?$AAt?$AAt?$AA?9?$AAr?$AAu?$AA?$AA@ 0000000180076448     libucrt:lcidtoname_downlevel.obj
 0002:00006458       ??_C@_1M@KLMCELGA@?$AAu?$AAk?$AA?9?$AAu?$AAa?$AA?$AA@ 0000000180076458     libucrt:lcidtoname_downlevel.obj
 0002:00006468       ??_C@_1M@EPAJJAJF@?$AAu?$AAr?$AA?9?$AAp?$AAk?$AA?$AA@ 0000000180076468     libucrt:lcidtoname_downlevel.obj
 0002:00006478       ??_C@_1BG@GEGPMCDJ@?$AAu?$AAz?$AA?9?$AAu?$AAz?$AA?9?$AAc?$AAy?$AAr?$AAl?$AA?$AA@ 0000000180076478     libucrt:lcidtoname_downlevel.obj
 0002:00006490       ??_C@_1BG@EGGKJILM@?$AAu?$AAz?$AA?9?$AAu?$AAz?$AA?9?$AAl?$AAa?$AAt?$AAn?$AA?$AA@ 0000000180076490     libucrt:lcidtoname_downlevel.obj
 0002:000064a8       ??_C@_1M@GFOCLFF@?$AAv?$AAi?$AA?9?$AAv?$AAn?$AA?$AA@ 00000001800764a8     libucrt:lcidtoname_downlevel.obj
 0002:000064b8       ??_C@_1M@CPAMEDFI@?$AAx?$AAh?$AA?9?$AAz?$AAa?$AA?$AA@ 00000001800764b8     libucrt:lcidtoname_downlevel.obj
 0002:000064c8       ??_C@_1O@EBKIFIGN@?$AAz?$AAh?$AA?9?$AAc?$AAh?$AAs?$AA?$AA@ 00000001800764c8     libucrt:lcidtoname_downlevel.obj
 0002:000064d8       ??_C@_1O@NMHPGANE@?$AAz?$AAh?$AA?9?$AAc?$AAh?$AAt?$AA?$AA@ 00000001800764d8     libucrt:lcidtoname_downlevel.obj
 0002:000064e8       ??_C@_1M@LPINJOMC@?$AAz?$AAh?$AA?9?$AAc?$AAn?$AA?$AA@ 00000001800764e8     libucrt:lcidtoname_downlevel.obj
 0002:000064f8       ??_C@_1M@OCJEJODD@?$AAz?$AAh?$AA?9?$AAh?$AAk?$AA?$AA@ 00000001800764f8     libucrt:lcidtoname_downlevel.obj
 0002:00006508       ??_C@_1M@DNDLJINH@?$AAz?$AAh?$AA?9?$AAm?$AAo?$AA?$AA@ 0000000180076508     libucrt:lcidtoname_downlevel.obj
 0002:00006518       ??_C@_1M@MBFDNDND@?$AAz?$AAh?$AA?9?$AAs?$AAg?$AA?$AA@ 0000000180076518     libucrt:lcidtoname_downlevel.obj
 0002:00006528       ??_C@_1M@IMEPLEPE@?$AAz?$AAh?$AA?9?$AAt?$AAw?$AA?$AA@ 0000000180076528     libucrt:lcidtoname_downlevel.obj
 0002:00006538       ??_C@_1M@BBGHNHJP@?$AAz?$AAu?$AA?9?$AAz?$AAa?$AA?$AA@ 0000000180076538     libucrt:lcidtoname_downlevel.obj
 0002:000067a0       ??_C@_1BA@BALFACEM@?$AAC?$AAO?$AAN?$AAO?$AAU?$AAT?$AA$?$AA?$AA@ 00000001800767a0     libucrt:initcon.obj
 0002:000067c0       __log10_256_lead           00000001800767c0     libucrt:log10_256_lead_tail_table.obj
 0002:00006fd0       __log10_256_tail           0000000180076fd0     libucrt:log10_256_lead_tail_table.obj
 0002:000077e0       __log_F_inv_qword          00000001800777e0     libucrt:log_f_inv_qword_table.obj
 0002:00007ff0       ??_C@_06KDGOKGLH@log10f?$AA@ 0000000180077ff0     libucrt:log_special.obj
 0002:00007ff8       ??_C@_03MGHMBJCF@log?$AA@  0000000180077ff8     libucrt:log_special.obj
 0002:00007ffc       ??_C@_05HGHHAHAP@log10?$AA@ 0000000180077ffc     libucrt:log_special.obj
 0002:00008004       ??_C@_03KHJOGHMM@exp?$AA@  0000000180078004     libucrt:fpexcept.obj
 0002:00008008       ??_C@_03JGHBODFD@pow?$AA@  0000000180078008     libucrt:fpexcept.obj
 0002:0000800c       ??_C@_04EIAKFFMI@sqrt?$AA@ 000000018007800c     libucrt:fpexcept.obj
 0002:00008014       ??_C@_03BLEJJJBH@sin?$AA@  0000000180078014     libucrt:fpexcept.obj
 0002:00008018       ??_C@_03LALBNOCG@cos?$AA@  0000000180078018     libucrt:fpexcept.obj
 0002:0000801c       ??_C@_03IIINPABG@tan?$AA@  000000018007801c     libucrt:fpexcept.obj
 0002:00008020       ??_C@_1BK@DBDEIDLH@?$AAK?$AAE?$AAR?$AAN?$AAE?$AAL?$AA3?$AA2?$AA?4?$AAD?$AAL?$AAL?$AA?$AA@ 0000000180078020     DelayImp:delayhlp.obj
 0002:00008040       ??_C@_0BI@OMNLIJDB@AcquireSRWLockExclusive?$AA@ 0000000180078040     DelayImp:delayhlp.obj
 0002:00008058       ??_C@_0BI@HMIEPCNJ@ReleaseSRWLockExclusive?$AA@ 0000000180078058     DelayImp:delayhlp.obj
 0002:00008070       _load_config_used          0000000180078070     LIBCMT:loadcfg.obj
 0002:00008108       ??_C@_0CK@JCPCLECK@external?5memory?5allocation?5limit@ 0000000180078108     bindings.obj
 0002:00008138       ??_C@_0BD@ONMBCCFJ@?4?4?2src?2bindings?4cc?$AA@ 0000000180078138     bindings.obj
 0002:00008150       ??_C@_08OKHKOBIL@bindings?$AA@ 0000000180078150     bindings.obj
 0002:00008160       ??_7ExternalStringResourceBase@String@v8@@6B@ 0000000180078160     bindings.obj
 0002:00008170       ??_7ExternalOneByteStringResourceImpl@v8@@6B@ 0000000180078170     bindings.obj
 0002:00008190       ??_7ExternalStringResource@String@v8@@6B@ 0000000180078190     bindings.obj
 0002:00008190       ??_7ExternalOneByteStringResource@String@v8@@6B@ 0000000180078190     bindings.obj
 0002:000081b0       ??_7ExternalSourceStream@ScriptCompiler@v8@@6B@ 00000001800781b0     bindings.obj
 0002:000081d0       ??_7Allocator@ArrayBuffer@v8@@6B@ 00000001800781d0     bindings.obj
 0002:000081f0       ??_7Extension@v8@@6B@      00000001800781f0     bindings.obj
 0002:00008200       ??_7PersistentHandleVisitor@v8@@6B@ 0000000180078200     bindings.obj
 0002:00008200       ??_7ExternalResourceVisitor@v8@@6B@ 0000000180078200     bindings.obj
 0002:00008210       ??_C@_0N@HCFJOAIA@sizeof_short?$AA@ 0000000180078210     node_lame.obj
 0002:00008220       ??_C@_0L@HFOINIMP@sizeof_int?$AA@ 0000000180078220     node_lame.obj
 0002:00008230       ??_C@_0N@MKKCMIEB@sizeof_float?$AA@ 0000000180078230     node_lame.obj
 0002:00008240       ??_C@_0O@CCEAPNKO@sizeof_double?$AA@ 0000000180078240     node_lame.obj
 0002:00008250       ??_C@_07MNKINHL@vbr_off?$AA@ 0000000180078250     node_lame.obj
 0002:00008258       ??_C@_06LDDHCDBL@vbr_mt?$AA@ 0000000180078258     node_lame.obj
 0002:00008260       ??_C@_06ECDKJKAL@vbr_rh?$AA@ 0000000180078260     node_lame.obj
 0002:00008268       ??_C@_07MFKCIFMB@vbr_abr?$AA@ 0000000180078268     node_lame.obj
 0002:00008270       ??_C@_08PBAAFEEO@vbr_mtrh?$AA@ 0000000180078270     node_lame.obj
 0002:00008280       ??_C@_0M@LJBNEINO@vbr_default?$AA@ 0000000180078280     node_lame.obj
 0002:0000828c       ??_C@_06BHBGJFLL@STEREO?$AA@ 000000018007828c     node_lame.obj
 0002:00008298       ??_C@_0N@MOOFDCCC@JOINT_STEREO?$AA@ 0000000180078298     node_lame.obj
 0002:000082a8       ??_C@_04FHCMCPHB@MONO?$AA@ 00000001800782a8     node_lame.obj
 0002:000082b0       ??_C@_07EIOLJABF@NOT_SET?$AA@ 00000001800782b0     node_lame.obj
 0002:000082b8       ??_C@_06LGLKACIC@PAD_NO?$AA@ 00000001800782b8     node_lame.obj
 0002:000082c0       ??_C@_07FOJPGAI@PAD_ALL?$AA@ 00000001800782c0     node_lame.obj
 0002:000082c8       ??_C@_0L@LKMOMNLO@PAD_ADJUST?$AA@ 00000001800782c8     node_lame.obj
 0002:000082d8       ??_C@_0BB@LKKMFMHE@LAME_MAXALBUMART?$AA@ 00000001800782d8     node_lame.obj
 0002:000082f0       ??_C@_09IEPOEBGN@LAME_OKAY?$AA@ 00000001800782f0     node_lame.obj
 0002:00008300       ??_C@_0N@LFIDJMCA@LAME_NOERROR?$AA@ 0000000180078300     node_lame.obj
 0002:00008310       ??_C@_0BC@EPKINKOL@LAME_GENERICERROR?$AA@ 0000000180078310     node_lame.obj
 0002:00008328       ??_C@_0L@BHGGECCF@LAME_NOMEM?$AA@ 0000000180078328     node_lame.obj
 0002:00008338       ??_C@_0BA@CHMAOONN@LAME_BADBITRATE?$AA@ 0000000180078338     node_lame.obj
 0002:00008348       ??_C@_0BB@BLHOLEMP@LAME_BADSAMPFREQ?$AA@ 0000000180078348     node_lame.obj
 0002:00008360       ??_C@_0BD@GOOFOBGH@LAME_INTERNALERROR?$AA@ 0000000180078360     node_lame.obj
 0002:00008378       ??_C@_0BD@PJEEMHKK@PCM_TYPE_SHORT_INT?$AA@ 0000000180078378     node_lame.obj
 0002:00008390       ??_C@_0P@EMANICNI@PCM_TYPE_FLOAT?$AA@ 0000000180078390     node_lame.obj
 0002:000083a0       ??_C@_0BA@DOJBFNKG@PCM_TYPE_DOUBLE?$AA@ 00000001800783a0     node_lame.obj
 0002:000083b0       ??_C@_0BB@EIOJNDGB@get_lame_version?$AA@ 00000001800783b0     node_lame.obj
 0002:000083c8       ??_C@_0BE@DBDODLKK@get_lame_os_bitness?$AA@ 00000001800783c8     node_lame.obj
 0002:000083e0       ??_C@_0L@OPPDDNNG@lame_close?$AA@ 00000001800783e0     node_lame.obj
 0002:000083f0       ??_C@_0BD@GAOANCEM@lame_encode_buffer?$AA@ 00000001800783f0     node_lame.obj
 0002:00008408       ??_C@_0BI@PNBKFHNJ@lame_encode_flush_nogap?$AA@ 0000000180078408     node_lame.obj
 0002:00008420       ??_C@_0BD@DCKJDHKG@lame_get_id3v1_tag?$AA@ 0000000180078420     node_lame.obj
 0002:00008438       ??_C@_0BD@LEDNEFAI@lame_get_id3v2_tag?$AA@ 0000000180078438     node_lame.obj
 0002:00008450       ??_C@_0BB@PMHPDBB@lame_init_params?$AA@ 0000000180078450     node_lame.obj
 0002:00008468       ??_C@_0BC@GMKFNJB@lame_print_config?$AA@ 0000000180078468     node_lame.obj
 0002:00008480       ??_C@_0BF@PGPLHBLM@lame_print_internals?$AA@ 0000000180078480     node_lame.obj
 0002:00008498       ??_C@_09LAIAFDML@lame_init?$AA@ 0000000180078498     node_lame.obj
 0002:000084a8       ??_C@_0O@GNJFBBDG@lame_bitrates?$AA@ 00000001800784a8     node_lame.obj
 0002:000084b8       ??_C@_0BB@NLGFHPLJ@lame_samplerates?$AA@ 00000001800784b8     node_lame.obj
 0002:000084d0       ??_C@_0BF@KFDNKOEP@lame_get_num_samples?$AA@ 00000001800784d0     node_lame.obj
 0002:000084e8       ??_C@_0BF@JHCLNMFG@lame_set_num_samples?$AA@ 00000001800784e8     node_lame.obj
 0002:00008500       ??_C@_0BH@MCBKNEIL@lame_get_in_samplerate?$AA@ 0000000180078500     node_lame.obj
 0002:00008518       ??_C@_0BH@OHBBFPJF@lame_set_in_samplerate?$AA@ 0000000180078518     node_lame.obj
 0002:00008530       ??_C@_0BG@MCJNKMHC@lame_get_num_channels?$AA@ 0000000180078530     node_lame.obj
 0002:00008548       ??_C@_0BG@KGMEBCMA@lame_set_num_channels?$AA@ 0000000180078548     node_lame.obj
 0002:00008560       ??_C@_0P@HNOMGEHO@lame_get_scale?$AA@ 0000000180078560     node_lame.obj
 0002:00008570       ??_C@_0P@FDKJEFOM@lame_set_scale?$AA@ 0000000180078570     node_lame.obj
 0002:00008580       ??_C@_0BE@GCCEDMLK@lame_get_scale_left?$AA@ 0000000180078580     node_lame.obj
 0002:00008598       ??_C@_0BE@KMDKMGJG@lame_set_scale_left?$AA@ 0000000180078598     node_lame.obj
 0002:000085b0       ??_C@_0BF@DBCJHBMH@lame_get_scale_right?$AA@ 00000001800785b0     node_lame.obj
 0002:000085c8       ??_C@_0BF@DDPADNO@lame_set_scale_right?$AA@ 00000001800785c8     node_lame.obj
 0002:000085e0       ??_C@_0BI@GMMLIGEM@lame_get_out_samplerate?$AA@ 00000001800785e0     node_lame.obj
 0002:000085f8       ??_C@_0BI@JGOBLAKE@lame_set_out_samplerate?$AA@ 00000001800785f8     node_lame.obj
 0002:00008610       ??_C@_0BC@HAPPJFJK@lame_get_analysis?$AA@ 0000000180078610     node_lame.obj
 0002:00008628       ??_C@_0BC@EEBFJNG@lame_set_analysis?$AA@ 0000000180078628     node_lame.obj
 0002:00008640       ??_C@_0BG@HGJNFCBD@lame_get_bWriteVbrTag?$AA@ 0000000180078640     node_lame.obj
 0002:00008658       ??_C@_0BG@BCMEOMKB@lame_set_bWriteVbrTag?$AA@ 0000000180078658     node_lame.obj
 0002:00008670       ??_C@_0BB@FKJLJPNH@lame_get_quality?$AA@ 0000000180078670     node_lame.obj
 0002:00008688       ??_C@_0BB@FFIFEJFE@lame_set_quality?$AA@ 0000000180078688     node_lame.obj
 0002:000086a0       ??_C@_0O@JECNLFKB@lame_get_mode?$AA@ 00000001800786a0     node_lame.obj
 0002:000086b0       ??_C@_0O@GFABKGNM@lame_set_mode?$AA@ 00000001800786b0     node_lame.obj
 0002:000086c0       ??_C@_0P@PKNDPJLK@lame_get_brate?$AA@ 00000001800786c0     node_lame.obj
 0002:000086d0       ??_C@_0P@NEJGNICI@lame_set_brate?$AA@ 00000001800786d0     node_lame.obj
 0002:000086e0       ??_C@_0BL@CFKPDPDD@lame_get_compression_ratio?$AA@ 00000001800786e0     node_lame.obj
 0002:00008700       ??_C@_0BL@NAPJOGHC@lame_set_compression_ratio?$AA@ 0000000180078700     node_lame.obj
 0002:00008720       ??_C@_0BD@HNLLDLNN@lame_get_copyright?$AA@ 0000000180078720     node_lame.obj
 0002:00008738       ??_C@_0BD@CKFIIKK@lame_set_copyright?$AA@ 0000000180078738     node_lame.obj
 0002:00008750       ??_C@_0BC@MLNLJDCO@lame_get_original?$AA@ 0000000180078750     node_lame.obj
 0002:00008768       ??_C@_0BC@LPGFFPGC@lame_set_original?$AA@ 0000000180078768     node_lame.obj
 0002:00008780       ??_C@_0BK@MLPJODGE@lame_get_error_protection?$AA@ 0000000180078780     node_lame.obj
 0002:000087a0       ??_C@_0BK@JCOEPFDD@lame_set_error_protection?$AA@ 00000001800787a0     node_lame.obj
 0002:000087c0       ??_C@_0BD@JHMJEKMM@lame_get_extension?$AA@ 00000001800787c0     node_lame.obj
 0002:000087d8       ??_C@_0BD@OINHPJLL@lame_set_extension?$AA@ 00000001800787d8     node_lame.obj
 0002:000087f0       ??_C@_0BE@GGDHAMKH@lame_get_strict_ISO?$AA@ 00000001800787f0     node_lame.obj
 0002:00008808       ??_C@_0BE@KICJPGIL@lame_set_strict_ISO?$AA@ 0000000180078808     node_lame.obj
 0002:00008820       ??_C@_0BL@NNHELEDC@lame_get_disable_reservoir?$AA@ 0000000180078820     node_lame.obj
 0002:00008840       ??_C@_0BL@CICCGNHD@lame_set_disable_reservoir?$AA@ 0000000180078840     node_lame.obj
 0002:00008860       ??_C@_0BE@BGKALJID@lame_get_quant_comp?$AA@ 0000000180078860     node_lame.obj
 0002:00008878       ??_C@_0BE@NILOEDKP@lame_set_quant_comp?$AA@ 0000000180078878     node_lame.obj
 0002:00008890       ??_C@_0BK@FODJPHPA@lame_get_quant_comp_short?$AA@ 0000000180078890     node_lame.obj
 0002:000088b0       ??_C@_0BK@HCEOBKH@lame_set_quant_comp_short?$AA@ 00000001800788b0     node_lame.obj
 0002:000088d0       ??_C@_0BH@CLCPJKFP@lame_get_exp_nspsytune?$AA@ 00000001800788d0     node_lame.obj
 0002:000088e8       ??_C@_0BH@OCEBBEB@lame_set_exp_nspsytune?$AA@ 00000001800788e8     node_lame.obj
 0002:00008900       ??_C@_0N@OKPFILDI@lame_get_VBR?$AA@ 0000000180078900     node_lame.obj
 0002:00008910       ??_C@_0N@BCAELEOJ@lame_set_VBR?$AA@ 0000000180078910     node_lame.obj
 0002:00008920       ??_C@_0P@DMDBCNJM@lame_get_VBR_q?$AA@ 0000000180078920     node_lame.obj
 0002:00008930       ??_C@_0P@BCHEAMAO@lame_set_VBR_q?$AA@ 0000000180078930     node_lame.obj
 0002:00008940       ??_C@_0BF@PMACLNDI@lame_get_VBR_quality?$AA@ 0000000180078940     node_lame.obj
 0002:00008958       ??_C@_0BF@MOBEMPCB@lame_set_VBR_quality?$AA@ 0000000180078958     node_lame.obj
 0002:00008970       ??_C@_0BP@DBKKLIFJ@lame_get_VBR_mean_bitrate_kbps?$AA@ 0000000180078970     node_lame.obj
 0002:00008990       ??_C@_0BP@LBGMHFPP@lame_set_VBR_mean_bitrate_kbps?$AA@ 0000000180078990     node_lame.obj
 0002:000089b0       ??_C@_0BO@EJIKHEDA@lame_get_VBR_min_bitrate_kbps?$AA@ 00000001800789b0     node_lame.obj
 0002:000089d0       ??_C@_0BO@OKCABJKF@lame_set_VBR_min_bitrate_kbps?$AA@ 00000001800789d0     node_lame.obj
 0002:000089f0       ??_C@_0BO@FMABKAMC@lame_get_VBR_max_bitrate_kbps?$AA@ 00000001800789f0     node_lame.obj
 0002:00008a10       ??_C@_0BO@PPKLMNFH@lame_set_VBR_max_bitrate_kbps?$AA@ 0000000180078a10     node_lame.obj
 0002:00008a30       ??_C@_0BG@IOCBMFIM@lame_get_VBR_hard_min?$AA@ 0000000180078a30     node_lame.obj
 0002:00008a48       ??_C@_0BG@OKHIHLDO@lame_set_VBR_hard_min?$AA@ 0000000180078a48     node_lame.obj
 0002:00008a60       ??_C@_0BF@PCMIAIJK@lame_get_lowpassfreq?$AA@ 0000000180078a60     node_lame.obj
 0002:00008a78       ??_C@_0BF@MANOHKID@lame_set_lowpassfreq?$AA@ 0000000180078a78     node_lame.obj
 0002:00008a90       ??_C@_0BG@NMMBIBNO@lame_get_lowpasswidth?$AA@ 0000000180078a90     node_lame.obj
 0002:00008aa8       ??_C@_0BG@LIJIDPGM@lame_set_lowpasswidth?$AA@ 0000000180078aa8     node_lame.obj
 0002:00008ac0       ??_C@_0BG@GLIJGMA@lame_get_highpassfreq?$AA@ 0000000180078ac0     node_lame.obj
 0002:00008ad8       ??_C@_0BG@GCOBCIHC@lame_set_highpassfreq?$AA@ 0000000180078ad8     node_lame.obj
 0002:00008af0       ??_C@_0BH@FHILEJKK@lame_get_highpasswidth?$AA@ 0000000180078af0     node_lame.obj
 0002:00008b08       ??_C@_0BH@HCIAMCLE@lame_set_highpasswidth?$AA@ 0000000180078b08     node_lame.obj
 0002:00008b20       ??_C@_0N@NENCCFLL@raw_encoding?$AA@ 0000000180078b20     node_mpg123.obj
 0002:00008b30       ??_C@_0L@FCPFAJBH@sampleRate?$AA@ 0000000180078b30     node_mpg123.obj
 0002:00008b40       ??_C@_08PAMBCCJ@channels?$AA@ 0000000180078b40     node_mpg123.obj
 0002:00008b4c       ??_C@_06CPIODIKA@signed?$AA@ 0000000180078b4c     node_mpg123.obj
 0002:00008b54       ??_C@_05KNFBNCOH@float?$AA@ 0000000180078b54     node_mpg123.obj
 0002:00008b5c       ??_C@_04FAHEGBMA@ulaw?$AA@ 0000000180078b5c     node_mpg123.obj
 0002:00008b64       ??_C@_04MFBEFAIC@alaw?$AA@ 0000000180078b64     node_mpg123.obj
 0002:00008b70       ??_C@_08OMBIDMCD@bitDepth?$AA@ 0000000180078b70     node_mpg123.obj
 0002:00008b7c       ??_C@_03FJEPELFP@tag?$AA@  0000000180078b7c     node_mpg123.obj
 0002:00008b80       ??_C@_05PHLGJONK@title?$AA@ 0000000180078b80     node_mpg123.obj
 0002:00008b88       ??_C@_06FOCAFPGH@artist?$AA@ 0000000180078b88     node_mpg123.obj
 0002:00008b90       ??_C@_05MCBBJIDG@album?$AA@ 0000000180078b90     node_mpg123.obj
 0002:00008b98       ??_C@_04JFPLDHAO@year?$AA@ 0000000180078b98     node_mpg123.obj
 0002:00008ba0       ??_C@_07GJGNEJFD@comment?$AA@ 0000000180078ba0     node_mpg123.obj
 0002:00008ba8       ??_C@_0M@DPCBAKHG@trackNumber?$AA@ 0000000180078ba8     node_mpg123.obj
 0002:00008bb4       ??_C@_05JOBIDKGP@genre?$AA@ 0000000180078bb4     node_mpg123.obj
 0002:00008bbc       ??_C@_04IOHABJIC@lang?$AA@ 0000000180078bbc     node_mpg123.obj
 0002:00008bc4       ??_C@_02EGCJHIOB@id?$AA@   0000000180078bc4     node_mpg123.obj
 0002:00008bc8       ??_C@_0M@PPJNHBMP@description?$AA@ 0000000180078bc8     node_mpg123.obj
 0002:00008bd4       ??_C@_04CIMGMMMG@text?$AA@ 0000000180078bd4     node_mpg123.obj
 0002:00008be0       ??_C@_08PGBJEHDC@comments?$AA@ 0000000180078be0     node_mpg123.obj
 0002:00008bec       ??_C@_05HGDNILHM@texts?$AA@ 0000000180078bec     node_mpg123.obj
 0002:00008bf4       ??_C@_06NMAPGJFF@extras?$AA@ 0000000180078bf4     node_mpg123.obj
 0002:00008c00       ??_C@_0M@CNMBGGGH@MPG123_DONE?$AA@ 0000000180078c00     node_mpg123.obj
 0002:00008c10       ??_C@_0BC@LIIFGLEN@MPG123_NEW_FORMAT?$AA@ 0000000180078c10     node_mpg123.obj
 0002:00008c28       ??_C@_0BB@IAPDIHIA@MPG123_NEED_MORE?$AA@ 0000000180078c28     node_mpg123.obj
 0002:00008c40       ??_C@_0L@IPAKFFPL@MPG123_ERR?$AA@ 0000000180078c40     node_mpg123.obj
 0002:00008c50       ??_C@_09HMDJBIMK@MPG123_OK?$AA@ 0000000180078c50     node_mpg123.obj
 0002:00008c60       ??_C@_0BF@IAHLMKJA@MPG123_BAD_OUTFORMAT?$AA@ 0000000180078c60     node_mpg123.obj
 0002:00008c78       ??_C@_0BD@CHHBFPLJ@MPG123_BAD_CHANNEL?$AA@ 0000000180078c78     node_mpg123.obj
 0002:00008c90       ??_C@_0BA@JKPIEJIG@MPG123_BAD_RATE?$AA@ 0000000180078c90     node_mpg123.obj
 0002:00008ca0       ??_C@_0BG@FLJMFMFG@MPG123_ERR_16TO8TABLE?$AA@ 0000000180078ca0     node_mpg123.obj
 0002:00008cb8       ??_C@_0BB@CODMLJBP@MPG123_BAD_PARAM?$AA@ 0000000180078cb8     node_mpg123.obj
 0002:00008cd0       ??_C@_0BC@GLAJJLLD@MPG123_BAD_BUFFER?$AA@ 0000000180078cd0     node_mpg123.obj
 0002:00008ce8       ??_C@_0BC@LBCGNIMO@MPG123_OUT_OF_MEM?$AA@ 0000000180078ce8     node_mpg123.obj
 0002:00008d00       ??_C@_0BH@HNHBPFHH@MPG123_NOT_INITIALIZED?$AA@ 0000000180078d00     node_mpg123.obj
 0002:00008d18       ??_C@_0BD@IHDHGAGA@MPG123_BAD_DECODER?$AA@ 0000000180078d18     node_mpg123.obj
 0002:00008d30       ??_C@_0BC@MHBFLICD@MPG123_BAD_HANDLE?$AA@ 0000000180078d30     node_mpg123.obj
 0002:00008d48       ??_C@_0BC@IDANDILO@MPG123_NO_BUFFERS?$AA@ 0000000180078d48     node_mpg123.obj
 0002:00008d60       ??_C@_0P@GPJANGHP@MPG123_BAD_RVA?$AA@ 0000000180078d60     node_mpg123.obj
 0002:00008d70       ??_C@_0BC@MGIBBNBH@MPG123_NO_GAPLESS?$AA@ 0000000180078d70     node_mpg123.obj
 0002:00008d88       ??_C@_0BA@BIPEEGHK@MPG123_NO_SPACE?$AA@ 0000000180078d88     node_mpg123.obj
 0002:00008d98       ??_C@_0BB@JMHMHIMC@MPG123_BAD_TYPES?$AA@ 0000000180078d98     node_mpg123.obj
 0002:00008db0       ??_C@_0BA@PCLCMJOD@MPG123_BAD_BAND?$AA@ 0000000180078db0     node_mpg123.obj
 0002:00008dc0       ??_C@_0BA@LBDPEILJ@MPG123_ERR_NULL?$AA@ 0000000180078dc0     node_mpg123.obj
 0002:00008dd0       ??_C@_0BC@CNFAAFOO@MPG123_ERR_READER?$AA@ 0000000180078dd0     node_mpg123.obj
 0002:00008de8       ??_C@_0BI@KHCPNMEP@MPG123_NO_SEEK_FROM_END?$AA@ 0000000180078de8     node_mpg123.obj
 0002:00008e00       ??_C@_0BC@GCLNJDIE@MPG123_BAD_WHENCE?$AA@ 0000000180078e00     node_mpg123.obj
 0002:00008e18       ??_C@_0BC@JBHDBMJN@MPG123_NO_TIMEOUT?$AA@ 0000000180078e18     node_mpg123.obj
 0002:00008e30       ??_C@_0BA@NIBJKCOD@MPG123_BAD_FILE?$AA@ 0000000180078e30     node_mpg123.obj
 0002:00008e40       ??_C@_0P@ONKADNLB@MPG123_NO_SEEK?$AA@ 0000000180078e40     node_mpg123.obj
 0002:00008e50       ??_C@_0BB@FAPOPDJH@MPG123_NO_READER?$AA@ 0000000180078e50     node_mpg123.obj
 0002:00008e68       ??_C@_0BA@PICNNDID@MPG123_BAD_PARS?$AA@ 0000000180078e68     node_mpg123.obj
 0002:00008e78       ??_C@_0BF@PMMJJDJL@MPG123_BAD_INDEX_PAR?$AA@ 0000000180078e78     node_mpg123.obj
 0002:00008e90       ??_C@_0BD@GAGAKKDE@MPG123_OUT_OF_SYNC?$AA@ 0000000180078e90     node_mpg123.obj
 0002:00008ea8       ??_C@_0BD@OMAPKCOP@MPG123_RESYNC_FAIL?$AA@ 0000000180078ea8     node_mpg123.obj
 0002:00008ec0       ??_C@_0P@FKNFLEKO@MPG123_NO_8BIT?$AA@ 0000000180078ec0     node_mpg123.obj
 0002:00008ed0       ??_C@_0BB@LGJOFDHP@MPG123_BAD_ALIGN?$AA@ 0000000180078ed0     node_mpg123.obj
 0002:00008ee8       ??_C@_0BD@IMGIPMGH@MPG123_NULL_BUFFER?$AA@ 0000000180078ee8     node_mpg123.obj
 0002:00008f00       ??_C@_0BC@KIBIDGD@MPG123_NO_RELSEEK?$AA@ 0000000180078f00     node_mpg123.obj
 0002:00008f18       ??_C@_0BE@JGANCKBM@MPG123_NULL_POINTER?$AA@ 0000000180078f18     node_mpg123.obj
 0002:00008f30       ??_C@_0P@NOPKELBK@MPG123_BAD_KEY?$AA@ 0000000180078f30     node_mpg123.obj
 0002:00008f40       ??_C@_0BA@KJFGKOPI@MPG123_NO_INDEX?$AA@ 0000000180078f40     node_mpg123.obj
 0002:00008f50       ??_C@_0BC@HGOBHEHN@MPG123_INDEX_FAIL?$AA@ 0000000180078f50     node_mpg123.obj
 0002:00008f68       ??_C@_0BJ@EDHHKIMO@MPG123_BAD_DECODER_SETUP?$AA@ 0000000180078f68     node_mpg123.obj
 0002:00008f88       ??_C@_0BH@EEDIMKJC@MPG123_MISSING_FEATURE?$AA@ 0000000180078f88     node_mpg123.obj
 0002:00008fa0       ??_C@_0BB@JLFFPLAK@MPG123_BAD_VALUE?$AA@ 0000000180078fa0     node_mpg123.obj
 0002:00008fb8       ??_C@_0BE@PEOGPPCA@MPG123_LSEEK_FAILED?$AA@ 0000000180078fb8     node_mpg123.obj
 0002:00008fd0       ??_C@_0BF@NPEGKLIF@MPG123_BAD_CUSTOM_IO?$AA@ 0000000180078fd0     node_mpg123.obj
 0002:00008fe8       ??_C@_0BE@OLDAJHP@MPG123_LFS_OVERFLOW?$AA@ 0000000180078fe8     node_mpg123.obj
 0002:00009000       ??_C@_0N@NBIDINAI@MPG123_ENC_8?$AA@ 0000000180079000     node_mpg123.obj
 0002:00009010       ??_C@_0O@IIMHKBEF@MPG123_ENC_16?$AA@ 0000000180079010     node_mpg123.obj
 0002:00009020       ??_C@_0O@LILHHNJO@MPG123_ENC_24?$AA@ 0000000180079020     node_mpg123.obj
 0002:00009030       ??_C@_0O@OPCPLACP@MPG123_ENC_32?$AA@ 0000000180079030     node_mpg123.obj
 0002:00009040       ??_C@_0BC@IGKJFJGG@MPG123_ENC_SIGNED?$AA@ 0000000180079040     node_mpg123.obj
 0002:00009058       ??_C@_0BB@NPAGHMD@MPG123_ENC_FLOAT?$AA@ 0000000180079058     node_mpg123.obj
 0002:00009070       ??_C@_0BF@LHPCELGD@MPG123_ENC_SIGNED_16?$AA@ 0000000180079070     node_mpg123.obj
 0002:00009088       ??_C@_0BH@LMENFLJM@MPG123_ENC_UNSIGNED_16?$AA@ 0000000180079088     node_mpg123.obj
 0002:000090a0       ??_C@_0BG@DFKAKIGB@MPG123_ENC_UNSIGNED_8?$AA@ 00000001800790a0     node_mpg123.obj
 0002:000090b8       ??_C@_0BE@FBGPHGKO@MPG123_ENC_SIGNED_8?$AA@ 00000001800790b8     node_mpg123.obj
 0002:000090d0       ??_C@_0BC@IFNOAAAG@MPG123_ENC_ULAW_8?$AA@ 00000001800790d0     node_mpg123.obj
 0002:000090e8       ??_C@_0BC@BGEPLINL@MPG123_ENC_ALAW_8?$AA@ 00000001800790e8     node_mpg123.obj
 0002:00009100       ??_C@_0BF@NABKFKAJ@MPG123_ENC_SIGNED_32?$AA@ 0000000180079100     node_mpg123.obj
 0002:00009118       ??_C@_0BH@NLKFEKPG@MPG123_ENC_UNSIGNED_32?$AA@ 0000000180079118     node_mpg123.obj
 0002:00009130       ??_C@_0BF@IHICJHLI@MPG123_ENC_SIGNED_24?$AA@ 0000000180079130     node_mpg123.obj
 0002:00009148       ??_C@_0BH@IMDNIHEH@MPG123_ENC_UNSIGNED_24?$AA@ 0000000180079148     node_mpg123.obj
 0002:00009160       ??_C@_0BE@FMNLDHCE@MPG123_ENC_FLOAT_32?$AA@ 0000000180079160     node_mpg123.obj
 0002:00009178       ??_C@_0BE@MEKFCEJ@MPG123_ENC_FLOAT_64?$AA@ 0000000180079178     node_mpg123.obj
 0002:00009190       ??_C@_0P@FMJKANNH@MPG123_ENC_ANY?$AA@ 0000000180079190     node_mpg123.obj
 0002:000091a0       ??_C@_0M@NKDOOMJM@MPG123_MONO?$AA@ 00000001800791a0     node_mpg123.obj
 0002:000091b0       ??_C@_0O@POKLAGAC@MPG123_STEREO?$AA@ 00000001800791b0     node_mpg123.obj
 0002:000091c0       ??_C@_0M@CPMGLPGK@MPG123_LEFT?$AA@ 00000001800791c0     node_mpg123.obj
 0002:000091d0       ??_C@_0N@CCDDGFDC@MPG123_RIGHT?$AA@ 00000001800791d0     node_mpg123.obj
 0002:000091e0       ??_C@_09OFHPAPIL@MPG123_LR?$AA@ 00000001800791e0     node_mpg123.obj
 0002:000091f0       ??_C@_0L@KBJBGPGH@MPG123_ID3?$AA@ 00000001800791f0     node_mpg123.obj
 0002:00009200       ??_C@_0P@MMIBCLOC@MPG123_NEW_ID3?$AA@ 0000000180079200     node_mpg123.obj
 0002:00009210       ??_C@_0L@DLMMPKMP@MPG123_ICY?$AA@ 0000000180079210     node_mpg123.obj
 0002:00009220       ??_C@_0P@FGNMLOEK@MPG123_NEW_ICY?$AA@ 0000000180079220     node_mpg123.obj
 0002:00009230       ??_C@_0M@CGLBEFKB@mpg123_init?$AA@ 0000000180079230     node_mpg123.obj
 0002:00009240       ??_C@_0M@JGDDKAOD@mpg123_exit?$AA@ 0000000180079240     node_mpg123.obj
 0002:00009250       ??_C@_0L@HKNOFAJC@mpg123_new?$AA@ 0000000180079250     node_mpg123.obj
 0002:00009260       ??_C@_0BA@PODMDNOP@mpg123_decoders?$AA@ 0000000180079260     node_mpg123.obj
 0002:00009270       ??_C@_0BH@NAEKGCEB@mpg123_current_decoder?$AA@ 0000000180079270     node_mpg123.obj
 0002:00009288       ??_C@_0BK@HLGBELBA@mpg123_supported_decoders?$AA@ 0000000180079288     node_mpg123.obj
 0002:000092a8       ??_C@_0BB@NMBGDCEC@mpg123_getformat?$AA@ 00000001800792a8     node_mpg123.obj
 0002:000092c0       ??_C@_0BD@LJDKHGPO@mpg123_safe_buffer?$AA@ 00000001800792c0     node_mpg123.obj
 0002:000092d8       ??_C@_0BA@NOAHNJDM@mpg123_outblock?$AA@ 00000001800792d8     node_mpg123.obj
 0002:000092e8       ??_C@_0BA@DCLKCDEH@mpg123_framepos?$AA@ 00000001800792e8     node_mpg123.obj
 0002:000092f8       ??_C@_0M@ONBAMLCB@mpg123_tell?$AA@ 00000001800792f8     node_mpg123.obj
 0002:00009308       ??_C@_0BB@CMLLEJHN@mpg123_tellframe?$AA@ 0000000180079308     node_mpg123.obj
 0002:00009320       ??_C@_0BD@IBIJLGFA@mpg123_tell_stream?$AA@ 0000000180079320     node_mpg123.obj
 0002:00009338       ??_C@_0BB@LDANKONH@mpg123_open_feed?$AA@ 0000000180079338     node_mpg123.obj
 0002:00009350       ??_C@_0M@DADILOEE@mpg123_feed?$AA@ 0000000180079350     node_mpg123.obj
 0002:00009360       ??_C@_0M@KCFBCHNK@mpg123_read?$AA@ 0000000180079360     node_mpg123.obj
 0002:00009370       ??_C@_0L@HCNOIIBN@mpg123_id3?$AA@ 0000000180079370     node_mpg123.obj
 0002:00009380       ??_C@_08HCOMDCCD@iojs?4exe?$AA@ 0000000180079380     win_delay_load_hook.obj
 0002:00009390       ??_C@_08JDDNMFDB@node?4exe?$AA@ 0000000180079390     win_delay_load_hook.obj
 0002:000093a0       ??_C@_0EC@JBHANONC@Warning?3?5highpass?5filter?5disable@ 00000001800793a0     libmp3lame:lame.obj
 0002:000093e8       ??_C@_0BB@OFOFPBOF@LAME?5?$CFs?5?$CFs?5?$CI?$CFs?$CJ?6?$AA@ 00000001800793e8     libmp3lame:lame.obj
 0002:000093fc       ??_C@_03LNOFGJMM@MMX?$AA@  00000001800793fc     libmp3lame:lame.obj
 0002:00009400       ??_C@_02KEGNLNML@?0?5?$AA@ 0000000180079400     libmp3lame:lame.obj
 0002:00009404       ??_C@_06DGHGLNHP@3DNow?$CB?$AA@ 0000000180079404     libmp3lame:lame.obj
 0002:00009410       ??_C@_0P@MNBBAJAB@SSE?5?$CIASM?5used?$CJ?$AA@ 0000000180079410     libmp3lame:lame.obj
 0002:00009420       ??_C@_04EPHAGOP@SSE2?$AA@  0000000180079420     libmp3lame:lame.obj
 0002:00009428       ??_C@_0BC@PGNIENLH@CPU?5features?3?5?$CFs?6?$AA@ 0000000180079428     libmp3lame:lame.obj
 0002:00009440       ??_C@_0EE@CDLHFDAJ@Autoconverting?5from?5stereo?5to?5mo@ 0000000180079440     libmp3lame:lame.obj
 0002:00009488       ??_C@_0CK@LIDEKOCP@Resampling?3?5?5input?5?$CFg?5kHz?5?5outpu@ 0000000180079488     libmp3lame:lame.obj
 0002:000094c0       ??_C@_0EH@JGACDABP@Using?5polyphase?5highpass?5filter?0@ 00000001800794c0     libmp3lame:lame.obj
 0002:00009510       ??_C@_0EG@JGKNCGCO@Using?5polyphase?5lowpass?5filter?0?5@ 0000000180079510     libmp3lame:lame.obj
 0002:00009558       ??_C@_0CD@BBFGAKHA@polyphase?5lowpass?5filter?5disable@ 0000000180079558     libmp3lame:lame.obj
 0002:00009580       ??_C@_0DN@IGHDGMCM@Warning?3?5many?5decoders?5cannot?5ha@ 0000000180079580     libmp3lame:lame.obj
 0002:000095c0       ??_C@_0FJ@NFPDEENL@Warning?3?5many?5decoders?5cannot?5ha@ 00000001800795c0     libmp3lame:lame.obj
 0002:00009619       ??_C@_00CNPNBAHC@?$AA@     0000000180079619     libmp3lame:lame.obj
 0002:00009620       ??_C@_08OCNCNKPI@?6misc?3?6?6?$AA@ 0000000180079620     libmp3lame:lame.obj
 0002:00009630       ??_C@_0O@LNGKOMDN@?7scaling?3?5?$CFg?6?$AA@ 0000000180079630     libmp3lame:lame.obj
 0002:00009640       ??_C@_0BJ@HAOMIKFL@?7ch0?5?$CIleft?$CJ?5scaling?3?5?$CFg?6?$AA@ 0000000180079640     libmp3lame:lame.obj
 0002:00009660       ??_C@_0BK@FCKAIEIP@?7ch1?5?$CIright?$CJ?5scaling?3?5?$CFg?6?$AA@ 0000000180079660     libmp3lame:lame.obj
 0002:0000967c       ??_C@_06IKLLLDHL@normal?$AA@ 000000018007967c     libmp3lame:lame.obj
 0002:00009688       ??_C@_0BE@HFLEPBKE@best?5?$CIoutside?5loop?$CJ?$AA@ 0000000180079688     libmp3lame:lame.obj
 0002:000096a0       ??_C@_0BJ@HJEFKPHH@best?5?$CIinside?5loop?0?5slow?$CJ?$AA@ 00000001800796a0     libmp3lame:lame.obj
 0002:000096c0       ??_C@_0BF@NJFGMMBM@?7huffman?5search?3?5?$CFs?6?$AA@ 00000001800796c0     libmp3lame:lame.obj
 0002:000096d8       ??_C@_0BE@HPHGPAOL@?7experimental?5Y?$DN?$CFd?6?$AA@ 00000001800796d8     libmp3lame:lame.obj
 0002:000096ec       ??_C@_05JPBCMFJM@?7?4?4?4?6?$AA@ 00000001800796ec     libmp3lame:lame.obj
 0002:000096f8       ??_C@_0BC@PJLJKCE@?6stream?5format?3?6?6?$AA@ 00000001800796f8     libmp3lame:lame.obj
 0002:0000970c       ??_C@_03BEHLLJJF@2?45?$AA@ 000000018007970c     libmp3lame:lame.obj
 0002:00009710       ??_C@_01HIHLOKLC@1?$AA@    0000000180079710     libmp3lame:lame.obj
 0002:00009714       ??_C@_01FDFGLJHB@2?$AA@    0000000180079714     libmp3lame:lame.obj
 0002:00009718       ??_C@_01OGPIMHDM@?$DP?$AA@ 0000000180079718     libmp3lame:lame.obj
 0002:00009720       ??_C@_0BC@JMNPPKKO@?7MPEG?9?$CFs?5Layer?53?6?$AA@ 0000000180079720     libmp3lame:lame.obj
 0002:00009738       ??_C@_0N@FPMBPBGF@joint?5stereo?$AA@ 0000000180079738     libmp3lame:lame.obj
 0002:00009748       ??_C@_06BDDNELGJ@stereo?$AA@ 0000000180079748     libmp3lame:lame.obj
 0002:00009750       ??_C@_0N@FGCMNKN@dual?5channel?$AA@ 0000000180079750     libmp3lame:lame.obj
 0002:00009760       ??_C@_04JLBGMNAJ@mono?$AA@ 0000000180079760     libmp3lame:lame.obj
 0002:00009768       ??_C@_0BA@BFBLDBCI@not?5set?5?$CIerror?$CJ?$AA@ 0000000180079768     libmp3lame:lame.obj
 0002:00009778       ??_C@_0BA@KIFFCGDE@unknown?5?$CIerror?$CJ?$AA@ 0000000180079778     libmp3lame:lame.obj
 0002:00009788       ??_C@_0BC@BKCCBDAM@?7?$CFd?5channel?5?9?5?$CFs?6?$AA@ 0000000180079788     libmp3lame:lame.obj
 0002:0000979c       ??_C@_03MCADLMAF@off?$AA@  000000018007979c     libmp3lame:lame.obj
 0002:000097a0       ??_C@_03NFKEKGGK@all?$AA@  00000001800797a0     libmp3lame:lame.obj
 0002:000097a8       ??_C@_0O@JFDEPJHG@?7padding?3?5?$CFs?6?$AA@ 00000001800797a8     libmp3lame:lame.obj
 0002:000097b8       ??_C@_09KFMJHHJJ@?$CIdefault?$CJ?$AA@ 00000001800797b8     libmp3lame:lame.obj
 0002:000097c8       ??_C@_0O@PKLEMINE@?$CIfree?5format?$CJ?$AA@ 00000001800797c8     libmp3lame:lame.obj
 0002:000097d8       ??_C@_0BM@BAGDDFON@?7constant?5bitrate?5?9?5CBR?5?$CFs?6?$AA@ 00000001800797d8     libmp3lame:lame.obj
 0002:000097f8       ??_C@_0BM@FALEJJDH@?7variable?5bitrate?5?9?5ABR?5?$CFs?6?$AA@ 00000001800797f8     libmp3lame:lame.obj
 0002:00009818       ??_C@_0BP@PFMABHIA@?7variable?5bitrate?5?9?5VBR?5rh?5?$CFs?6?$AA@ 0000000180079818     libmp3lame:lame.obj
 0002:00009838       ??_C@_0BP@BAECDJEH@?7variable?5bitrate?5?9?5VBR?5mt?5?$CFs?6?$AA@ 0000000180079838     libmp3lame:lame.obj
 0002:00009858       ??_C@_0CB@MMALJEFE@?7variable?5bitrate?5?9?5VBR?5mtrh?5?$CFs?6@ 0000000180079858     libmp3lame:lame.obj
 0002:00009880       ??_C@_0BN@OPDANJLJ@?7?5?$DP?$DP?5oops?0?5some?5new?5one?5?$DP?$DP?5?6?$AA@ 0000000180079880     libmp3lame:lame.obj
 0002:000098a0       ??_C@_0BB@POGGEMGO@?7using?5LAME?5Tag?6?$AA@ 00000001800798a0     libmp3lame:lame.obj
 0002:000098b8       ??_C@_0BD@CCJLGNJG@?6psychoacoustic?3?6?6?$AA@ 00000001800798b8     libmp3lame:lame.obj
 0002:000098d0       ??_C@_07BHLLLGNC@allowed?$AA@ 00000001800798d0     libmp3lame:lame.obj
 0002:000098d8       ??_C@_0BA@HNKNFHAB@channel?5coupled?$AA@ 00000001800798d8     libmp3lame:lame.obj
 0002:000098e8       ??_C@_09LCDCLNPL@dispensed?$AA@ 00000001800798e8     libmp3lame:lame.obj
 0002:000098f4       ??_C@_06JGFLKIPL@forced?$AA@ 00000001800798f4     libmp3lame:lame.obj
 0002:00009900       ??_C@_0BJ@CPDFMACD@?7using?5short?5blocks?3?5?$CFs?6?$AA@ 0000000180079900     libmp3lame:lame.obj
 0002:00009920       ??_C@_0BE@HMLAMLHB@?7subblock?5gain?3?5?$CFd?6?$AA@ 0000000180079920     libmp3lame:lame.obj
 0002:00009938       ??_C@_0BI@PKGHKFLP@?7adjust?5masking?3?5?$CFg?5dB?6?$AA@ 0000000180079938     libmp3lame:lame.obj
 0002:00009950       ??_C@_0BO@JJOCCODN@?7adjust?5masking?5short?3?5?$CFg?5dB?6?$AA@ 0000000180079950     libmp3lame:lame.obj
 0002:00009970       ??_C@_0BO@MCFMHOJB@?7quantization?5comparison?3?5?$CFd?6?$AA@ 0000000180079970     libmp3lame:lame.obj
 0002:00009990       ??_C@_0CB@FCDDLJCJ@?7?5?$FO?5comparison?5short?5blocks?3?5?$CFd?6@ 0000000180079990     libmp3lame:lame.obj
 0002:000099b8       ??_C@_0BE@MNMNNAOI@?7noise?5shaping?3?5?$CFd?6?$AA@ 00000001800799b8     libmp3lame:lame.obj
 0002:000099d0       ??_C@_0BH@CGJLJHGN@?7?5?$FO?5amplification?3?5?$CFd?6?$AA@ 00000001800799d0     libmp3lame:lame.obj
 0002:000099e8       ??_C@_0BC@KNPJJGMC@?7?5?$FO?5stopping?3?5?$CFd?6?$AA@ 00000001800799e8     libmp3lame:lame.obj
 0002:000099fc       ??_C@_05IFHLPLPC@using?$AA@ 00000001800799fc     libmp3lame:lame.obj
 0002:00009a08       ??_C@_0CC@ENIHMMMK@the?5only?5masking?5for?5short?5block@ 0000000180079a08     libmp3lame:lame.obj
 0002:00009a30       ??_C@_0BB@MGAAIGDO@the?5only?5masking?$AA@ 0000000180079a30     libmp3lame:lame.obj
 0002:00009a48       ??_C@_08JMCCDFNL@not?5used?$AA@ 0000000180079a48     libmp3lame:lame.obj
 0002:00009a58       ??_C@_09NAJFAHGF@?7ATH?3?5?$CFs?6?$AA@ 0000000180079a58     libmp3lame:lame.obj
 0002:00009a68       ??_C@_0O@PADLEJED@?7?5?$FO?5type?3?5?$CFd?6?$AA@ 0000000180079a68     libmp3lame:lame.obj
 0002:00009a78       ??_C@_0BD@KNEOFMFP@?5?$CIonly?5for?5type?54?$CJ?$AA@ 0000000180079a78     libmp3lame:lame.obj
 0002:00009a90       ??_C@_0BB@CKOHFPDE@?7?5?$FO?5shape?3?5?$CFg?$CFs?6?$AA@ 0000000180079a90     libmp3lame:lame.obj
 0002:00009aa8       ??_C@_0BO@NIJDNPLD@?7?5?$FO?5level?5adjustement?3?5?$CFg?5dB?6?$AA@ 0000000180079aa8     libmp3lame:lame.obj
 0002:00009ac8       ??_C@_0BF@ONPPHJJO@?7?5?$FO?5adjust?5type?3?5?$CFd?6?$AA@ 0000000180079ac8     libmp3lame:lame.obj
 0002:00009ae0       ??_C@_0CC@OLDHKLNJ@?7?5?$FO?5adjust?5sensitivity?5power?3?5?$CFf@ 0000000180079ae0     libmp3lame:lame.obj
 0002:00009b08       ??_C@_0CM@KKMCAGDD@?7experimental?5psy?5tunings?5by?5Nao@ 0000000180079b08     libmp3lame:lame.obj
 0002:00009b40       ??_C@_0EG@KOKLKHDL@?7?5?5?5adjust?5masking?5bass?$DN?$CFg?5dB?0?5a@ 0000000180079b40     libmp3lame:lame.obj
 0002:00009b88       ??_C@_03ICICOMAL@yes?$AA@  0000000180079b88     libmp3lame:lame.obj
 0002:00009b8c       ??_C@_02KAJCLHKP@no?$AA@   0000000180079b8c     libmp3lame:lame.obj
 0002:00009b90       ??_C@_0CE@HPIHCFGL@?7using?5temporal?5masking?5effect?3?5@ 0000000180079b90     libmp3lame:lame.obj
 0002:00009bb8       ??_C@_0CB@KFKIJBOH@?7interchannel?5masking?5ratio?3?5?$CFg?6@ 0000000180079bb8     libmp3lame:lame.obj
 0002:00009bdc       ??_C@_01EEMJAFIK@?6?$AA@   0000000180079bdc     libmp3lame:lame.obj
 0002:00009be0       ??_C@_0CI@DOBFAMDB@Error?3?5can?8t?5allocate?5in_buffer?5@ 0000000180079be0     libmp3lame:lame.obj
 0002:00009c08       ??_C@_05EGIABMCH@Blues?$AA@ 0000000180079c08     libmp3lame:id3tag.obj
 0002:00009c10       ??_C@_0N@HMGLJNH@Classic?5Rock?$AA@ 0000000180079c10     libmp3lame:id3tag.obj
 0002:00009c20       ??_C@_07HAAJMFIA@Country?$AA@ 0000000180079c20     libmp3lame:id3tag.obj
 0002:00009c28       ??_C@_05PHEECCHA@Dance?$AA@ 0000000180079c28     libmp3lame:id3tag.obj
 0002:00009c30       ??_C@_05JPKIAOHJ@Disco?$AA@ 0000000180079c30     libmp3lame:id3tag.obj
 0002:00009c38       ??_C@_04HGMPKBOD@Funk?$AA@ 0000000180079c38     libmp3lame:id3tag.obj
 0002:00009c40       ??_C@_06BKAMGKHE@Grunge?$AA@ 0000000180079c40     libmp3lame:id3tag.obj
 0002:00009c48       ??_C@_07HOOMJDLF@Hip?9Hop?$AA@ 0000000180079c48     libmp3lame:id3tag.obj
 0002:00009c50       ??_C@_04CELCKEJG@Jazz?$AA@ 0000000180079c50     libmp3lame:id3tag.obj
 0002:00009c58       ??_C@_05MICJANKE@Metal?$AA@ 0000000180079c58     libmp3lame:id3tag.obj
 0002:00009c60       ??_C@_07NOBIPMGJ@New?5Age?$AA@ 0000000180079c60     libmp3lame:id3tag.obj
 0002:00009c68       ??_C@_06MPHEKAMK@Oldies?$AA@ 0000000180079c68     libmp3lame:id3tag.obj
 0002:00009c70       ??_C@_05BBOGGNLJ@Other?$AA@ 0000000180079c70     libmp3lame:id3tag.obj
 0002:00009c78       ??_C@_03HJACNKKK@Pop?$AA@  0000000180079c78     libmp3lame:id3tag.obj
 0002:00009c7c       ??_C@_03EBDAPABP@R?$CGB?$AA@ 0000000180079c7c     libmp3lame:id3tag.obj
 0002:00009c80       ??_C@_03NJJFDPCL@Rap?$AA@  0000000180079c80     libmp3lame:id3tag.obj
 0002:00009c84       ??_C@_06FCJMBMOE@Reggae?$AA@ 0000000180079c84     libmp3lame:id3tag.obj
 0002:00009c8c       ??_C@_04NENDLEAJ@Rock?$AA@ 0000000180079c8c     libmp3lame:id3tag.obj
 0002:00009c94       ??_C@_06GNBMDAPP@Techno?$AA@ 0000000180079c94     libmp3lame:id3tag.obj
 0002:00009ca0       ??_C@_0L@BLDOBJBN@Industrial?$AA@ 0000000180079ca0     libmp3lame:id3tag.obj
 0002:00009cb0       ??_C@_0M@GIKKCPNF@Alternative?$AA@ 0000000180079cb0     libmp3lame:id3tag.obj
 0002:00009cbc       ??_C@_03DPGHPOII@Ska?$AA@  0000000180079cbc     libmp3lame:id3tag.obj
 0002:00009cc0       ??_C@_0M@EPABKDJI@Death?5Metal?$AA@ 0000000180079cc0     libmp3lame:id3tag.obj
 0002:00009ccc       ??_C@_06DIJHLFMF@Pranks?$AA@ 0000000180079ccc     libmp3lame:id3tag.obj
 0002:00009cd8       ??_C@_0L@JMHFNCF@Soundtrack?$AA@ 0000000180079cd8     libmp3lame:id3tag.obj
 0002:00009ce8       ??_C@_0M@LPAFHLOI@Euro?9Techno?$AA@ 0000000180079ce8     libmp3lame:id3tag.obj
 0002:00009cf8       ??_C@_07EBHHCJEE@Ambient?$AA@ 0000000180079cf8     libmp3lame:id3tag.obj
 0002:00009d00       ??_C@_08MGHEAHLN@Trip?9Hop?$AA@ 0000000180079d00     libmp3lame:id3tag.obj
 0002:00009d0c       ??_C@_05CGEGIIHL@Vocal?$AA@ 0000000180079d0c     libmp3lame:id3tag.obj
 0002:00009d18       ??_C@_09IJAEMLMO@Jazz?$CLFunk?$AA@ 0000000180079d18     libmp3lame:id3tag.obj
 0002:00009d24       ??_C@_06FOAOBEBC@Fusion?$AA@ 0000000180079d24     libmp3lame:id3tag.obj
 0002:00009d2c       ??_C@_06NOFDHFLJ@Trance?$AA@ 0000000180079d2c     libmp3lame:id3tag.obj
 0002:00009d38       ??_C@_09KCDEIEAL@Classical?$AA@ 0000000180079d38     libmp3lame:id3tag.obj
 0002:00009d48       ??_C@_0N@FJCNDAAI@Instrumental?$AA@ 0000000180079d48     libmp3lame:id3tag.obj
 0002:00009d58       ??_C@_04DDEKHPPK@Acid?$AA@ 0000000180079d58     libmp3lame:id3tag.obj
 0002:00009d60       ??_C@_05KEIICPIE@House?$AA@ 0000000180079d60     libmp3lame:id3tag.obj
 0002:00009d68       ??_C@_04IBBNLEM@Game?$AA@  0000000180079d68     libmp3lame:id3tag.obj
 0002:00009d70       ??_C@_0L@FEFCBAGD@Sound?5Clip?$AA@ 0000000180079d70     libmp3lame:id3tag.obj
 0002:00009d7c       ??_C@_06EIIEMBBK@Gospel?$AA@ 0000000180079d7c     libmp3lame:id3tag.obj
 0002:00009d84       ??_C@_05GIBOCELO@Noise?$AA@ 0000000180079d84     libmp3lame:id3tag.obj
 0002:00009d90       ??_C@_0BB@CKCNMPIF@Alternative?5Rock?$AA@ 0000000180079d90     libmp3lame:id3tag.obj
 0002:00009da4       ??_C@_04MKNBGPJB@Bass?$AA@ 0000000180079da4     libmp3lame:id3tag.obj
 0002:00009dac       ??_C@_04LOFJNELM@Soul?$AA@ 0000000180079dac     libmp3lame:id3tag.obj
 0002:00009db4       ??_C@_04JJGPMDMB@Punk?$AA@ 0000000180079db4     libmp3lame:id3tag.obj
 0002:00009dbc       ??_C@_05OMHELODH@Space?$AA@ 0000000180079dbc     libmp3lame:id3tag.obj
 0002:00009dc8       ??_C@_0L@KJEEODLG@Meditative?$AA@ 0000000180079dc8     libmp3lame:id3tag.obj
 0002:00009dd8       ??_C@_0BB@LFDKKLIN@Instrumental?5Pop?$AA@ 0000000180079dd8     libmp3lame:id3tag.obj
 0002:00009df0       ??_C@_0BC@HBBFDJBD@Instrumental?5Rock?$AA@ 0000000180079df0     libmp3lame:id3tag.obj
 0002:00009e04       ??_C@_06JPHOEBPP@Ethnic?$AA@ 0000000180079e04     libmp3lame:id3tag.obj
 0002:00009e0c       ??_C@_06OBILIHNB@Gothic?$AA@ 0000000180079e0c     libmp3lame:id3tag.obj
 0002:00009e18       ??_C@_08BPJDAAFN@Darkwave?$AA@ 0000000180079e18     libmp3lame:id3tag.obj
 0002:00009e28       ??_C@_0BC@HKAKJIIF@Techno?9Industrial?$AA@ 0000000180079e28     libmp3lame:id3tag.obj
 0002:00009e40       ??_C@_0L@CHKMIMGG@Electronic?$AA@ 0000000180079e40     libmp3lame:id3tag.obj
 0002:00009e50       ??_C@_08EGAHBEGH@Pop?9Folk?$AA@ 0000000180079e50     libmp3lame:id3tag.obj
 0002:00009e60       ??_C@_09PDIMAOAM@Eurodance?$AA@ 0000000180079e60     libmp3lame:id3tag.obj
 0002:00009e6c       ??_C@_05MMFIBGEF@Dream?$AA@ 0000000180079e6c     libmp3lame:id3tag.obj
 0002:00009e78       ??_C@_0O@KFCFCIGH@Southern?5Rock?$AA@ 0000000180079e78     libmp3lame:id3tag.obj
 0002:00009e88       ??_C@_06DCKLOHGE@Comedy?$AA@ 0000000180079e88     libmp3lame:id3tag.obj
 0002:00009e90       ??_C@_04HAPBPEGD@Cult?$AA@ 0000000180079e90     libmp3lame:id3tag.obj
 0002:00009e98       ??_C@_07NLDMPMFM@Gangsta?$AA@ 0000000180079e98     libmp3lame:id3tag.obj
 0002:00009ea0       ??_C@_06OJGPGEOE@Top?540?$AA@ 0000000180079ea0     libmp3lame:id3tag.obj
 0002:00009ea8       ??_C@_0O@CMBOEJC@Christian?5Rap?$AA@ 0000000180079ea8     libmp3lame:id3tag.obj
 0002:00009eb8       ??_C@_08DHOPNGPJ@Pop?1Funk?$AA@ 0000000180079eb8     libmp3lame:id3tag.obj
 0002:00009ec4       ??_C@_06LDDNPE@Jungle?$AA@ 0000000180079ec4     libmp3lame:id3tag.obj
 0002:00009ed0       ??_C@_09DGFAPIDC@Native?5US?$AA@ 0000000180079ed0     libmp3lame:id3tag.obj
 0002:00009ee0       ??_C@_07DFBJIPEL@Cabaret?$AA@ 0000000180079ee0     libmp3lame:id3tag.obj
 0002:00009ee8       ??_C@_08PIJBHODF@New?5Wave?$AA@ 0000000180079ee8     libmp3lame:id3tag.obj
 0002:00009ef8       ??_C@_0M@NADCKJBA@Psychedelic?$AA@ 0000000180079ef8     libmp3lame:id3tag.obj
 0002:00009f04       ??_C@_04LAGCIPCP@Rave?$AA@ 0000000180079f04     libmp3lame:id3tag.obj
 0002:00009f10       ??_C@_09LJJPFGGK@Showtunes?$AA@ 0000000180079f10     libmp3lame:id3tag.obj
 0002:00009f20       ??_C@_07EFCJIPGP@Trailer?$AA@ 0000000180079f20     libmp3lame:id3tag.obj
 0002:00009f28       ??_C@_05LPLFCCKI@Lo?9Fi?$AA@ 0000000180079f28     libmp3lame:id3tag.obj
 0002:00009f30       ??_C@_06HGLDOOOH@Tribal?$AA@ 0000000180079f30     libmp3lame:id3tag.obj
 0002:00009f38       ??_C@_09BPKAFLAF@Acid?5Punk?$AA@ 0000000180079f38     libmp3lame:id3tag.obj
 0002:00009f48       ??_C@_09KCHNDMFC@Acid?5Jazz?$AA@ 0000000180079f48     libmp3lame:id3tag.obj
 0002:00009f54       ??_C@_05BAEFIAKL@Polka?$AA@ 0000000180079f54     libmp3lame:id3tag.obj
 0002:00009f5c       ??_C@_05POEPDAA@Retro?$AA@ 0000000180079f5c     libmp3lame:id3tag.obj
 0002:00009f68       ??_C@_07CGEPLPCE@Musical?$AA@ 0000000180079f68     libmp3lame:id3tag.obj
 0002:00009f70       ??_C@_0M@IIAEDJCA@Rock?5?$CG?5Roll?$AA@ 0000000180079f70     libmp3lame:id3tag.obj
 0002:00009f80       ??_C@_09KBCOACPM@Hard?5Rock?$AA@ 0000000180079f80     libmp3lame:id3tag.obj
 0002:00009f8c       ??_C@_04EKOPMCHG@Folk?$AA@ 0000000180079f8c     libmp3lame:id3tag.obj
 0002:00009f98       ??_C@_09FEMCKJPD@Folk?9Rock?$AA@ 0000000180079f98     libmp3lame:id3tag.obj
 0002:00009fa8       ??_C@_0O@OLFCHJHJ@National?5Folk?$AA@ 0000000180079fa8     libmp3lame:id3tag.obj
 0002:00009fb8       ??_C@_05KBAOLLBJ@Swing?$AA@ 0000000180079fb8     libmp3lame:id3tag.obj
 0002:00009fc0       ??_C@_0M@LPPEJIPP@Fast?5Fusion?$AA@ 0000000180079fc0     libmp3lame:id3tag.obj
 0002:00009fcc       ??_C@_05NIBALHLG@Bebob?$AA@ 0000000180079fcc     libmp3lame:id3tag.obj
 0002:00009fd4       ??_C@_05MKNAELPL@Latin?$AA@ 0000000180079fd4     libmp3lame:id3tag.obj
 0002:00009fe0       ??_C@_07NDAADGHD@Revival?$AA@ 0000000180079fe0     libmp3lame:id3tag.obj
 0002:00009fe8       ??_C@_06POAALEMA@Celtic?$AA@ 0000000180079fe8     libmp3lame:id3tag.obj
 0002:00009ff0       ??_C@_09EGIPCOAF@Bluegrass?$AA@ 0000000180079ff0     libmp3lame:id3tag.obj
 0002:0000a000       ??_C@_0L@MJHGFLKD@Avantgarde?$AA@ 000000018007a000     libmp3lame:id3tag.obj
 0002:0000a010       ??_C@_0M@IELMFHHK@Gothic?5Rock?$AA@ 000000018007a010     libmp3lame:id3tag.obj
 0002:0000a020       ??_C@_0BB@GCFDGKOP@Progressive?5Rock?$AA@ 000000018007a020     libmp3lame:id3tag.obj
 0002:0000a038       ??_C@_0BB@BMPGIMDB@Psychedelic?5Rock?$AA@ 000000018007a038     libmp3lame:id3tag.obj
 0002:0000a050       ??_C@_0P@FPGGCDAB@Symphonic?5Rock?$AA@ 000000018007a050     libmp3lame:id3tag.obj
 0002:0000a060       ??_C@_09DOKHDNBN@Slow?5Rock?$AA@ 000000018007a060     libmp3lame:id3tag.obj
 0002:0000a070       ??_C@_08INPKNPNL@Big?5Band?$AA@ 000000018007a070     libmp3lame:id3tag.obj
 0002:0000a07c       ??_C@_06HPKLMKFH@Chorus?$AA@ 000000018007a07c     libmp3lame:id3tag.obj
 0002:0000a088       ??_C@_0P@OGJNDFNF@Easy?5Listening?$AA@ 000000018007a088     libmp3lame:id3tag.obj
 0002:0000a098       ??_C@_08PLJDJOCM@Acoustic?$AA@ 000000018007a098     libmp3lame:id3tag.obj
 0002:0000a0a4       ??_C@_06DEMGCIL@Humour?$AA@ 000000018007a0a4     libmp3lame:id3tag.obj
 0002:0000a0ac       ??_C@_06MBBDLFLA@Speech?$AA@ 000000018007a0ac     libmp3lame:id3tag.obj
 0002:0000a0b8       ??_C@_07KBEDDHIP@Chanson?$AA@ 000000018007a0b8     libmp3lame:id3tag.obj
 0002:0000a0c0       ??_C@_05GOIKOHMD@Opera?$AA@ 000000018007a0c0     libmp3lame:id3tag.obj
 0002:0000a0c8       ??_C@_0O@HPFNKIBK@Chamber?5Music?$AA@ 000000018007a0c8     libmp3lame:id3tag.obj
 0002:0000a0d8       ??_C@_06DIKKNAE@Sonata?$AA@ 000000018007a0d8     libmp3lame:id3tag.obj
 0002:0000a0e0       ??_C@_08HGMGMDPB@Symphony?$AA@ 000000018007a0e0     libmp3lame:id3tag.obj
 0002:0000a0f0       ??_C@_0L@BMCAJHGC@Booty?5Bass?$AA@ 000000018007a0f0     libmp3lame:id3tag.obj
 0002:0000a0fc       ??_C@_06MOKNPJA@Primus?$AA@ 000000018007a0fc     libmp3lame:id3tag.obj
 0002:0000a108       ??_C@_0M@BDIBAHFD@Porn?5Groove?$AA@ 000000018007a108     libmp3lame:id3tag.obj
 0002:0000a114       ??_C@_06LGIFNCAO@Satire?$AA@ 000000018007a114     libmp3lame:id3tag.obj
 0002:0000a120       ??_C@_08BCJKABMD@Slow?5Jam?$AA@ 000000018007a120     libmp3lame:id3tag.obj
 0002:0000a12c       ??_C@_04FCIPMBFO@Club?$AA@ 000000018007a12c     libmp3lame:id3tag.obj
 0002:0000a134       ??_C@_05JHEGALN@Tango?$AA@ 000000018007a134     libmp3lame:id3tag.obj
 0002:0000a13c       ??_C@_05JOIMBAIO@Samba?$AA@ 000000018007a13c     libmp3lame:id3tag.obj
 0002:0000a148       ??_C@_08ODOIKEAG@Folklore?$AA@ 000000018007a148     libmp3lame:id3tag.obj
 0002:0000a154       ??_C@_06BHBJEFGN@Ballad?$AA@ 000000018007a154     libmp3lame:id3tag.obj
 0002:0000a160       ??_C@_0N@BBLJBJNI@Power?5Ballad?$AA@ 000000018007a160     libmp3lame:id3tag.obj
 0002:0000a170       ??_C@_0O@NBAHAMNI@Rhythmic?5Soul?$AA@ 000000018007a170     libmp3lame:id3tag.obj
 0002:0000a180       ??_C@_09NOJFLNHA@Freestyle?$AA@ 000000018007a180     libmp3lame:id3tag.obj
 0002:0000a18c       ??_C@_04MNAABDPM@Duet?$AA@ 000000018007a18c     libmp3lame:id3tag.obj
 0002:0000a198       ??_C@_09LJCHIEBA@Punk?5Rock?$AA@ 000000018007a198     libmp3lame:id3tag.obj
 0002:0000a1a8       ??_C@_09ODFCHLIF@Drum?5Solo?$AA@ 000000018007a1a8     libmp3lame:id3tag.obj
 0002:0000a1b8       ??_C@_0L@MNPOBBMF@A?5Cappella?$AA@ 000000018007a1b8     libmp3lame:id3tag.obj
 0002:0000a1c8       ??_C@_0L@LAEGMFKC@Euro?9House?$AA@ 000000018007a1c8     libmp3lame:id3tag.obj
 0002:0000a1d8       ??_C@_0L@LLLHEFCL@Dance?5Hall?$AA@ 000000018007a1d8     libmp3lame:id3tag.obj
 0002:0000a1e4       ??_C@_03OHBFJGJM@Goa?$AA@  000000018007a1e4     libmp3lame:id3tag.obj
 0002:0000a1e8       ??_C@_0M@NPGHKLH@Drum?5?$CG?5Bass?$AA@ 000000018007a1e8     libmp3lame:id3tag.obj
 0002:0000a1f8       ??_C@_0L@HMCMNNNL@Club?9House?$AA@ 000000018007a1f8     libmp3lame:id3tag.obj
 0002:0000a208       ??_C@_08HKEHKPDB@Hardcore?$AA@ 000000018007a208     libmp3lame:id3tag.obj
 0002:0000a214       ??_C@_06PBJGDPBN@Terror?$AA@ 000000018007a214     libmp3lame:id3tag.obj
 0002:0000a21c       ??_C@_05KLKAMDMN@Indie?$AA@ 000000018007a21c     libmp3lame:id3tag.obj
 0002:0000a228       ??_C@_07OICMGNA@BritPop?$AA@ 000000018007a228     libmp3lame:id3tag.obj
 0002:0000a230       ??_C@_09KOMLOGHM@Negerpunk?$AA@ 000000018007a230     libmp3lame:id3tag.obj
 0002:0000a240       ??_C@_0L@HKANPOAD@Polsk?5Punk?$AA@ 000000018007a240     libmp3lame:id3tag.obj
 0002:0000a24c       ??_C@_04BFFABJBP@Beat?$AA@ 000000018007a24c     libmp3lame:id3tag.obj
 0002:0000a258       ??_C@_0BC@PFEMLEJB@Christian?5Gangsta?$AA@ 000000018007a258     libmp3lame:id3tag.obj
 0002:0000a270       ??_C@_0M@NEOMPHCK@Heavy?5Metal?$AA@ 000000018007a270     libmp3lame:id3tag.obj
 0002:0000a280       ??_C@_0M@JNFPBAKG@Black?5Metal?$AA@ 000000018007a280     libmp3lame:id3tag.obj
 0002:0000a290       ??_C@_09OIHDMKNE@Crossover?$AA@ 000000018007a290     libmp3lame:id3tag.obj
 0002:0000a2a0       ??_C@_0BH@IOJICMPF@Contemporary?5Christian?$AA@ 000000018007a2a0     libmp3lame:id3tag.obj
 0002:0000a2b8       ??_C@_0P@GGLFOLPK@Christian?5Rock?$AA@ 000000018007a2b8     libmp3lame:id3tag.obj
 0002:0000a2c8       ??_C@_08EHKNMNPK@Merengue?$AA@ 000000018007a2c8     libmp3lame:id3tag.obj
 0002:0000a2d4       ??_C@_05DLNELOKM@Salsa?$AA@ 000000018007a2d4     libmp3lame:id3tag.obj
 0002:0000a2e0       ??_C@_0N@MAEFEGK@Thrash?5Metal?$AA@ 000000018007a2e0     libmp3lame:id3tag.obj
 0002:0000a2f0       ??_C@_05LCJADBKB@Anime?$AA@ 000000018007a2f0     libmp3lame:id3tag.obj
 0002:0000a2f8       ??_C@_04IMCHLCED@JPop?$AA@ 000000018007a2f8     libmp3lame:id3tag.obj
 0002:0000a300       ??_C@_08KEPHKCPD@SynthPop?$AA@ 000000018007a300     libmp3lame:id3tag.obj
 0002:0000a30c       ??_C@_03MAMPKPPK@XXX?$AA@  000000018007a30c     libmp3lame:id3tag.obj
 0002:0000a310       ??_C@_03FKNCMABI@?$CFlu?$AA@ 000000018007a310     libmp3lame:id3tag.obj
 0002:0000a318       ??_C@_0L@PJKHLKFB@image?1jpeg?$AA@ 000000018007a318     libmp3lame:id3tag.obj
 0002:0000a328       ??_C@_09NGJJJBGE@image?1png?$AA@ 000000018007a328     libmp3lame:id3tag.obj
 0002:0000a338       ??_C@_09HADNJIG@image?1gif?$AA@ 000000018007a338     libmp3lame:id3tag.obj
 0002:0000a344       ??_C@_02DPKJAMEF@?$CFd?$AA@ 000000018007a344     libmp3lame:id3tag.obj
 0002:0000a82c       t1l                        000000018007a82c     libmp3lame:tables.obj
 0002:0000a830       bitrate_table              000000018007a830     libmp3lame:tables.obj
 0002:0000aaf0       t33l                       000000018007aaf0     libmp3lame:tables.obj
 0002:0000ad50       samplerate_table           000000018007ad50     libmp3lame:tables.obj
 0002:0000ad80       ht                         000000018007ad80     libmp3lame:tables.obj
 0002:0000b980       table56                    000000018007b980     libmp3lame:tables.obj
 0002:0000bd30       table23                    000000018007bd30     libmp3lame:tables.obj
 0002:0000bd60       largetbl                   000000018007bd60     libmp3lame:tables.obj
 0002:0000c1e0       scfsi_band                 000000018007c1e0     libmp3lame:tables.obj
 0002:0000c220       t32l                       000000018007c220     libmp3lame:tables.obj
 0002:0000c9e0       sfBandIndex                000000018007c9e0     libmp3lame:quantize_pvt.obj
 0002:0000d150       nr_of_sfb_block            000000018007d150     libmp3lame:quantize_pvt.obj
 0002:0000d270       pretab                     000000018007d270     libmp3lame:quantize_pvt.obj
 0002:0000dad0       slen1_tab                  000000018007dad0     libmp3lame:takehiro.obj
 0002:0000db10       slen2_tab                  000000018007db10     libmp3lame:takehiro.obj
 0002:0000e7f0       plain_i386                 000000018007e7f0     libmpg123:optimize.obj
 0002:00011c70       INT123_pnts                0000000180081c70     libmpg123:tabinit.obj
 0002:00011cf0       ??_C@_06HHEODPII@3?499?45?$AA@ 0000000180081cf0     libmp3lame:version.obj
 0002:00011cf8       ??_C@_0BD@CIOPPHEI@http?3?1?1lame?4sf?4net?$AA@ 0000000180081cf8     libmp3lame:version.obj
 0002:00011d0c       ??_C@_06EAJMEPPF@32bits?$AA@ 0000000180081d0c     libmp3lame:version.obj
 0002:00011d14       ??_C@_06MEPNIDEP@64bits?$AA@ 0000000180081d14     libmp3lame:version.obj
 0002:00011d20       ??_C@_0DB@EJLADBBI@Error?3?5MAX_HEADER_BUF?5too?5small?5@ 0000000180081d20     libmp3lame:bitstream.obj
 0002:00011d58       ??_C@_0CE@MLJFCMKN@strange?5error?5flushing?5buffer?5?4?4@ 0000000180081d58     libmp3lame:bitstream.obj
 0002:00011d80       ??_C@_0DF@BPHLLGHC@Internal?5buffer?5inconsistency?4?5f@ 0000000180081d80     libmp3lame:bitstream.obj
 0002:00011dc0       ??_C@_0BBH@PPBGFIEC@bit?5reservoir?5error?3?5?6l3_side?9?$DOm@ 0000000180081dc0     libmp3lame:bitstream.obj
 0002:00011ed8       ??_C@_0DI@DFGHOLND@This?5is?5a?5fatal?5error?4?5?5It?5has?5s@ 0000000180081ed8     libmp3lame:bitstream.obj
 0002:00011f10       ??_C@_0EL@BNOLJPOH@90?$CF?$CF?5?5LAME?5compiled?5with?5buggy?5v@ 0000000180081f10     libmp3lame:bitstream.obj
 0002:00011f60       ??_C@_0CB@CHENHKNJ@?59?$CF?$CF?5?5Your?5system?5is?5overclocked@ 0000000180081f60     libmp3lame:bitstream.obj
 0002:00011f88       ??_C@_0CD@OBIAECME@?51?$CF?$CF?5?5bug?5in?5LAME?5encoding?5libra@ 0000000180081f88     libmp3lame:bitstream.obj
 0002:00011fb0       ??_C@_0CI@LELFCFFB@Error?3?5can?8t?5allocate?5VbrFrames?5@ 0000000180081fb0     libmp3lame:VbrTag.obj
 0002:00011fd8       ??_C@_0DI@PCNINCMI@INTERNAL?5ERROR?5IN?5VBR?5NEW?5CODE?0?5@ 0000000180081fd8     libmp3lame:quantize.obj
 0002:00012010       ??_C@_0CG@GKEADOFJ@intensity?5stereo?5not?5implemented@ 0000000180082010     libmp3lame:takehiro.obj
 0002:00012038       ??_C@_0DO@BNLHIGAN@INTERNAL?5ERROR?5IN?5VBR?5NEW?5CODE?5?$CI@ 0000000180082038     libmp3lame:vbrquantize.obj
 0002:00012080       ??_C@_0FG@KBFNAJMM@INTERNAL?5ERROR?5IN?5VBR?5NEW?5CODE?5?$CI@ 0000000180082080     libmp3lame:vbrquantize.obj
 0002:000120e0       ??_C@_0FC@LNEJEKEJ@?6Note?3?5Cut?5frame?5?$CFli?5buffer?5on?5e@ 00000001800820e0     libmpg123:libmpg123.obj
 0002:00012140       ??_C@_0FI@JAPEDGDK@?6Note?3?5Cut?5frame?5?$CFli?5buffer?5on?5b@ 0000000180082140     libmpg123:libmpg123.obj
 0002:000121a0       ??_C@_0JN@ILNAENEH@?$FL?4?4?2?4?4?2?4?4?2deps?2mpg123?2src?2libmpg@ 00000001800821a0     libmpg123:libmpg123.obj
 0002:00012240       ??_C@_0DO@EKAFLIIH@Note?3?5broken?5frame?5?$CFli?0?5filling?5@ 0000000180082240     libmpg123:libmpg123.obj
 0002:00012280       ??_C@_04HAPDLBFF@auto?$AA@ 0000000180082280     libmpg123:optimize.obj
 0002:00012288       ??_C@_07DCLBNMLN@generic?$AA@ 0000000180082288     libmpg123:optimize.obj
 0002:00012290       ??_C@_0P@COAKLPOI@generic_dither?$AA@ 0000000180082290     libmpg123:optimize.obj
 0002:000122a0       ??_C@_04OMAFGPMM@i386?$AA@ 00000001800822a0     libmpg123:optimize.obj
 0002:000122a8       ??_C@_04HBNCFHHF@i486?$AA@ 00000001800822a8     libmpg123:optimize.obj
 0002:000122b0       ??_C@_04MJGODABA@i586?$AA@ 00000001800822b0     libmpg123:optimize.obj
 0002:000122b8       ??_C@_0M@DDDCKPJB@i586_dither?$AA@ 00000001800822b8     libmpg123:optimize.obj
 0002:000122c4       ??_C@_05DJJOJJPE@3DNow?$AA@ 00000001800822c4     libmpg123:optimize.obj
 0002:000122d0       ??_C@_08LIICHJDA@3DNowExt?$AA@ 00000001800822d0     libmpg123:optimize.obj
 0002:000122e0       ??_C@_07NJMHPPEO@AltiVec?$AA@ 00000001800822e0     libmpg123:optimize.obj
 0002:000122e8       ??_C@_03OEPHKLAG@SSE?$AA@  00000001800822e8     libmpg123:optimize.obj
 0002:000122ec       ??_C@_06LCMIGLBN@x86?964?$AA@ 00000001800822ec     libmpg123:optimize.obj
 0002:000122f4       ??_C@_03NHPMNECN@ARM?$AA@  00000001800822f4     libmpg123:optimize.obj
 0002:000122f8       ??_C@_04GHOIOOLD@NEON?$AA@ 00000001800822f8     libmpg123:optimize.obj
 0002:00012300       ??_C@_05NDCJIBBB@nodec?$AA@ 0000000180082300     libmpg123:optimize.obj
 0002:00012310       ??_C@_0HP@EANFMBAL@?$FL?4?4?2?4?4?2?4?4?2deps?2mpg123?2src?2libmpg@ 0000000180082310     libmpg123:optimize.obj
 0002:00012390       ??_C@_0HO@CGGGPGGD@?$FL?4?4?2?4?4?2?4?4?2deps?2mpg123?2src?2libmpg@ 0000000180082390     libmpg123:optimize.obj
 0002:00012410       ??_C@_0IF@KHNHPOPN@?$FL?4?4?2?4?4?2?4?4?2deps?2mpg123?2src?2libmpg@ 0000000180082410     libmpg123:optimize.obj
 0002:000124a0       ??_C@_0FN@FAIOFMBA@?$FL?4?4?2?4?4?2?4?4?2deps?2mpg123?2src?2libmpg@ 00000001800824a0     libmpg123:optimize.obj
 0002:00012500       ??_C@_0FN@NPNOPOKK@?$FL?4?4?2?4?4?2?4?4?2deps?2mpg123?2src?2libmpg@ 0000000180082500     libmpg123:optimize.obj
 0002:00012560       ??_C@_0N@GJHDCDKJ@Decoder?3?5?$CFs?6?$AA@ 0000000180082560     libmpg123:optimize.obj
 0002:00012570       ??_C@_0GD@EGAOHGLA@?$FL?4?4?2?4?4?2?4?4?2deps?2mpg123?2src?2libmpg@ 0000000180082570     libmpg123:frame.obj
 0002:000125e0       ??_C@_0GK@PFBMEPLD@?$FL?4?4?2?4?4?2?4?4?2deps?2mpg123?2src?2libmpg@ 00000001800825e0     libmpg123:frame.obj
 0002:00012650       ??_C@_0GF@MJNIGBGI@?$FL?4?4?2?4?4?2?4?4?2deps?2mpg123?2src?2libmpg@ 0000000180082650     libmpg123:frame.obj
 0002:000126b8       ??_C@_0BO@EEJILHCB@Note?3?5doing?5RVA?5with?5gain?5?$CFf?6?$AA@ 00000001800826b8     libmpg123:frame.obj
 0002:000126e0       ??_C@_0IK@BLABFKIJ@?$FL?4?4?2?4?4?2?4?4?2deps?2mpg123?2src?2libmpg@ 00000001800826e0     libmpg123:frame.obj
 0002:00012770       ??_C@_0FA@FOPKLIAD@?$FL?4?4?2?4?4?2?4?4?2deps?2mpg123?2src?2libmpg@ 0000000180082770     libmpg123:index.obj
 0002:000127c0       ??_C@_04JEJHKEED@TIT2?$AA@ 00000001800827c0     libmpg123:id3.obj
 0002:000127c8       ??_C@_04GMCJAHJC@TALB?$AA@ 00000001800827c8     libmpg123:id3.obj
 0002:000127d0       ??_C@_04IPEPCGNC@TPE1?$AA@ 00000001800827d0     libmpg123:id3.obj
 0002:000127d8       ??_C@_04LMJHFBDM@TYER?$AA@ 00000001800827d8     libmpg123:id3.obj
 0002:000127e0       ??_C@_04GINDDOEM@TCON?$AA@ 00000001800827e0     libmpg123:id3.obj
 0002:000127f0       ??_C@_0GC@DDMMOJMB@?$FL?4?4?2?4?4?2?4?4?2deps?2mpg123?2src?2libmpg@ 00000001800827f0     libmpg123:id3.obj
 0002:00012860       ??_C@_0HG@CFHNKMGC@?$FL?4?4?2?4?4?2?4?4?2deps?2mpg123?2src?2libmpg@ 0000000180082860     libmpg123:id3.obj
 0002:000128e0       ??_C@_0GK@LJEIPDMM@?$FL?4?4?2?4?4?2?4?4?2deps?2mpg123?2src?2libmpg@ 00000001800828e0     libmpg123:id3.obj
 0002:00012950       ??_C@_0KH@FEADOIPF@?$FL?4?4?2?4?4?2?4?4?2deps?2mpg123?2src?2libmpg@ 0000000180082950     libmpg123:id3.obj
 0002:000129f8       ??_C@_07OIFGCLOM@Latin?51?$AA@ 00000001800829f8     libmpg123:id3.obj
 0002:00012a00       ??_C@_0L@PAGPBKBM@UTF?916?5BOM?$AA@ 0000000180082a00     libmpg123:id3.obj
 0002:00012a10       ??_C@_09JCALINDH@UTF?916?5BE?$AA@ 0000000180082a10     libmpg123:id3.obj
 0002:00012a1c       ??_C@_05EGJIMALK@UTF?98?$AA@ 0000000180082a1c     libmpg123:id3.obj
 0002:00012a28       ??_C@_08POLACCAH@unknown?$CB?$AA@ 0000000180082a28     libmpg123:id3.obj
 0002:00012a38       ??_C@_0CF@IOFFJPFJ@Note?3?5Storing?5text?5from?5?$CFs?5encod@ 0000000180082a38     libmpg123:id3.obj
 0002:00012a60       ??_C@_0FB@FHAAPMHH@?$FL?4?4?2?4?4?2?4?4?2deps?2mpg123?2src?2libmpg@ 0000000180082a60     libmpg123:id3.obj
 0002:00012ab8       ??_C@_0CF@EOOPGNF@Note?3?5ID3v2?5?$CFc?$CFc?$CFc?$CFc?5text?5frame?3@ 0000000180082ab8     libmpg123:id3.obj
 0002:00012ae0       ??_C@_0GK@HLEMDBJH@?$FL?4?4?2?4?4?2?4?4?2deps?2mpg123?2src?2libmpg@ 0000000180082ae0     libmpg123:id3.obj
 0002:00012b50       ??_C@_0CI@JCLLDDIO@Note?3?5Storing?5comment?5from?5?$CFs?5en@ 0000000180082b50     libmpg123:id3.obj
 0002:00012b80       ??_C@_0FE@KALAEMAP@?$FL?4?4?2?4?4?2?4?4?2deps?2mpg123?2src?2libmpg@ 0000000180082b80     libmpg123:id3.obj
 0002:00012be0       ??_C@_0FL@GCBPBPEK@?$FL?4?4?2?4?4?2?4?4?2deps?2mpg123?2src?2libmpg@ 0000000180082be0     libmpg123:id3.obj
 0002:00012c40       ??_C@_0CJ@JPPNAMLH@Note?3?5ID3?5comm?1uslt?5desc?5of?5leng@ 0000000180082c40     libmpg123:id3.obj
 0002:00012c70       ??_C@_0CJ@LBGDNDAL@Note?3?5ID3?5comm?1uslt?5text?5of?5leng@ 0000000180082c70     libmpg123:id3.obj
 0002:00012c9c       ??_C@_03DDBHAGPA@rva?$AA@  0000000180082c9c     libmpg123:id3.obj
 0002:00012ca0       ??_C@_07OLFHPLAA@rva_mix?$AA@ 0000000180082ca0     libmpg123:id3.obj
 0002:00012ca8       ??_C@_09PIAPOKAD@rva_track?$AA@ 0000000180082ca8     libmpg123:id3.obj
 0002:00012cb8       ??_C@_09FHDDFEKM@rva_radio?$AA@ 0000000180082cb8     libmpg123:id3.obj
 0002:00012cc8       ??_C@_09CIIAIHGC@rva_album?$AA@ 0000000180082cc8     libmpg123:id3.obj
 0002:00012cd8       ??_C@_0P@IGDHNNAC@rva_audiophile?$AA@ 0000000180082cd8     libmpg123:id3.obj
 0002:00012ce8       ??_C@_08GGCIBHBE@rva_user?$AA@ 0000000180082ce8     libmpg123:id3.obj
 0002:00012cf8       ??_C@_0BG@GOHMJNID@Note?3?5RVA?5value?5?$CFfdB?6?$AA@ 0000000180082cf8     libmpg123:id3.obj
 0002:00012d10       ??_C@_0CG@CANBKPAO@Note?3?5Storing?5extra?5from?5?$CFs?5enco@ 0000000180082d10     libmpg123:id3.obj
 0002:00012d40       ??_C@_0FP@MCOBJCLI@?$FL?4?4?2?4?4?2?4?4?2deps?2mpg123?2src?2libmpg@ 0000000180082d40     libmpg123:id3.obj
 0002:00012da0       ??_C@_0FH@BGJHIGAN@?$FL?4?4?2?4?4?2?4?4?2deps?2mpg123?2src?2libmpg@ 0000000180082da0     libmpg123:id3.obj
 0002:00012df8       ??_C@_0BC@HFGFFAPH@replaygain_track_?$AA@ 0000000180082df8     libmpg123:id3.obj
 0002:00012e10       ??_C@_0CG@LHFMHPFF@Note?3?5RVA?5ReplayGain?5track?5gain?1@ 0000000180082e10     libmpg123:id3.obj
 0002:00012e38       ??_C@_0BG@HFNOOOHK@replaygain_track_peak?$AA@ 0000000180082e38     libmpg123:id3.obj
 0002:00012e50       ??_C@_0BG@FLBIJHEC@replaygain_track_gain?$AA@ 0000000180082e50     libmpg123:id3.obj
 0002:00012e68       ??_C@_0BC@EPAAIOFE@replaygain_album_?$AA@ 0000000180082e68     libmpg123:id3.obj
 0002:00012e80       ??_C@_0CG@LNOOAAOP@Note?3?5RVA?5ReplayGain?5album?5gain?1@ 0000000180082e80     libmpg123:id3.obj
 0002:00012ea8       ??_C@_0BG@HDJBAGPL@replaygain_album_peak?$AA@ 0000000180082ea8     libmpg123:id3.obj
 0002:00012ec0       ??_C@_0BG@FNFHHPMD@replaygain_album_gain?$AA@ 0000000180082ec0     libmpg123:id3.obj
 0002:00012ed8       ??_C@_0BD@PKJHPPNP@Note?3?5RVA?5peak?5?$CFf?6?$AA@ 0000000180082ed8     libmpg123:id3.obj
 0002:00012ef0       ??_C@_0BF@ELECAJA@Note?3?5RVA?5gain?5?$CFfdB?6?$AA@ 0000000180082ef0     libmpg123:id3.obj
 0002:00012f08       ??_C@_03GJALCMIF@COM?$AA@  0000000180082f08     libmpg123:id3.obj
 0002:00012f0c       ??_C@_03LHEAFPOI@TAL?$AA@  0000000180082f0c     libmpg123:id3.obj
 0002:00012f10       ??_C@_03FDHBLMOM@TBP?$AA@  0000000180082f10     libmpg123:id3.obj
 0002:00012f14       ??_C@_03KNNPLKMH@TCM?$AA@  0000000180082f14     libmpg123:id3.obj
 0002:00012f18       ??_C@_03JPOJNIEF@TCO?$AA@  0000000180082f18     libmpg123:id3.obj
 0002:00012f1c       ??_C@_03GAIFLEFJ@TCR?$AA@  0000000180082f1c     libmpg123:id3.obj
 0002:00012f20       ??_C@_03ECFODEO@TDA?$AA@   0000000180082f20     libmpg123:id3.obj
 0002:00012f24       ??_C@_03IGDOHLBH@TDY?$AA@  0000000180082f24     libmpg123:id3.obj
 0002:00012f28       ??_C@_03ICHPJFLG@TEN?$AA@  0000000180082f28     libmpg123:id3.obj
 0002:00012f2c       ??_C@_03DABENBDE@TFT?$AA@  0000000180082f2c     libmpg123:id3.obj
 0002:00012f30       ??_C@_03KAEIDPBB@TIM?$AA@  0000000180082f30     libmpg123:id3.obj
 0002:00012f34       ??_C@_03GLBFGBHH@TKE?$AA@  0000000180082f34     libmpg123:id3.obj
 0002:00012f38       ??_C@_03KDGLCPG@TLA?$AA@   0000000180082f38     libmpg123:id3.obj
 0002:00012f3c       ??_C@_03GOFKHHPC@TLE?$AA@  0000000180082f3c     libmpg123:id3.obj
 0002:00012f40       ??_C@_03DMEBDONF@TMT?$AA@  0000000180082f40     libmpg123:id3.obj
 0002:00012f44       ??_C@_03IHAAMKP@TOA?$AA@   0000000180082f44     libmpg123:id3.obj
 0002:00012f48       ??_C@_03EHDBJKGI@TOF?$AA@  0000000180082f48     libmpg123:id3.obj
 0002:00012f4c       ??_C@_03LNNOHCOC@TOL?$AA@  0000000180082f4c     libmpg123:id3.obj
 0002:00012f50       ??_C@_03GJJPENDN@TOR?$AA@  0000000180082f50     libmpg123:id3.obj
 0002:00012f54       ??_C@_03DPMFOKLL@TOT?$AA@  0000000180082f54     libmpg123:id3.obj
 0002:00012f58       ??_C@_03DADFJBBE@TP1?$AA@  0000000180082f58     libmpg123:id3.obj
 0002:00012f5c       ??_C@_03BLBIMCNH@TP2?$AA@  0000000180082f5c     libmpg123:id3.obj
 0002:00012f60       ??_C@_03CADPDJG@TP3?$AA@   0000000180082f60     libmpg123:id3.obj
 0002:00012f64       ??_C@_03ENECGFFB@TP4?$AA@  0000000180082f64     libmpg123:id3.obj
 0002:00012f68       ??_C@_03BPAKOIOC@TPA?$AA@  0000000180082f68     libmpg123:id3.obj
 0002:00012f6c       ??_C@_03DECHLLCB@TPB?$AA@  0000000180082f6c     libmpg123:id3.obj
 0002:00012f70       ??_C@_03COLIFOAO@TRC?$AA@  0000000180082f70     libmpg123:id3.obj
 0002:00012f74       ??_C@_03OGGBNEAG@TRK?$AA@  0000000180082f74     libmpg123:id3.obj
 0002:00012f78       ??_C@_03NFJFNMLD@TSI?$AA@  0000000180082f78     libmpg123:id3.obj
 0002:00012f7c       ??_C@_03GFLICGGI@TSS?$AA@  0000000180082f7c     libmpg123:id3.obj
 0002:00012f80       ??_C@_03DHDMDJMI@TT1?$AA@  0000000180082f80     libmpg123:id3.obj
 0002:00012f84       ??_C@_03BMBBGKAL@TT2?$AA@  0000000180082f84     libmpg123:id3.obj
 0002:00012f88       ??_C@_03FAKFLEK@TT3?$AA@   0000000180082f88     libmpg123:id3.obj
 0002:00012f8c       ??_C@_03CGKMFPEO@TXT?$AA@  0000000180082f8c     libmpg123:id3.obj
 0002:00012f90       ??_C@_03IKBJBAEC@TXX?$AA@  0000000180082f90     libmpg123:id3.obj
 0002:00012f94       ??_C@_03HELHBGGJ@TYE?$AA@  0000000180082f94     libmpg123:id3.obj
 0002:00012f98       ??_C@_04NIGMENML@COMM?$AA@ 0000000180082f98     libmpg123:id3.obj
 0002:00012fa0       ??_C@_04OMDIOOKH@TBPM?$AA@ 0000000180082fa0     libmpg123:id3.obj
 0002:00012fa8       ??_C@_04EDPOGNIP@TCOM?$AA@ 0000000180082fa8     libmpg123:id3.obj
 0002:00012fb0       ??_C@_04LMJCABJD@TCOP?$AA@ 0000000180082fb0     libmpg123:id3.obj
 0002:00012fb8       ??_C@_04EPLHNBCE@TDAT?$AA@ 0000000180082fb8     libmpg123:id3.obj
 0002:00012fc0       ??_C@_04PCMBDMDK@TDLY?$AA@ 0000000180082fc0     libmpg123:id3.obj
 0002:00012fc8       ??_C@_04PJNEHFOK@TENC?$AA@ 0000000180082fc8     libmpg123:id3.obj
 0002:00012fd0       ??_C@_04ONGGIKPM@TFLT?$AA@ 0000000180082fd0     libmpg123:id3.obj
 0002:00012fd8       ??_C@_04OHBONDIN@TIME?$AA@ 0000000180082fd8     libmpg123:id3.obj
 0002:00012fe0       ??_C@_04KFHDBHOD@TKEY?$AA@ 0000000180082fe0     libmpg123:id3.obj
 0002:00012fe8       ??_C@_04DKCOADBA@TLAN?$AA@ 0000000180082fe8     libmpg123:id3.obj
 0002:00012ff0       ??_C@_04DNCHKLMM@TLEN?$AA@ 0000000180082ff0     libmpg123:id3.obj
 0002:00012ff8       ??_C@_04HPHECECD@TMED?$AA@ 0000000180082ff8     libmpg123:id3.obj
 0002:00013000       ??_C@_04NGILLMHC@TOPE?$AA@ 0000000180083000     libmpg123:id3.obj
 0002:00013008       ??_C@_04CNNELKHL@TOFN?$AA@ 0000000180083008     libmpg123:id3.obj
 0002:00013010       ??_C@_04CFMALLDL@TOLY?$AA@ 0000000180083010     libmpg123:id3.obj
 0002:00013018       ??_C@_04DDHIDFEB@TORY?$AA@ 0000000180083018     libmpg123:id3.obj
 0002:00013020       ??_C@_04BKKNMOHM@TOAL?$AA@ 0000000180083020     libmpg123:id3.obj
 0002:00013028       ??_C@_04KEGCHFBB@TPE2?$AA@ 0000000180083028     libmpg123:id3.obj
 0002:00013030       ??_C@_04LNHJEEFA@TPE3?$AA@ 0000000180083030     libmpg123:id3.obj
 0002:00013038       ??_C@_04PCDINCJH@TPE4?$AA@ 0000000180083038     libmpg123:id3.obj
 0002:00013040       ??_C@_04NFBDKKCB@TPOS?$AA@ 0000000180083040     libmpg123:id3.obj
 0002:00013048       ??_C@_04JHHLKPJH@TPUB?$AA@ 0000000180083048     libmpg123:id3.obj
 0002:00013050       ??_C@_04JJJKCHLN@TSRC?$AA@ 0000000180083050     libmpg123:id3.obj
 0002:00013058       ??_C@_04LLLPNJI@TRDA?$AA@  0000000180083058     libmpg123:id3.obj
 0002:00013060       ??_C@_04PEBLADJH@TRCK?$AA@ 0000000180083060     libmpg123:id3.obj
 0002:00013068       ??_C@_04BCOJMCDE@TSIZ?$AA@ 0000000180083068     libmpg123:id3.obj
 0002:00013070       ??_C@_04MOACOKAM@TSSE?$AA@ 0000000180083070     libmpg123:id3.obj
 0002:00013078       ??_C@_04LPLKPHIA@TIT1?$AA@ 0000000180083078     libmpg123:id3.obj
 0002:00013080       ??_C@_04INIMJFAC@TIT3?$AA@ 0000000180083080     libmpg123:id3.obj
 0002:00013088       ??_C@_04OEPMCOLO@TEXT?$AA@ 0000000180083088     libmpg123:id3.obj
 0002:00013090       ??_C@_04OKDKOOPA@TXXX?$AA@ 0000000180083090     libmpg123:id3.obj
 0002:00013098       ??_C@_0CD@MKAHHIIM@Translated?5ID3v2?42?5frame?5?$CFs?5to?5?$CF@ 0000000180083098     libmpg123:id3.obj
 0002:000130c0       ??_C@_0CM@EBMOFCAF@Ignoring?5untranslated?5ID3v2?42?5fr@ 00000001800830c0     libmpg123:id3.obj
 0002:000130f0       ??_C@_0IG@ICMNCIHP@?$FL?4?4?2?4?4?2?4?4?2deps?2mpg123?2src?2libmpg@ 00000001800830f0     libmpg123:id3.obj
 0002:00013178       ??_C@_0CI@EPIBLGHH@Note?3?5ID3v2?4?$CFi?5rev?5?$CFi?5tag?5of?5?$CFlu@ 0000000180083178     libmpg123:id3.obj
 0002:000131a0       ??_C@_0CM@HKPHPHCH@Note?3?5Skipping?5ID3v2?5tag?5per?5use@ 00000001800831a0     libmpg123:id3.obj
 0002:000131d0       ??_C@_0JP@ONMLNJF@?$FL?4?4?2?4?4?2?4?4?2deps?2mpg123?2src?2libmpg@ 00000001800831d0     libmpg123:id3.obj
 0002:00013270       ??_C@_0GJ@LJGJEKKD@?$FL?4?4?2?4?4?2?4?4?2deps?2mpg123?2src?2libmpg@ 0000000180083270     libmpg123:id3.obj
 0002:000132e0       ??_C@_0HK@BJMNGGE@?$FL?4?4?2?4?4?2?4?4?2deps?2mpg123?2src?2libmpg@ 00000001800832e0     libmpg123:id3.obj
 0002:00013360       ??_C@_0CC@CJGBCIEO@Note?3?5ID3v2?5?$CFs?5frame?5of?5size?5?$CFlu@ 0000000180083360     libmpg123:id3.obj
 0002:00013390       ??_C@_0HM@FCIEFAJK@?$FL?4?4?2?4?4?2?4?4?2deps?2mpg123?2src?2libmpg@ 0000000180083390     libmpg123:id3.obj
 0002:00013410       ??_C@_0GC@NKBHEOEE@?$FL?4?4?2?4?4?2?4?4?2deps?2mpg123?2src?2libmpg@ 0000000180083410     libmpg123:id3.obj
 0002:00013480       ??_C@_0GN@NKFDNHAE@?$FL?4?4?2?4?4?2?4?4?2deps?2mpg123?2src?2libmpg@ 0000000180083480     libmpg123:id3.obj
 0002:000134f0       ??_C@_0CA@JMPJDLMC@Note?3?5RVA2?5identification?5?$CC?$CFs?$CC?6?$AA@ 00000001800834f0     libmpg123:id3.obj
 0002:00013510       ??_C@_0L@BLJODKGB@audiophile?$AA@ 0000000180083510     libmpg123:id3.obj
 0002:0001351c       ??_C@_04CCHAHKJA@user?$AA@ 000000018008351c     libmpg123:id3.obj
 0002:00013530       ??_C@_0FD@KILIGM@?$FL?4?4?2?4?4?2?4?4?2deps?2mpg123?2src?2libmpg@ 0000000180083530     libmpg123:id3.obj
 0002:00013590       ??_C@_0GD@GHOIEKKI@?$FL?4?4?2?4?4?2?4?4?2deps?2mpg123?2src?2libmpg@ 0000000180083590     libmpg123:id3.obj
 0002:00013600       ??_C@_0JG@CHOGOLLD@?$FL?4?4?2?4?4?2?4?4?2deps?2mpg123?2src?2libmpg@ 0000000180083600     libmpg123:id3.obj
 0002:000136a0       ??_C@_0GF@HLKODFDN@?$FL?4?4?2?4?4?2?4?4?2deps?2mpg123?2src?2libmpg@ 00000001800836a0     libmpg123:id3.obj
 0002:00013708       ??_C@_06GIIPNMDE@8bit?0?5?$AA@ 0000000180083708     libmpg123:format.obj
 0002:00013710       ??_C@_08PBOCMAON@stereo?0?5?$AA@ 0000000180083710     libmpg123:format.obj
 0002:0001371c       ??_C@_06JAMEAFHE@mono?0?5?$AA@ 000000018008371c     libmpg123:format.obj
 0002:00013730       ??_C@_0HB@NOFCJEEM@?$FL?4?4?2?4?4?2?4?4?2deps?2mpg123?2src?2libmpg@ 0000000180083730     libmpg123:format.obj
 0002:000137b0       ??_C@_0HN@PPBPKOAG@?$FL?4?4?2?4?4?2?4?4?2deps?2mpg123?2src?2libmpg@ 00000001800837b0     libmpg123:format.obj
 0002:00013830       ??_C@_0FH@OHBFKAPH@?$FL?4?4?2?4?4?2?4?4?2deps?2mpg123?2src?2libmpg@ 0000000180083830     libmpg123:format.obj
 0002:00013888       ??_C@_0BN@NBAGODD@Note?3?5Enabling?5all?5formats?4?6?$AA@ 0000000180083888     libmpg123:format.obj
 0002:000138b0       ??_C@_0HH@BKHEKKEE@?$FL?4?4?2?4?4?2?4?4?2deps?2mpg123?2src?2libmpg@ 00000001800838b0     libmpg123:readers.obj
 0002:00013930       ??_C@_0EM@CHADBAPC@?$FL?4?4?2?4?4?2?4?4?2deps?2mpg123?2src?2libmpg@ 0000000180083930     libmpg123:readers.obj
 0002:00013980       ??_C@_0EL@OPMMFDMO@?$FL?4?4?2?4?4?2?4?4?2deps?2mpg123?2src?2libmpg@ 0000000180083980     libmpg123:readers.obj
 0002:000139d0       ??_C@_0EL@JFOBGDAL@?$FL?4?4?2?4?4?2?4?4?2deps?2mpg123?2src?2libmpg@ 00000001800839d0     libmpg123:readers.obj
 0002:00013a20       ??_C@_0IM@JKFJBLAE@?$FL?4?4?2?4?4?2?4?4?2deps?2mpg123?2src?2libmpg@ 0000000180083a20     libmpg123:readers.obj
 0002:00013ab0       ??_C@_0FC@LFDJJLDM@?$FL?4?4?2?4?4?2?4?4?2deps?2mpg123?2src?2libmpg@ 0000000180083ab0     libmpg123:readers.obj
 0002:00013b04       ??_C@_03FELEIGCD@TAG?$AA@  0000000180083b04     libmpg123:readers.obj
 0002:00013b10       ??_C@_0FL@POOCPIMI@?$FL?4?4?2?4?4?2?4?4?2deps?2mpg123?2src?2libmpg@ 0000000180083b10     libmpg123:readers.obj
 0002:00013b70       ??_C@_0EJ@JJLDIDBA@?$FL?4?4?2?4?4?2?4?4?2deps?2mpg123?2src?2libmpg@ 0000000180083b70     libmpg123:readers.obj
 0002:00013bc0       ??_C@_0FN@OEDEAPMJ@?$FL?4?4?2?4?4?2?4?4?2deps?2mpg123?2src?2libmpg@ 0000000180083bc0     libmpg123:readers.obj
 0002:00013c20       ??_C@_0BH@FNIFIPLL@Note?3?5Input?5data?5end?4?6?$AA@ 0000000180083c20     libmpg123:readers.obj
 0002:00013c40       ??_C@_0EM@BKICAFJI@?$FL?4?4?2?4?4?2?4?4?2deps?2mpg123?2src?2libmpg@ 0000000180083c40     libmpg123:readers.obj
 0002:00013c90       ??_C@_0GE@POICCKKP@?$FL?4?4?2?4?4?2?4?4?2deps?2mpg123?2src?2libmpg@ 0000000180083c90     libmpg123:readers.obj
 0002:00013d00       ??_C@_0FN@HLHKKKMD@?$FL?4?4?2?4?4?2?4?4?2deps?2mpg123?2src?2libmpg@ 0000000180083d00     libmpg123:readers.obj
 0002:00013d60       ??_C@_0CP@INHFFCOL@Truncating?5stereo?5boundary?5to?5si@ 0000000180083d60     libmpg123:layer2.obj
 0002:00013d90       ??_C@_0BP@CPJPHBLB@Init?5rate?5converter?3?5?$CFld?9?$DO?$CFld?6?$AA@ 0000000180083d90     libmpg123:ntom.obj
 0002:00013db0       ??_C@_0FF@PAFPGDBB@?$FL?4?4?2?4?4?2?4?4?2deps?2mpg123?2src?2libmpg@ 0000000180083db0     libmpg123:ntom.obj
 0002:00013e10       ??_C@_0GC@ENPHBKFM@?$FL?4?4?2?4?4?2?4?4?2deps?2mpg123?2src?2libmpg@ 0000000180083e10     libmpg123:ntom.obj
 0002:00013e78       ??_C@_0DH@BLNOIOAL@Note?3?5missing?5?$CFd?5bytes?5in?5bit?5re@ 0000000180083e78     libmpg123:layer3.obj
 0002:00013eb0       ??_C@_0EP@JJEIAMLA@?$FL?4?4?2?4?4?2?4?4?2deps?2mpg123?2src?2libmpg@ 0000000180083eb0     libmpg123:layer3.obj
 0002:00013f00       ??_C@_0GP@HHEBENJH@?$FL?4?4?2?4?4?2?4?4?2deps?2mpg123?2src?2libmpg@ 0000000180083f00     libmpg123:layer3.obj
 0002:00013f70       ??_C@_0FN@MFLPECLC@?$FL?4?4?2?4?4?2?4?4?2deps?2mpg123?2src?2libmpg@ 0000000180083f70     libmpg123:layer3.obj
 0002:00013fd0       ??_C@_0GC@DPMLDIIH@?$FL?4?4?2?4?4?2?4?4?2deps?2mpg123?2src?2libmpg@ 0000000180083fd0     libmpg123:layer3.obj
 0002:00014040       ??_C@_0FA@HPFIJPEC@?$FL?4?4?2?4?4?2?4?4?2deps?2mpg123?2src?2libmpg@ 0000000180084040     libmpg123:layer3.obj
 0002:00014090       ??_C@_0CG@FEBNNJJD@Note?3?5Xing?1Lame?1Info?5header?5dete@ 0000000180084090     libmpg123:parse.obj
 0002:000140c0       ??_C@_0EC@KFGMJMIO@Note?3?5Ignoring?5Xing?5frames?5becau@ 00000001800840c0     libmpg123:parse.obj
 0002:00014108       ??_C@_0BI@HIACKKG@Note?3?5Xing?3?5?$CFlu?5frames?6?$AA@ 0000000180084108     libmpg123:parse.obj
 0002:00014120       ??_C@_0EB@EEAHJKFO@Note?3?5Ignoring?5Xing?5bytes?5becaus@ 0000000180084120     libmpg123:parse.obj
 0002:00014170       ??_C@_0EN@IAAKJFKG@Note?3?5Xing?5stream?5size?5?$CFlu?5diffe@ 0000000180084170     libmpg123:parse.obj
 0002:000141c0       ??_C@_0GG@JMOOOEJL@Warning?3?5Xing?5stream?5size?5off?5by@ 00000001800841c0     libmpg123:parse.obj
 0002:00014228       ??_C@_0BH@BIFBKPKK@Note?3?5Xing?3?5?$CFlu?5bytes?6?$AA@ 0000000180084228     libmpg123:parse.obj
 0002:00014240       ??_C@_0BL@OJACMGJP@Note?3?5Xing?3?5quality?5?$DN?5?$CFlu?6?$AA@ 0000000180084240     libmpg123:parse.obj
 0002:00014260       ??_C@_0BJ@IEIKGDMO@Note?3?5Info?3?5Encoder?3?5?$CFs?6?$AA@ 0000000180084260     libmpg123:parse.obj
 0002:0001427c       ??_C@_04HCDKCHCB@LAME?$AA@ 000000018008427c     libmpg123:parse.obj
 0002:00014288       ??_C@_07MHOJIJIK@?$CFu?4?$CFu?$CFs?$AA@ 0000000180084288     libmpg123:parse.obj
 0002:00014290       ??_C@_0EC@JPDBPJCK@Note?3?5Info?3?5Old?5LAME?5detected?0?5u@ 0000000180084290     libmpg123:parse.obj
 0002:000142d8       ??_C@_0CM@JFPLNMFH@Note?3?5Info?3?5Cannot?5determine?5LAM@ 00000001800842d8     libmpg123:parse.obj
 0002:00014308       ??_C@_0BE@MKDNHGDN@Note?3?5Info?3?5rev?5?$CFu?6?$AA@ 0000000180084308     libmpg123:parse.obj
 0002:00014320       ??_C@_0BJ@PLMCCNHP@Note?3?5Info?3?5vbr?5mode?5?$CFu?6?$AA@ 0000000180084320     libmpg123:parse.obj
 0002:00014340       ??_C@_0CK@LAJHGKOA@Note?3?5Info?3?5peak?5?$DN?5?$CFf?5?$CII?5won?8t?5u@ 0000000180084340     libmpg123:parse.obj
 0002:00014370       ??_C@_0CD@EHPANFLH@Note?3?5Info?3?5Radio?5Gain?5?$DN?5?$CF03?41fd@ 0000000180084370     libmpg123:parse.obj
 0002:00014398       ??_C@_0CI@CGOOAFPL@Note?3?5Info?3?5Audiophile?5Gain?5?$DN?5?$CF0@ 0000000180084398     libmpg123:parse.obj
 0002:000143c0       ??_C@_0BL@EDBCALD@Note?3?5Info?3?5ABR?5rate?5?$DN?5?$CFu?6?$AA@ 00000001800843c0     libmpg123:parse.obj
 0002:000143e0       ??_C@_0CI@KDLOPFBJ@Note?3?5Encoder?5delay?5?$DN?5?$CFi?$DL?5paddin@ 00000001800843e0     libmpg123:parse.obj
 0002:00014410       ??_C@_0FN@OAHCNBGM@?6Warning?3?5Encountered?5more?5data?5@ 0000000180084410     libmpg123:parse.obj
 0002:00014470       ??_C@_0IJ@FDDNNNJD@?$FL?4?4?2?4?4?2?4?4?2deps?2mpg123?2src?2libmpg@ 0000000180084470     libmpg123:parse.obj
 0002:00014500       ??_C@_0ID@JMOJIHI@?$FL?4?4?2?4?4?2?4?4?2deps?2mpg123?2src?2libmpg@ 0000000180084500     libmpg123:parse.obj
 0002:00014588       ??_C@_0CC@LODMHIBJ@Note?3?5free?5format?5frame?5size?5?$CFli@ 0000000180084588     libmpg123:parse.obj
 0002:000145b0       ??_C@_0HI@COMHHAPJ@?$FL?4?4?2?4?4?2?4?4?2deps?2mpg123?2src?2libmpg@ 00000001800845b0     libmpg123:parse.obj
 0002:00014630       ??_C@_0GD@NIFMPFOO@?$FL?4?4?2?4?4?2?4?4?2deps?2mpg123?2src?2libmpg@ 0000000180084630     libmpg123:parse.obj
 0002:000146a0       ??_C@_0EP@PCFLPLND@?$FL?4?4?2?4?4?2?4?4?2deps?2mpg123?2src?2libmpg@ 00000001800846a0     libmpg123:parse.obj
 0002:000146f0       ??_C@_0EF@IJGCBLOH@?$FL?4?4?2?4?4?2?4?4?2deps?2mpg123?2src?2libmpg@ 00000001800846f0     libmpg123:parse.obj
 0002:00014740       ??_C@_0EK@NMPEOGCI@?$FL?4?4?2?4?4?2?4?4?2deps?2mpg123?2src?2libmpg@ 0000000180084740     libmpg123:parse.obj
 0002:00014790       ??_C@_0GO@IMJNMHHM@?$FL?4?4?2?4?4?2?4?4?2deps?2mpg123?2src?2libmpg@ 0000000180084790     libmpg123:parse.obj
 0002:00014800       ??_C@_0FC@GJINCLAO@?$FL?4?4?2?4?4?2?4?4?2deps?2mpg123?2src?2libmpg@ 0000000180084800     libmpg123:parse.obj
 0002:00014858       ??_C@_0CH@GCENMFDO@Note?3?5Junk?5at?5the?5beginning?5?$CI0x?$CF@ 0000000180084858     libmpg123:parse.obj
 0002:00014880       ??_C@_0CB@ECCJEMLC@Note?3?5Looks?5like?5a?5RIFF?5header?4?6@ 0000000180084880     libmpg123:parse.obj
 0002:000148a8       ??_C@_0BM@CBJLOCCO@Note?3?5Skipped?5RIFF?5header?$CB?6?$AA@ 00000001800848a8     libmpg123:parse.obj
 0002:000148d0       ??_C@_0HH@JENINFMK@?$FL?4?4?2?4?4?2?4?4?2deps?2mpg123?2src?2libmpg@ 00000001800848d0     libmpg123:parse.obj
 0002:00014948       ??_C@_0BK@DLCCMMDH@Note?3?5Skipped?5ID3v1?5tag?4?6?$AA@ 0000000180084948     libmpg123:parse.obj
 0002:00014968       ??_C@_0DI@LKIBEBJA@Note?3?5Illegal?5Audio?9MPEG?9Header?5@ 0000000180084968     libmpg123:parse.obj
 0002:000149a0       ??_C@_0CB@KNBDGNJH@Note?3?5Could?5be?5a?5BMP?5album?5art?4?6@ 00000001800849a0     libmpg123:parse.obj
 0002:000149c8       ??_C@_0BL@OELPIEFH@Note?3?5Trying?5to?5resync?4?4?4?6?$AA@ 00000001800849c8     libmpg123:parse.obj
 0002:000149e8       ??_C@_0DC@PEOGLKLI@Note?3?5Hit?5end?5of?5?$CIavailable?$CJ?5dat@ 00000001800849e8     libmpg123:parse.obj
 0002:00014a20       ??_C@_0CD@DFPHHCBE@Note?3?5Skipped?5?$CFli?5bytes?5in?5input@ 0000000180084a20     libmpg123:parse.obj
 0002:00014a50       ??_C@_0KC@HHJINAA@?$FL?4?4?2?4?4?2?4?4?2deps?2mpg123?2src?2libmpg@ 0000000180084a50     libmpg123:parse.obj
 0002:00014b00       ??_C@_0FE@BNICBBHH@?$FL?4?4?2?4?4?2?4?4?2deps?2mpg123?2src?2libmpg@ 0000000180084b00     libmpg123:parse.obj
 0002:00014b60       ??_C@_0GC@CDPCAPGI@?$FL?4?4?2?4?4?2?4?4?2deps?2mpg123?2src?2libmpg@ 0000000180084b60     libmpg123:tabinit.obj
 0002:00014bd0       ??_C@_0EK@DIGBCNPM@?$FL?4?4?2?4?4?2?4?4?2deps?2mpg123?2src?2libmpg@ 0000000180084bd0     libmpg123:tabinit.obj
 0002:00014c1c       __real@1e3ce508            0000000180084c1c     libmp3lame:quantize.obj
 0002:00014c20       __real@2433c3fe            0000000180084c20     libmp3lame:encoder.obj
 0002:00014c24       __real@25800000            0000000180084c24     libmp3lame:quantize_pvt.obj
 0002:00014c28       __real@283424dc            0000000180084c28     libmp3lame:quantize_pvt.obj
 0002:00014c2c       __real@2b8cbccc            0000000180084c2c     libmp3lame:quantize.obj
 0002:00014c30       __real@38000000            0000000180084c30     libmpg123:synth_real.obj
 0002:00014c38       __real@3841039d428a8b8f    0000000180084c38     libmp3lame:gain_analysis.obj
 0002:00014c40       __real@38800000            0000000180084c40     libmp3lame:util.obj
 0002:00014c44       __real@3951b717            0000000180084c44     libmp3lame:presets.obj
 0002:00014c48       __real@3a03126f            0000000180084c48     libmp3lame:presets.obj
 0002:00014c4c       __real@3a1d4952            0000000180084c4c     libmp3lame:presets.obj
 0002:00014c50       __real@3a6bedfa            0000000180084c50     libmp3lame:presets.obj
 0002:00014c54       __real@3a800000            0000000180084c54     libmp3lame:psymodel.obj
 0002:00014c58       __real@3b000000            0000000180084c58     libmp3lame:util.obj
 0002:00014c5c       __real@3b727b46            0000000180084c5c     libmp3lame:newmdct.obj
 0002:00014c60       __real@3bc79ca10c924223    0000000180084c60     libmp3lame:lame.obj
 0002:00014c68       __real@3c68a11d            0000000180084c68     libmp3lame:newmdct.obj
 0002:00014c6c       __real@3c800000            0000000180084c6c     libmp3lame:psymodel.obj
 0002:00014c70       __real@3cb0000000000000    0000000180084c70     libmp3lame:quantize_pvt.obj
 0002:00014c78       __real@3ccccccd            0000000180084c78     libmp3lame:quantize_pvt.obj
 0002:00014c7c       __real@3d000000            0000000180084c7c     libmp3lame:encoder.obj
 0002:00014c80       __real@3d27cb87            0000000180084c80     libmp3lame:newmdct.obj
 0002:00014c84       __real@3d4ccccd            0000000180084c84     libmp3lame:quantize_pvt.obj
 0002:00014c88       __real@3d71979980000000    0000000180084c88     libmp3lame:quantize_pvt.obj
 0002:00014c90       __real@3d719799812dea11    0000000180084c90     libmp3lame:newmdct.obj
 0002:00014c98       __real@3da3bc67458a22d1    0000000180084c98     libmp3lame:psymodel.obj
 0002:00014ca0       __real@3db4f934c242e570    0000000180084ca0     libmp3lame:newmdct.obj
 0002:00014ca8       __real@3db4f934c242e573    0000000180084ca8     libmp3lame:newmdct.obj
 0002:00014cb0       __real@3db6c2786cb19c4f    0000000180084cb0     libmp3lame:newmdct.obj
 0002:00014cb8       __real@3dc1b01d            0000000180084cb8     libmp3lame:newmdct.obj
 0002:00014cbc       __real@3dcccccd            0000000180084cbc     libmp3lame:quantize_pvt.obj
 0002:00014cc0       __real@3dd4e054            0000000180084cc0     libmp3lame:encoder.obj
 0002:00014cc8       __real@3ddb7cdfd9d7bdbb    0000000180084cc8     libmp3lame:gain_analysis.obj
 0002:00014cd0       __real@3e06cfea            0000000180084cd0     libmp3lame:newmdct.obj
 0002:00014cd8       __real@3e112e0be826d695    0000000180084cd8     libmp3lame:util.obj
 0002:00014ce0       __real@3e1fa82f            0000000180084ce0     libmp3lame:encoder.obj
 0002:00014ce4       __real@3e31d0d4            0000000180084ce4     libmp3lame:newmdct.obj
 0002:00014ce8       __real@3e3851ec            0000000180084ce8     libmp3lame:psymodel.obj
 0002:00014cec       __real@3e3a4774            0000000180084cec     libmp3lame:newmdct.obj
 0002:00014cf0       __real@3e41bf59            0000000180084cf0     libmp3lame:encoder.obj
 0002:00014cf4       __real@3e5d6cf8            0000000180084cf4     libmp3lame:encoder.obj
 0002:00014cf8       __real@3e6f7c46            0000000180084cf8     libmp3lame:encoder.obj
 0002:00014cfc       __real@3e800000            0000000180084cfc     libmp3lame:psymodel.obj
 0002:00014d00       __real@3ea07302            0000000180084d00     libmp3lame:newmdct.obj
 0002:00014d04       __real@3eaf1d44            0000000180084d04     libmp3lame:newmdct.obj
 0002:00014d08       __real@3eb0c6f7a0000000    0000000180084d08     libmp3lame:lame.obj
 0002:00014d10       __real@3eb851ec            0000000180084d10     libmp3lame:psymodel.obj
 0002:00014d14       __real@3ed413cd            0000000180084d14     libmp3lame:newmdct.obj
 0002:00014d18       __real@3ef186da            0000000180084d18     libmp3lame:newmdct.obj
 0002:00014d1c       __real@3f000000            0000000180084d1c     libmp3lame:newmdct.obj
 0002:00014d20       __real@3f00000000000000    0000000180084d20     libmpg123:tabinit.obj
 0002:00014d28       __real@3f012a30            0000000180084d28     libmp3lame:encoder.obj
 0002:00014d2c       __real@3f03b5fe            0000000180084d2c     libmp3lame:newmdct.obj
 0002:00014d30       __real@3f1837b4            0000000180084d30     libmp3lame:takehiro.obj
 0002:00014d38       __real@3f1a36e2eb1c432d    0000000180084d38     libmp3lame:util.obj
 0002:00014d40       __real@3f248dbb            0000000180084d40     libmp3lame:newmdct.obj
 0002:00014d44       __real@3f3504f3            0000000180084d44     libmp3lame:quantize.obj
 0002:00014d48       __real@3f41bf48            0000000180084d48     libmp3lame:encoder.obj
 0002:00014d4c       __real@3f441b7d            0000000180084d4c     libmp3lame:newmdct.obj
 0002:00014d50       __real@3f446f8b            0000000180084d50     libmp3lame:newmdct.obj
 0002:00014d58       __real@3f447ae147ae147b    0000000180084d58     libmp3lame:encoder.obj
 0002:00014d60       __real@3f50624dd2f1a9fc    0000000180084d60     libmp3lame:util.obj
 0002:00014d68       __real@3f5b84a8            0000000180084d68     libmp3lame:newmdct.obj
 0002:00014d6c       __real@3f5db3d7            0000000180084d6c     libmp3lame:newmdct.obj
 0002:00014d70       __real@3f61b9d8            0000000180084d70     libmp3lame:newmdct.obj
 0002:00014d74       __real@3f666666            0000000180084d74     libmp3lame:quantize.obj
 0002:00014d78       __real@3f6f7c46            0000000180084d78     libmp3lame:encoder.obj
 0002:00014d80       __real@3f70000000000000    0000000180084d80     libmpg123:frame.obj
 0002:00014d88       __real@3f708fb2            0000000180084d88     libmp3lame:newmdct.obj
 0002:00014d8c       __real@3f731add            0000000180084d8c     libmp3lame:newmdct.obj
 0002:00014d90       __real@3f7851ec            0000000180084d90     libmp3lame:presets.obj
 0002:00014d94       __real@3f7bba81            0000000180084d94     libmp3lame:newmdct.obj
 0002:00014d98       __real@3f7c1c5c            0000000180084d98     libmp3lame:newmdct.obj
 0002:00014d9c       __real@3f7eda41            0000000180084d9c     libmp3lame:newmdct.obj
 0002:00014da0       __real@3f7fc8fd            0000000180084da0     libmp3lame:newmdct.obj
 0002:00014da4       __real@3f7fdf3b            0000000180084da4     libmp3lame:util.obj
 0002:00014da8       __real@3f7ff965            0000000180084da8     libmp3lame:newmdct.obj
 0002:00014dac       __real@3f7fff8d            0000000180084dac     libmp3lame:newmdct.obj
 0002:00014db0       __real@3f800000            0000000180084db0     libmp3lame:fft.obj
 0002:00014db4       __real@3f801062            0000000180084db4     libmp3lame:util.obj
 0002:00014db8       __real@3f847ae147ae147b    0000000180084db8     libmp3lame:psymodel.obj
 0002:00014dc0       __real@3f8bafff            0000000180084dc0     libmp3lame:newmdct.obj
 0002:00014dc8       __real@3f964bf964bf964c    0000000180084dc8     libmp3lame:lame.obj
 0002:00014dd0       __real@3f9db22d0e560419    0000000180084dd0     libmp3lame:quantize.obj
 0002:00014dd8       __real@3fa00000            0000000180084dd8     libmp3lame:presets.obj
 0002:00014de0       __real@3fa11114663de4a6    0000000180084de0     libmp3lame:quantize_pvt.obj
 0002:00014de8       __real@3fa47ae147ae147b    0000000180084de8     libmp3lame:util.obj
 0002:00014df0       __real@3fa5fed7            0000000180084df0     libmp3lame:quantize.obj
 0002:00014df8       __real@3fa657184ae74487    0000000180084df8     libmpg123:layer3.obj
 0002:00014e00       __real@3fa6d017            0000000180084e00     libmp3lame:newmdct.obj
 0002:00014e08       __real@3fa999999999999a    0000000180084e08     libmp3lame:quantize.obj
 0002:00014e10       __real@3fa99999999999a0    0000000180084e10     libmp3lame:gain_analysis.obj
 0002:00014e18       __real@3fb1eb851eb851ec    0000000180084e18     libmp3lame:quantize.obj
 0002:00014e20       __real@3fb3333333333333    0000000180084e20     libmp3lame:encoder.obj
 0002:00014e28       __real@3fb47ae147ae147b    0000000180084e28     libmp3lame:util.obj
 0002:00014e30       __real@3fb999999999999a    0000000180084e30     libmp3lame:reservoir.obj
 0002:00014e38       __real@3fbeb852            0000000180084e38     libmp3lame:presets.obj
 0002:00014e40       __real@3fc0c152382d7365    0000000180084e40     libmpg123:layer3.obj
 0002:00014e48       __real@3fc1eb851eb851ec    0000000180084e48     libmp3lame:quantize.obj
 0002:00014e50       __real@3fc3333333333333    0000000180084e50     libmp3lame:quantize.obj
 0002:00014e58       __real@3fc657184ae74487    0000000180084e58     libmpg123:layer3.obj
 0002:00014e60       __real@3fc8eb75            0000000180084e60     libmp3lame:newmdct.obj
 0002:00014e68       __real@3fc999999999999a    0000000180084e68     libmp3lame:quantize.obj
 0002:00014e70       __real@3fca3d71            0000000180084e70     libmp3lame:psymodel.obj
 0002:00014e78       __real@3fcd791c5f88dbef    0000000180084e78     libmp3lame:psymodel.obj
 0002:00014e80       __real@3fd0000000000000    0000000180084e80     libmp3lame:quantize_pvt.obj
 0002:00014e88       __real@3fd3333333333333    0000000180084e88     libmp3lame:psymodel.obj
 0002:00014e90       __real@3fd34413509f79fe    0000000180084e90     libmp3lame:psymodel.obj
 0002:00014e98       __real@3fd51eb851eb851f    0000000180084e98     libmp3lame:quantize_pvt.obj
 0002:00014ea0       __real@3fd5c28f5c28f5c3    0000000180084ea0     libmp3lame:psymodel.obj
 0002:00014ea8       __real@3fd657184ae74487    0000000180084ea8     libmpg123:layer3.obj
 0002:00014eb0       __real@3fd744fd            0000000180084eb0     libmp3lame:quantize.obj
 0002:00014eb8       __real@3fd78d4fdf3b645a    0000000180084eb8     libmp3lame:quantize.obj
 0002:00014ec0       __real@3fd9999a            0000000180084ec0     libmp3lame:psymodel.obj
 0002:00014ec8       __real@3fdae147ae147ae1    0000000180084ec8     libmp3lame:util.obj
 0002:00014ed0       __real@3fde5604189374bc    0000000180084ed0     libmp3lame:psymodel.obj
 0002:00014ed8       __real@3fe0000000000000    0000000180084ed8     libmp3lame:newmdct.obj
 0002:00014ee0       __real@3fe0c152382d7365    0000000180084ee0     libmpg123:layer3.obj
 0002:00014ee8       __real@3fe2000000000000    0000000180084ee8     libmp3lame:psymodel.obj
 0002:00014ef0       __real@3fe3333333333333    0000000180084ef0     libmp3lame:util.obj
 0002:00014ef8       __real@3fe4395810624dd3    0000000180084ef8     libmp3lame:quantize.obj
 0002:00014f00       __real@3fe44e006a3ab199    0000000180084f00     libmp3lame:takehiro.obj
 0002:00014f08       __real@3fe526403b597262    0000000180084f08     libmp3lame:psymodel.obj
 0002:00014f10       __real@3fe8000000000000    0000000180084f10     libmp3lame:lame.obj
 0002:00014f18       __real@3fe851eb851eb852    0000000180084f18     libmp3lame:util.obj
 0002:00014f20       __real@3fe999999999999a    0000000180084f20     libmp3lame:psymodel.obj
 0002:00014f28       __real@3febb67ae8584cab    0000000180084f28     libmp3lame:newmdct.obj
 0002:00014f30       __real@3feccccccccccccd    0000000180084f30     libmp3lame:reservoir.obj
 0002:00014f38       __real@3fed99999999999a    0000000180084f38     libmp3lame:encoder.obj
 0002:00014f40       __real@3fedc28f5c28f5c3    0000000180084f40     libmp3lame:quantize.obj
 0002:00014f48       __real@3fee666666666666    0000000180084f48     libmp3lame:quantize.obj
 0002:00014f50       __real@3fef0a3d70a3d70a    0000000180084f50     libmp3lame:lame.obj
 0002:00014f58       __real@3ff0000000000000    0000000180084f58     libmpg123:tabinit.obj
 0002:00014f60       __real@3ff0000e5ae1a2f3    0000000180084f60     libmpg123:layer3.obj
 0002:00014f68       __real@3ff000d36f5349ff    0000000180084f68     libmpg123:layer3.obj
 0002:00014f70       __real@3ff006e2a80064aa    0000000180084f70     libmpg123:layer3.obj
 0002:00014f78       __real@3ff024f765fd8adb    0000000180084f78     libmpg123:layer3.obj
 0002:00014f80       __real@3ff08c2f837b4a23    0000000180084f80     libmpg123:layer3.obj
 0002:00014f88       __real@3ff0c152382d7365    0000000180084f88     libmpg123:layer3.obj
 0002:00014f90       __real@3ff170a3d70a3d71    0000000180084f90     libmp3lame:quantize.obj
 0002:00014f98       __real@3ff199999999999a    0000000180084f98     libmp3lame:presets.obj
 0002:00014fa0       __real@3ff1be0ded288ce7    0000000180084fa0     libmpg123:layer3.obj
 0002:00014fa8       __real@3ff4000000000000    0000000180084fa8     libmp3lame:psymodel.obj
 0002:00014fb0       __real@3ff47ae147ae147b    0000000180084fb0     libmp3lame:quantize.obj
 0002:00014fb8       __real@3ff49460aa64c2f8    0000000180084fb8     libmpg123:layer3.obj
 0002:00014fc0       __real@3ff5555555555555    0000000180084fc0     libmpg123:layer3.obj
 0002:00014fc8       __real@3ff5c28f5c28f5c2    0000000180084fc8     libmpg123:layer3.obj
 0002:00014fd0       __real@3ff5e2be            0000000180084fd0     libmp3lame:newmdct.obj
 0002:00014fd8       __real@3ff6666666666666    0000000180084fd8     libmp3lame:quantize.obj
 0002:00014fe0       __real@3ff6a09e667f3bcd    0000000180084fe0     libmp3lame:fft.obj
 0002:00014fe8       __real@3ff8000000000000    0000000180084fe8     libmp3lame:psymodel.obj
 0002:00014ff0       __real@3ff921fb54442d18    0000000180084ff0     libmp3lame:lame.obj
 0002:00014ff8       __real@3ff9999a            0000000180084ff8     libmp3lame:presets.obj
 0002:00015000       __real@3ffbecde5da115a9    0000000180085000     libmpg123:layer3.obj
 0002:00015008       __real@3ffeb7c166fdfe39    0000000180085008     libmpg123:layer3.obj
 0002:00015010       __real@40000000            0000000180085010     libmp3lame:fft.obj
 0002:00015018       __real@4000000000000000    0000000180085018     libmpg123:tabinit.obj
 0002:00015020       __real@400226c3bcdbe7ae    0000000180085020     libmpg123:layer3.obj
 0002:00015028       __real@4002666666666666    0000000180085028     libmp3lame:psymodel.obj
 0002:00015030       __real@40038c35418a5bf6    0000000180085030     libmpg123:layer3.obj
 0002:00015038       __real@4004000000000000    0000000180085038     libmp3lame:psymodel.obj
 0002:00015040       __real@40047ae147ae147b    0000000180085040     libmp3lame:quantize.obj
 0002:00015048       __real@4008000000000000    0000000180085048     libmpg123:layer2.obj
 0002:00015050       __real@4008151824c7587e    0000000180085050     libmp3lame:quantize_pvt.obj
 0002:00015058       __real@4008cccccccccccd    0000000180085058     libmp3lame:psymodel.obj
 0002:00015060       __real@400921fb54442d18    0000000180085060     libmpg123:tabinit.obj
 0002:00015068       __real@400b333333333333    0000000180085068     libmp3lame:util.obj
 0002:00015070       __real@400c000000000000    0000000180085070     libmp3lame:util.obj
 0002:00015078       __real@400d1eb851eb851f    0000000180085078     libmp3lame:util.obj
 0002:00015080       __real@40100000            0000000180085080     libmp3lame:presets.obj
 0002:00015088       __real@4010000000000000    0000000180085088     libmp3lame:util.obj
 0002:00015090       __real@40134413509f79fe    0000000180085090     libmp3lame:psymodel.obj
 0002:00015098       __real@4014000000000000    0000000180085098     libmp3lame:presets.obj
 0002:000150a0       __real@4016000000000000    00000001800850a0     libmp3lame:quantize.obj
 0002:000150a8       __real@4018000000000000    00000001800850a8     libmp3lame:util.obj
 0002:000150b0       __real@401a827a            00000001800850b0     libmp3lame:newmdct.obj
 0002:000150b8       __real@401b333333333333    00000001800850b8     libmp3lame:util.obj
 0002:000150c0       __real@401c000000000000    00000001800850c0     libmp3lame:psymodel.obj
 0002:000150c8       __real@401e000000000000    00000001800850c8     libmp3lame:psymodel.obj
 0002:000150d0       __real@40200000            00000001800850d0     libmp3lame:psymodel.obj
 0002:000150d8       __real@4020000000000000    00000001800850d8     libmp3lame:psymodel.obj
 0002:000150e0       __real@4021666666666666    00000001800850e0     libmp3lame:util.obj
 0002:000150e8       __real@4023ff7ced916873    00000001800850e8     libmp3lame:set_get.obj
 0002:000150f0       __real@4024000000000000    00000001800850f0     libmp3lame:psymodel.obj
 0002:000150f8       __real@4026000000000000    00000001800850f8     libmp3lame:quantize.obj
 0002:00015100       __real@4028000000000000    0000000180085100     libmpg123:layer3.obj
 0002:00015108       __real@402a000000000000    0000000180085108     libmp3lame:quantize.obj
 0002:00015110       __real@402f000000000000    0000000180085110     libmp3lame:psymodel.obj
 0002:00015118       __real@402f9f6e6106ab15    0000000180085118     libmp3lame:psymodel.obj
 0002:00015120       __real@4031800000000000    0000000180085120     libmp3lame:psymodel.obj
 0002:00015128       __real@4034000000000000    0000000180085128     libmp3lame:lame.obj
 0002:00015130       __real@4036000000000000    0000000180085130     libmp3lame:quantize.obj
 0002:00015138       __real@4037069e2aa2aa5c    0000000180085138     libmp3lame:psymodel.obj
 0002:00015140       __real@4038000000000000    0000000180085140     libmpg123:layer3.obj
 0002:00015148       __real@403e000000000000    0000000180085148     libmp3lame:psymodel.obj
 0002:00015150       __real@403f000000000000    0000000180085150     libmp3lame:lame.obj
 0002:00015158       __real@403ffae147ae147b    0000000180085158     libmp3lame:encoder.obj
 0002:00015160       __real@40400000            0000000180085160     libmp3lame:psymodel.obj
 0002:00015168       __real@4042000000000000    0000000180085168     libmpg123:layer3.obj
 0002:00015170       __real@404afb69            0000000180085170     libmp3lame:newmdct.obj
 0002:00015178       __real@404c200000000000    0000000180085178     libmp3lame:util.obj
 0002:00015180       __real@4052000000000000    0000000180085180     libmpg123:layer3.obj
 0002:00015188       __real@4059000000000000    0000000180085188     libmpg123:frame.obj
 0002:00015190       __real@405a3d71            0000000180085190     libmp3lame:util.obj
 0002:00015198       __real@405fc00000000000    0000000180085198     libmpg123:tabinit.obj
 0002:000151a0       __real@40600000            00000001800851a0     libmp3lame:psymodel.obj
 0002:000151a8       __real@4068000000000000    00000001800851a8     libmp3lame:psymodel.obj
 0002:000151b0       __real@406fe00000000000    00000001800851b0     libmpg123:tabinit.obj
 0002:000151b8       __real@4070000000000000    00000001800851b8     libmpg123:tabinit.obj
 0002:000151c0       __real@4072c00000000000    00000001800851c0     libmp3lame:quantize.obj
 0002:000151c8       __real@4074000000000000    00000001800851c8     libmp3lame:presets.obj
 0002:000151d0       __real@40800000            00000001800851d0     libmp3lame:util.obj
 0002:000151d8       __real@4082000000000000    00000001800851d8     libmp3lame:psymodel.obj
 0002:000151e0       __real@4085e00000000000    00000001800851e0     libmp3lame:quantize_pvt.obj
 0002:000151e8       __real@408ccccd            00000001800851e8     libmp3lame:psymodel.obj
 0002:000151f0       __real@408f400000000000    00000001800851f0     libmp3lame:gain_analysis.obj
 0002:000151f8       __real@40900000            00000001800851f8     libmp3lame:presets.obj
 0002:000151fc       __real@409057b9            00000001800851fc     libmp3lame:newmdct.obj
 0002:00015200       __real@40a33333            0000000180085200     libmp3lame:lame.obj
 0002:00015204       __real@40a66666            0000000180085204     libmp3lame:presets.obj
 0002:00015208       __real@40b33333            0000000180085208     libmp3lame:presets.obj
 0002:0001520c       __real@40c00000            000000018008520c     libmp3lame:psymodel.obj
 0002:00015210       __real@40d30b0000000000    0000000180085210     libmp3lame:lame.obj
 0002:00015218       __real@40d4ff0000000000    0000000180085218     libmp3lame:lame.obj
 0002:00015220       __real@40dfffc000000000    0000000180085220     libmp3lame:lame.obj
 0002:00015228       __real@40e7700000000000    0000000180085228     libmpg123:parse.obj
 0002:00015230       __real@40f3106b            0000000180085230     libmp3lame:newmdct.obj
 0002:00015238       __real@4101940000000000    0000000180085238     libmpg123:parse.obj
 0002:00015240       __real@41040000            0000000180085240     libmp3lame:psymodel.obj
 0002:00015248       __real@410f400000000000    0000000180085248     libmp3lame:psymodel.obj
 0002:00015250       __real@41100000            0000000180085250     libmp3lame:util.obj
 0002:00015254       __real@411ffbe7            0000000180085254     libmp3lame:set_get.obj
 0002:00015258       __real@41200000            0000000180085258     libmp3lame:psymodel.obj
 0002:00015260       __real@412f400000000000    0000000180085260     libmp3lame:psymodel.obj
 0002:00015268       __real@41300000            0000000180085268     libmp3lame:presets.obj
 0002:0001526c       __real@41400000            000000018008526c     libmp3lame:psymodel.obj
 0002:00015270       __real@41500000            0000000180085270     libmp3lame:psymodel.obj
 0002:00015278       __real@4160000000000000    0000000180085278     libmp3lame:vbrquantize.obj
 0002:00015280       __real@41700000            0000000180085280     libmp3lame:lame.obj
 0002:00015284       __real@41800000            0000000180085284     libmp3lame:psymodel.obj
 0002:00015288       __real@4180cccd            0000000180085288     libmp3lame:util.obj
 0002:0001528c       __real@41840000            000000018008528c     libmp3lame:lame.obj
 0002:00015290       __real@41a00000            0000000180085290     libmp3lame:psymodel.obj
 0002:00015294       __real@41b73ae9            0000000180085294     libmp3lame:newmdct.obj
 0002:00015298       __real@41c00000            0000000180085298     libmp3lame:util.obj
 0002:0001529c       __real@41c80000            000000018008529c     libmp3lame:psymodel.obj
 0002:000152a0       __real@41dfffffffc00000    00000001800852a0     libmpg123:synth_s32.obj
 0002:000152a8       __real@41efffffffe00000    00000001800852a8     libmp3lame:id3tag.obj
 0002:000152b0       __real@41f80000            00000001800852b0     libmp3lame:util.obj
 0002:000152b4       __real@42000000            00000001800852b4     libmp3lame:lame.obj
 0002:000152b8       __real@42800000            00000001800852b8     libmp3lame:lame.obj
 0002:000152bc       __real@4281a3d7            00000001800852bc     libmp3lame:gain_analysis.obj
 0002:000152c0       __real@42b49e12            00000001800852c0     libmp3lame:quantize_pvt.obj
 0002:000152c4       __real@42bda61e            00000001800852c4     libmp3lame:quantize_pvt.obj
 0002:000152c8       __real@42c80000            00000001800852c8     libmp3lame:gain_analysis.obj
 0002:000152cc       __real@42fa0000            00000001800852cc     libmp3lame:presets.obj
 0002:000152d0       __real@4330000080000000    00000001800852d0     libmpg123:synth.obj
 0002:000152d8       __real@438c875c            00000001800852d8     libmp3lame:psymodel.obj
 0002:000152dc       __real@439a88f6            00000001800852dc     libmp3lame:psymodel.obj
 0002:000152e0       __real@43c00000            00000001800852e0     libmp3lame:quantize_pvt.obj
 0002:000152e8       __real@43e0000000000000    00000001800852e8     libmp3lame:gain_analysis.obj
 0002:000152f0       __real@43f0000000000000    00000001800852f0     node_mpg123.obj
 0002:000152f8       __real@442f0000            00000001800852f8     libmp3lame:quantize.obj
 0002:000152fc       __real@447a0000            00000001800852fc     libmp3lame:util.obj
 0002:00015300       __real@44900000            0000000180085300     libmp3lame:quantize_pvt.obj
 0002:00015304       __real@45552000            0000000180085304     libmp3lame:util.obj
 0002:00015308       __real@45f00000            0000000180085308     libmp3lame:vbrquantize.obj
 0002:0001530c       __real@46003800            000000018008530c     libmp3lame:vbrquantize.obj
 0002:00015310       __real@46fffe00            0000000180085310     libmpg123:synth_8bit.obj
 0002:00015314       __real@471c4000            0000000180085314     libmp3lame:psymodel.obj
 0002:00015318       __real@47800000            0000000180085318     libmpg123:synth_s32.obj
 0002:00015320       __real@47efffffe0000000    0000000180085320     libmp3lame:psymodel.obj
 0002:00015328       __real@501502f9            0000000180085328     libmp3lame:psymodel.obj
 0002:0001532c       __real@58635fa9            000000018008532c     libmp3lame:quantize_pvt.obj
 0002:00015330       __real@5f800000            0000000180085330     libmp3lame:gain_analysis.obj
 0002:00015334       __real@7f7fffff            0000000180085334     libmp3lame:quantize_pvt.obj
 0002:00015338       __real@bb727b46            0000000180085338     libmp3lame:newmdct.obj
 0002:0001533c       __real@bc68a11d            000000018008533c     libmp3lame:newmdct.obj
 0002:00015340       __real@bd27cb87            0000000180085340     libmp3lame:newmdct.obj
 0002:00015344       __real@bdc1b01d            0000000180085344     libmp3lame:newmdct.obj
 0002:00015348       __real@be31d0d4            0000000180085348     libmp3lame:newmdct.obj
 0002:0001534c       __real@be3a4774            000000018008534c     libmp3lame:newmdct.obj
 0002:00015350       __real@bea07302            0000000180085350     libmp3lame:newmdct.obj
 0002:00015354       __real@bef186da            0000000180085354     libmp3lame:newmdct.obj
 0002:00015358       __real@bf03b5fe            0000000180085358     libmp3lame:newmdct.obj
 0002:0001535c       __real@bf441b7d            000000018008535c     libmp3lame:newmdct.obj
 0002:00015360       __real@bf6e4f765fd8adac    0000000180085360     libmpg123:layer3.obj
 0002:00015368       __real@bf800000            0000000180085368     libmp3lame:util.obj
 0002:00015370       __real@bf8d14e3bcd35a86    0000000180085370     libmpg123:layer3.obj
 0002:00015378       __real@bfa4fdf3b645a1cb    0000000180085378     libmpg123:layer3.obj
 0002:00015380       __real@bfa999999999999a    0000000180085380     libmp3lame:quantize.obj
 0002:00015388       __real@bfb851eb851eb852    0000000180085388     libmpg123:layer3.obj
 0002:00015390       __real@bfb999999999999a    0000000180085390     libmp3lame:quantize.obj
 0002:00015398       __real@bfc3333333333333    0000000180085398     libmp3lame:util.obj
 0002:000153a0       __real@bfc7ae147ae147ae    00000001800853a0     libmpg123:layer3.obj
 0002:000153a8       __real@bfc8000000000000    00000001800853a8     libmp3lame:quantize_pvt.obj
 0002:000153b0       __real@bfd0000000000000    00000001800853b0     libmpg123:layer3.obj
 0002:000153b8       __real@bfd3333333333333    00000001800853b8     libmp3lame:util.obj
 0002:000153c0       __real@bfd51eb851eb851f    00000001800853c0     libmpg123:layer3.obj
 0002:000153c8       __real@bfe0000000000000    00000001800853c8     libmpg123:tabinit.obj
 0002:000153d0       __real@bfe11eb851eb851f    00000001800853d0     libmpg123:layer3.obj
 0002:000153d8       __real@bfe3333333333333    00000001800853d8     libmpg123:layer3.obj
 0002:000153e0       __real@bfe999999999999a    00000001800853e0     libmp3lame:util.obj
 0002:000153e8       __real@bff0000000000000    00000001800853e8     libmpg123:frame.obj
 0002:000153f0       __real@bff3333333333333    00000001800853f0     libmp3lame:psymodel.obj
 0002:000153f8       __real@bff6a09e667f3bcd    00000001800853f8     libmp3lame:newmdct.obj
 0002:00015400       __real@c0000000            0000000180085400     libmp3lame:presets.obj
 0002:00015408       __real@c000000000000000    0000000180085408     libmp3lame:quantize_pvt.obj
 0002:00015410       __real@c0026bb1bbb55516    0000000180085410     libmp3lame:psymodel.obj
 0002:00015418       __real@c020800000000000    0000000180085418     libmp3lame:psymodel.obj
 0002:00015420       __real@c024000000000000    0000000180085420     libmp3lame:lame.obj
 0002:00015428       __real@c0900000            0000000180085428     libmp3lame:psymodel.obj
 0002:0001542c       __real@c0b99293            000000018008542c     libmp3lame:vbrquantize.obj
 0002:00015430       __real@c0d8064000000000    0000000180085430     libmp3lame:lame.obj
 0002:00015438       __real@c0eccccd            0000000180085438     libmp3lame:psymodel.obj
 0002:0001543c       __real@c1700000            000000018008543c     libmp3lame:presets.obj
 0002:00015440       __real@c1a00000            0000000180085440     libmp3lame:quantize_pvt.obj
 0002:00015444       __real@c2700000            0000000180085444     libmp3lame:psymodel.obj
 0002:00015448       __real@c2c80000            0000000180085448     libmp3lame:quantize_pvt.obj
 0002:0001544c       __real@c6c03200            000000018008544c     libmp3lame:gain_analysis.obj
 0002:00015450       __real@c7000000            0000000180085450     libmpg123:synth_8bit.obj
 0002:00015454       __real@cf000000            0000000180085454     libmpg123:synth_s32.obj
 0002:00015460       __xmm@000000000000000041400000c1200000 0000000180085460     libmp3lame:presets.obj
 0002:00015470       __xmm@00000000000000010000000100000001 0000000180085470     libmpg123:layer2.obj
 0002:00015480       __xmm@00000000000000020000000200000000 0000000180085480     libmpg123:layer2.obj
 0002:00015490       __xmm@00000000000000020000000200000002 0000000180085490     libmpg123:layer2.obj
 0002:000154a0       __xmm@00000000000000030000000300000000 00000001800854a0     libmpg123:layer2.obj
 0002:000154b0       __xmm@00000000000000030000000300000003 00000001800854b0     libmpg123:layer2.obj
 0002:000154c0       __xmm@00000000000000090000000900000008 00000001800854c0     libmp3lame:presets.obj
 0002:000154d0       __xmm@00000000000000090000000900000028 00000001800854d0     libmp3lame:presets.obj
 0002:000154e0       __xmm@00000000000000090000000900000050 00000001800854e0     libmp3lame:presets.obj
 0002:000154f0       __xmm@000000003f733333430c000040cccccd 00000001800854f0     libmp3lame:presets.obj
 0002:00015500       __xmm@000000003f7333334311000040d33333 0000000180085500     libmp3lame:presets.obj
 0002:00015510       __xmm@000000004060000040a00000c0000000 0000000180085510     libmp3lame:presets.obj
 0002:00015520       __xmm@00000001000000010000000000000000 0000000180085520     libmpg123:layer2.obj
 0002:00015530       __xmm@00000001000000010000000100000001 0000000180085530     libmpg123:layer2.obj
 0002:00015540       __xmm@00000001000000080000000100000004 0000000180085540     libmpg123:layer3.obj
 0002:00015550       __xmm@000000010000000900000009000000a0 0000000180085550     libmp3lame:presets.obj
 0002:00015560       __xmm@00000001000000090000000900000140 0000000180085560     libmp3lame:presets.obj
 0002:00015570       __xmm@00000002000000020000000200000000 0000000180085570     libmpg123:layer2.obj
 0002:00015580       __xmm@00000003000000020000000100000000 0000000180085580     libmpg123:tabinit.obj
 0002:00015590       __xmm@00000003000000030000000300000000 0000000180085590     libmpg123:layer2.obj
 0002:000155a0       __xmm@00000003000000050000000900000002 00000001800855a0     libmpg123:layer3.obj
 0002:000155b0       __xmm@00000009000000090000001000000001 00000001800855b0     libmp3lame:presets.obj
 0002:000155c0       __xmm@00000009000000090000003000000001 00000001800855c0     libmp3lame:presets.obj
 0002:000155d0       __xmm@00000009000000090000006000000001 00000001800855d0     libmp3lame:presets.obj
 0002:000155e0       __xmm@0000000900000009000000c000000001 00000001800855e0     libmp3lame:presets.obj
 0002:000155f0       __xmm@0000000c000000080000001e0000001b 00000001800855f0     libmpg123:layer2.obj
 0002:00015600       __xmm@00000018000000000000001700000016 0000000180085600     libmpg123:layer2.obj
 0002:00015610       __xmm@00000020000000180000001000000008 0000000180085610     libmp3lame:util.obj
 0002:00015620       __xmm@000000240000000c0000002400000024 0000000180085620     libmpg123:layer3.obj
 0002:00015630       __xmm@00000040000000380000003000000028 0000000180085630     libmp3lame:util.obj
 0002:00015640       __xmm@00000080000000700000006000000050 0000000180085640     libmp3lame:util.obj
 0002:00015650       __xmm@000000d2000000d2000000d2000000d2 0000000180085650     libmp3lame:quantize_pvt.obj
 0002:00015660       __xmm@00000100000000e0000000c0000000a0 0000000180085660     libmp3lame:util.obj
 0002:00015670       __xmm@00000130000001300000013000000130 0000000180085670     libmp3lame:encoder.obj
 0002:00015680       __xmm@00000146000001460000014600000146 0000000180085680     libmp3lame:quantize_pvt.obj
 0002:00015690       __xmm@00000240000002400000024000000240 0000000180085690     libmp3lame:encoder.obj
 0002:000156a0       __xmm@00000e7400000010000007d000000008 00000001800856a0     libmp3lame:lame.obj
 0002:000156b0       __xmm@0000157c0000002000000f3c00000018 00000001800856b0     libmp3lame:lame.obj
 0002:000156c0       __xmm@00001d4c0000003000001b5800000028 00000001800856c0     libmp3lame:lame.obj
 0002:000156d0       __xmm@00002af8000000400000271000000038 00000001800856d0     libmp3lame:lame.obj
 0002:000156e0       __xmm@000038a400003c8c000040740000445c 00000001800856e0     libmp3lame:lame.obj
 0002:000156f0       __xmm@00003a3400003cf000003e800000445c 00000001800856f0     libmp3lame:lame.obj
 0002:00015700       __xmm@00003afc00000060000034bc00000050 0000000180085700     libmp3lame:lame.obj
 0002:00015710       __xmm@00003cf000004074000042680000445c 0000000180085710     libmp3lame:lame.obj
 0002:00015720       __xmm@000042680000008000003cf000000070 0000000180085720     libmp3lame:lame.obj
 0002:00015730       __xmm@000046500000484400004a3800004c2c 0000000180085730     libmp3lame:lame.obj
 0002:00015740       __xmm@000046500000484400004c2c00005dc0 0000000180085740     libmp3lame:lame.obj
 0002:00015750       __xmm@00004650000048a800004a3800004c2c 0000000180085750     libmp3lame:lame.obj
 0002:00015760       __xmm@000048a8000000c00000445c000000a0 0000000180085760     libmp3lame:lame.obj
 0002:00015770       __xmm@00004cf40000010000004bc8000000e0 0000000180085770     libmp3lame:lame.obj
 0002:00015780       __xmm@00ff00ff00ff00ff00ff00ff00ff00ff 0000000180085780     libmpg123:tabinit.obj
 0002:00015790       __xmm@3a378034410000000000000000000000 0000000180085790     libmp3lame:presets.obj
 0002:000157a0       __xmm@3a6bedfa41300000c120000000000000 00000001800857a0     libmp3lame:presets.obj
 0002:000157b0       __xmm@3a9d495241300000c1f0000000000000 00000001800857b0     libmp3lame:presets.obj
 0002:000157c0       __xmm@3b0000003b0000003b0000003b000000 00000001800857c0     libmp3lame:util.obj
 0002:000157d0       __xmm@3f500000000000003f50000000000000 00000001800857d0     libmp3lame:fft.obj
 0002:000157e0       __xmm@3f700000000000003f70000000000000 00000001800857e0     libmp3lame:fft.obj
 0002:000157f0       __xmm@3f7333334307000040c000003fe51eb8 00000001800857f0     libmp3lame:presets.obj
 0002:00015800       __xmm@3f7333334311000040d3333300000000 0000000180085800     libmp3lame:presets.obj
 0002:00015810       __xmm@3f8000003f8000003f8000003f800000 0000000180085810     libmp3lame:util.obj
 0002:00015820       __xmm@3f80000042fa000040a666663f666666 0000000180085820     libmp3lame:presets.obj
 0002:00015830       __xmm@3fb47ae147ae147b3fb47ae147ae147b 0000000180085830     libmp3lame:fft.obj
 0002:00015840       __xmm@3fd00000000000003fd0000000000000 0000000180085840     libmp3lame:quantize_pvt.obj
 0002:00015850       __xmm@3fdae147ae147ae13fdae147ae147ae1 0000000180085850     libmp3lame:fft.obj
 0002:00015860       __xmm@3fe00000000000003fe0000000000000 0000000180085860     libmp3lame:fft.obj
 0002:00015870       __xmm@3fe80000000000003fe8000000000000 0000000180085870     libmp3lame:quantize_pvt.obj
 0002:00015880       __xmm@3ff00000000000003ff0000000000000 0000000180085880     libmpg123:tabinit.obj
 0002:00015890       __xmm@3ff55555555555553ff5555555555555 0000000180085890     libmpg123:layer3.obj
 0002:000158a0       __xmm@40000000000000003f73333343110000 00000001800858a0     libmp3lame:presets.obj
 0002:000158b0       __xmm@40000000000000004000000000000000 00000001800858b0     libmpg123:tabinit.obj
 0002:000158c0       __xmm@400921fb54442d18400921fb54442d18 00000001800858c0     libmpg123:tabinit.obj
 0002:000158d0       __xmm@401921fb54442d18401921fb54442d18 00000001800858d0     libmp3lame:fft.obj
 0002:000158e0       __xmm@402921fb54442d18402921fb54442d18 00000001800858e0     libmp3lame:fft.obj
 0002:000158f0       __xmm@4040000040e00000c08000003f7851ec 00000001800858f0     libmp3lame:presets.obj
 0002:00015900       __xmm@40b000003f800000000000003f733333 0000000180085900     libmp3lame:presets.obj
 0002:00015910       __xmm@4103333340e9999a40d0000040b66666 0000000180085910     libmp3lame:lame.obj
 0002:00015920       __xmm@41100000c0c000003f7ae14842fa0000 0000000180085920     libmp3lame:presets.obj
 0002:00015930       __xmm@41300000c1200000000000003f733333 0000000180085930     libmp3lame:presets.obj
 0002:00015940       __xmm@41300000c1c80000000000003f733333 0000000180085940     libmp3lame:presets.obj
 0002:00015950       __xmm@4160000041500000413e666641200000 0000000180085950     libmp3lame:lame.obj
 0002:00015960       __xmm@7fffffffffffffff7fffffffffffffff 0000000180085960     libmp3lame:vbrquantize.obj
 0002:00015970       __xmm@80000000000000008000000000000000 0000000180085970     libmpg123:tabinit.obj
 0002:00015980       __xmm@80000000800000008000000080000000 0000000180085980     libmpg123:layer3.obj
 0002:00015990       __xmm@80808080808080808080808080808080 0000000180085990     libmpg123:tabinit.obj
 0002:000159a0       __xmm@bfc8000000000000bfc8000000000000 00000001800859a0     libmp3lame:quantize_pvt.obj
 0002:000159b0       __xmm@c0c00000000000003f73333343110000 00000001800859b0     libmp3lame:presets.obj
 0002:000159c0       __xmm@c10000003f80000042fa000040a66666 00000001800859c0     libmp3lame:presets.obj
 0002:000159d0       __xmm@c1a00000000000003f73333343110000 00000001800859d0     libmp3lame:presets.obj
 0002:0001c488       __real@3c7007887af0cbbc    000000018008c488     libucrt:atan.obj
 0002:0001c490       __real@3c7a2b7f222f65e0    000000018008c490     libucrt:atan.obj
 0002:0001c498       __real@3c81a62633145c06    000000018008c498     libucrt:atan.obj
 0002:0001c4a0       __real@3c91a62633145c06    000000018008c4a0     libucrt:atan.obj
 0002:0001c4a8       __real@3f22a75ce41b9f87    000000018008c4a8     libucrt:atan.obj
 0002:0001c4b0       __real@3f9f2d2116f053f2    000000018008c4b0     libucrt:atan.obj
 0002:0001c4b8       __real@3fa3f197f1e85ed9    000000018008c4b8     libucrt:atan.obj
 0002:0001c4c0       __real@3fcc3de43db425c0    000000018008c4c0     libucrt:atan.obj
 0002:0001c4c8       __real@3fd12bcb0a9169f3    000000018008c4c8     libucrt:atan.obj
 0002:0001c4d0       __real@3fdb2cb05bf9beff    000000018008c4d0     libucrt:atan.obj
 0002:0001c4d8       __real@3fdca6be4c993b3c    000000018008c4d8     libucrt:atan.obj
 0002:0001c4e0       __real@3fddac670561bb4f    000000018008c4e0     libucrt:atan.obj
 0002:0001c4e8       __real@3fe921fb54442d18    000000018008c4e8     libucrt:atan.obj
 0002:0001c4f0       __real@3fe9c1b08fda1eec    000000018008c4f0     libucrt:atan.obj
 0002:0001c4f8       __real@3fef730bd281f69b    000000018008c4f8     libucrt:atan.obj
 0002:0001c500       __real@3ff699c644c48d2e    000000018008c500     libucrt:atan.obj
 0002:0001c508       __real@3ffd372a17cdf5a0    000000018008c508     libucrt:atan.obj
 0002:0001c510       __real@43d0dc0000000000    000000018008c510     libucrt:atan.obj
 0002:0001c518       __real@bff921fb54442d18    000000018008c518     libucrt:atan.obj
 0002:0001ea50       __Lcosarray                000000018008ea50     libucrt:lsincos_array.obj
 0002:0001eab0       __Lsinarray                000000018008eab0     libucrt:lsincos_array.obj
 0002:0001ee30       __two_to_jby64_table       000000018008ee30     libucrt:two_to_jby64_table.obj
 0002:0001f030       __two_to_jby64_head_table  000000018008f030     libucrt:two_to_jby64_head_tail_table.obj
 0002:0001f230       __two_to_jby64_tail_table  000000018008f230     libucrt:two_to_jby64_head_tail_table.obj
 0002:0001f430       __log_256_lead             000000018008f430     libucrt:log_256_lead_tail_table.obj
 0002:0001fc40       __log_256_tail             000000018008fc40     libucrt:log_256_lead_tail_table.obj
 0002:00020450       __log10_128_lead           0000000180090450     libucrt:log10_128_lead_tail_table.obj
 0002:00020660       __log10_128_tail           0000000180090660     libucrt:log10_128_lead_tail_table.obj
 0002:00020870       __log_F_inv_dword          0000000180090870     libucrt:log_f_inv_dword_table.obj
 0002:00020a74       ??_C@_04MBFDLNIM@powf?$AA@ 0000000180090a74     libucrt:pow_special.obj
 0002:00020a80       __L_2_by_pi_bits           0000000180090a80     libucrt:l2_by_pi_bits.obj
 0002:00020b78       ??_R4exception@std@@6B@    0000000180090b78     LIBCMT:throw_bad_alloc.obj
 0002:00020ba0       ??_R3exception@std@@8      0000000180090ba0     LIBCMT:throw_bad_alloc.obj
 0002:00020bb8       ??_R2exception@std@@8      0000000180090bb8     LIBCMT:throw_bad_alloc.obj
 0002:00020bc8       ??_R1A@?0A@EA@exception@std@@8 0000000180090bc8     LIBCMT:throw_bad_alloc.obj
 0002:00020bf0       ??_R4bad_alloc@std@@6B@    0000000180090bf0     LIBCMT:throw_bad_alloc.obj
 0002:00020c18       ??_R3bad_alloc@std@@8      0000000180090c18     LIBCMT:throw_bad_alloc.obj
 0002:00020c30       ??_R2bad_alloc@std@@8      0000000180090c30     LIBCMT:throw_bad_alloc.obj
 0002:00020c48       ??_R1A@?0A@EA@bad_alloc@std@@8 0000000180090c48     LIBCMT:throw_bad_alloc.obj
 0002:00020c70       ??_R4bad_array_new_length@std@@6B@ 0000000180090c70     LIBCMT:throw_bad_alloc.obj
 0002:00020c98       ??_R3bad_array_new_length@std@@8 0000000180090c98     LIBCMT:throw_bad_alloc.obj
 0002:00020cb0       ??_R2bad_array_new_length@std@@8 0000000180090cb0     LIBCMT:throw_bad_alloc.obj
 0002:00020cd0       ??_R1A@?0A@EA@bad_array_new_length@std@@8 0000000180090cd0     LIBCMT:throw_bad_alloc.obj
 0002:00020cf8       ??_R4type_info@@6B@        0000000180090cf8     LIBCMT:std_type_info_static.obj
 0002:00020d20       ??_R3type_info@@8          0000000180090d20     LIBCMT:std_type_info_static.obj
 0002:00020d38       ??_R2type_info@@8          0000000180090d38     LIBCMT:std_type_info_static.obj
 0002:00020d48       ??_R1A@?0A@EA@type_info@@8 0000000180090d48     LIBCMT:std_type_info_static.obj
 0002:00020d70       ?_TraceLoggingMetadata@?1??_TlgWrite@__vcrt_trace_logging_provider@@YAJPEBU_TlgProvider_t@2@PEFBXPEBU_GUID@@2IPEAU_EVENT_DATA_DESCRIPTOR@@@Z@4U_TraceLoggingMetadata_t@2@B 0000000180090d70     libvcruntime:telemetry.obj
 0002:00020e23       ?_TraceLoggingMetadataEnd@?1??_TlgWrite@__vcrt_trace_logging_provider@@YAJPEBU_TlgProvider_t@2@PEFBXPEBU_GUID@@2IPEAU_EVENT_DATA_DESCRIPTOR@@@Z@4EB 0000000180090e23     libvcruntime:telemetry.obj
 0002:00021280       __rtc_iaa                  0000000180091280     LIBCMT:_initsect_.obj
 0002:00021288       __rtc_izz                  0000000180091288     LIBCMT:_initsect_.obj
 0002:00021290       __rtc_taa                  0000000180091290     LIBCMT:_initsect_.obj
 0002:00021298       __rtc_tzz                  0000000180091298     LIBCMT:_initsect_.obj
 0002:00025620       _TI2?AVbad_alloc@std@@     0000000180095620     LIBCMT:throw_bad_alloc.obj
 0002:00025640       _CTA2?AVbad_alloc@std@@    0000000180095640     LIBCMT:throw_bad_alloc.obj
 0002:00025658       _CT??_R0?AVbad_alloc@std@@@8??0bad_alloc@std@@QEAA@AEBV01@@Z24 0000000180095658     LIBCMT:throw_bad_alloc.obj
 0002:00025680       _CT??_R0?AVexception@std@@@8??0exception@std@@QEAA@AEBV01@@Z24 0000000180095680     LIBCMT:throw_bad_alloc.obj
 0002:000256a8       _TI3?AVbad_array_new_length@std@@ 00000001800956a8     LIBCMT:throw_bad_alloc.obj
 0002:000256c8       _CTA3?AVbad_array_new_length@std@@ 00000001800956c8     LIBCMT:throw_bad_alloc.obj
 0002:000256e8       _CT??_R0?AVbad_array_new_length@std@@@8??0bad_array_new_length@std@@QEAA@AEBV01@@Z24 00000001800956e8     LIBCMT:throw_bad_alloc.obj
 0002:0002570c       __DELAY_IMPORT_DESCRIPTOR_node_exe 000000018009570c     node:node.exe
 0002:0002572c       __NULL_DELAY_IMPORT_DESCRIPTOR 000000018009572c     node:node.exe
 0002:00025a00       \177node_NULL_THUNK_DATA_DLN 0000000180095a00     node:node.exe
 0002:00027148       \177node_NULL_THUNK_DATA_DLB 0000000180097148     node:node.exe
 0002:0002ba84       __IMPORT_DESCRIPTOR_KERNEL32 000000018009ba84     kernel32:KERNEL32.dll
 0002:0002ba98       __IMPORT_DESCRIPTOR_ADVAPI32 000000018009ba98     advapi32:ADVAPI32.dll
 0002:0002baac       __NULL_IMPORT_DESCRIPTOR   000000018009baac     kernel32:KERNEL32.dll
 0003:00000000       __security_cookie          000000018009d000     LIBCMT:gs_cookie.obj
 0003:00000008       __security_cookie_complement 000000018009d008     LIBCMT:gs_cookie.obj
 0003:00000010       __scrt_native_dllmain_reason 000000018009d010     LIBCMT:utility.obj
 0003:00000018       __isa_available            000000018009d018     LIBCMT:_cpu_disp_.obj
 0003:0000001c       __isa_enabled              000000018009d01c     LIBCMT:_cpu_disp_.obj
 0003:00000020       __memcpy_nt_iters          000000018009d020     LIBCMT:_cpu_disp_.obj
 0003:00000090       _iob                       000000018009d090     libucrt:_file.obj
 0003:000001b0       _lookuptrailbytes          000000018009d1b0     libucrt:read.obj
 0003:000002b0       __abort_behavior           000000018009d2b0     libucrt:abort.obj
 0003:000002c0       __acrt_initial_locale_data 000000018009d2c0     libucrt:nlsdata.obj
 0003:00000418       __acrt_initial_locale_pointers 000000018009d418     libucrt:nlsdata.obj
 0003:00000428       __acrt_wide_c_locale_string 000000018009d428     libucrt:nlsdata.obj
 0003:00000430       __badioinfo                000000018009d430     libucrt:ioinit.obj
 0003:00000470       __acrt_initial_multibyte_data 000000018009d470     libucrt:mbctype.obj
 0003:00000698       __acrt_current_multibyte_data 000000018009d698     libucrt:mbctype.obj
 0003:000007a0       _mbctype                   000000018009d7a0     libucrt:mbctype.obj
 0003:000008b0       _mbcasemap                 000000018009d8b0     libucrt:mbctype.obj
 0003:000009b0       __globallocalestatus       000000018009d9b0     libucrt:glstatus.obj
 0003:000009c0       __acrt_lconv_c             000000018009d9c0     libucrt:localeconv.obj
 0003:00000a58       __acrt_lconv_static_decimal 000000018009da58     libucrt:localeconv.obj
 0003:00000a5c       __acrt_lconv_static_W_decimal 000000018009da5c     libucrt:localeconv.obj
 0003:00000a60       __dcrt_lowio_console_output_handle 000000018009da60     libucrt:initcon.obj
 0003:00000a80       _fltused                   000000018009da80     LIBCMT:fltused.obj
 0003:00000ad0       __pfnDliNotifyHook2        000000018009dad0     win_delay_load_hook.obj
 0003:00000d60       ??_R0?AVbad_alloc@std@@@8  000000018009dd60     LIBCMT:throw_bad_alloc.obj
 0003:00000d88       ??_R0?AVexception@std@@@8  000000018009dd88     LIBCMT:throw_bad_alloc.obj
 0003:00000db0       ??_R0?AVbad_array_new_length@std@@@8 000000018009ddb0     LIBCMT:throw_bad_alloc.obj
 0003:00000de0       ??_R0?AVtype_info@@@8      000000018009dde0     LIBCMT:std_type_info_static.obj
 0003:00000e00       __imp_?CollectAllGarbage@Isolate@v8@@AEAAXPEBD@Z 000000018009de00     node:node.exe
 0003:00000e08       __imp_?VisitHandlesForPartialDependence@Isolate@v8@@QEAAXPEAVPersistentHandleVisitor@2@@Z 000000018009de08     node:node.exe
 0003:00000e10       __imp_?VisitHandlesWithClassIds@Isolate@v8@@QEAAXPEAVPersistentHandleVisitor@2@@Z 000000018009de10     node:node.exe
 0003:00000e18       __imp_?VisitExternalResources@Isolate@v8@@QEAAXPEAVExternalResourceVisitor@2@@Z 000000018009de18     node:node.exe
 0003:00000e20       __imp_?RemoveMemoryAllocationCallback@Isolate@v8@@QEAAXP6AXW4ObjectSpace@2@W4AllocationAction@2@H@Z@Z 000000018009de20     node:node.exe
 0003:00000e28       __imp_?AddMemoryAllocationCallback@Isolate@v8@@QEAAXP6AXW4ObjectSpace@2@W4AllocationAction@2@H@Z01@Z 000000018009de28     node:node.exe
 0003:00000e30       __imp_?SetCaptureStackTraceForUncaughtExceptions@Isolate@v8@@QEAAX_NHW4StackTraceOptions@StackTrace@2@@Z 000000018009de30     node:node.exe
 0003:00000e38       __imp_?SetFailedAccessCheckCallbackFunction@Isolate@v8@@QEAAXP6AXV?$Local@VObject@v8@@@2@W4AccessType@2@V?$Local@VValue@v8@@@2@@Z@Z 000000018009de38     node:node.exe
 0003:00000e40       __imp_?RemoveMessageListeners@Isolate@v8@@QEAAXP6AXV?$Local@VMessage@v8@@@2@V?$Local@VValue@v8@@@2@@Z@Z 000000018009de40     node:node.exe
 0003:00000e48       __imp_?AddMessageListener@Isolate@v8@@QEAA_NP6AXV?$Local@VMessage@v8@@@2@V?$Local@VValue@v8@@@2@@Z1@Z 000000018009de48     node:node.exe
 0003:00000e50       __imp_?IsDead@Isolate@v8@@QEAA_NXZ 000000018009de50     node:node.exe
 0003:00000e58       __imp_?SetAllowCodeGenerationFromStringsCallback@Isolate@v8@@QEAAXP6A_NV?$Local@VContext@v8@@@2@@Z@Z 000000018009de58     node:node.exe
 0003:00000e60       __imp_?SetFatalErrorHandler@Isolate@v8@@QEAAXP6AXPEBD0@Z@Z 000000018009de60     node:node.exe
 0003:00000e68       __imp_?CancelTerminateExecution@Isolate@v8@@QEAAXXZ 000000018009de68     node:node.exe
 0003:00000e70       __imp_?IsExecutionTerminating@Isolate@v8@@QEAA_NXZ 000000018009de70     node:node.exe
 0003:00000e78       __imp_?TerminateExecution@Isolate@v8@@QEAAXXZ 000000018009de78     node:node.exe
 0003:00000e80       __imp_?RemoveGCEpilogueCallback@Isolate@v8@@QEAAXP6AXPEAV12@W4GCType@2@W4GCCallbackFlags@2@@Z@Z 000000018009de80     node:node.exe
 0003:00000e88       __imp_?RemoveGCPrologueCallback@Isolate@v8@@QEAAXP6AXPEAV12@W4GCType@2@W4GCCallbackFlags@2@@Z@Z 000000018009de88     node:node.exe
 0003:00000e90       __imp_?GetCurrentContext@Isolate@v8@@QEAA?AV?$Local@VContext@v8@@@2@XZ 000000018009de90     node:node.exe
 0003:00000e98       __imp_?Exit@Isolate@v8@@QEAAXXZ 000000018009de98     node:node.exe
 0003:00000ea0       __imp_?Enter@Isolate@v8@@QEAAXXZ 000000018009dea0     node:node.exe
 0003:00000ea8       __imp_?GetCurrent@Isolate@v8@@SAPEAV12@XZ 000000018009dea8     node:node.exe
 0003:00000eb0       __imp_?ResetToBookmark@ExternalSourceStream@ScriptCompiler@v8@@UEAAXXZ 000000018009deb0     node:node.exe
 0003:00000eb8       __imp_?SetBookmark@ExternalSourceStream@ScriptCompiler@v8@@UEAA_NXZ 000000018009deb8     node:node.exe
 0003:00000ec0       __imp_?CreateHandle@HandleScope@v8@@CAPEAPEAVObject@internal@2@PEAVHeapObject@42@PEAV342@@Z 000000018009dec0     node:node.exe
 0003:00000ec8       __imp_??1HandleScope@v8@@QEAA@XZ 000000018009dec8     node:node.exe
 0003:00000ed0       __imp_??0HandleScope@v8@@QEAA@PEAVIsolate@1@@Z 000000018009ded0     node:node.exe
 0003:00000ed8       __imp_?Set@Template@v8@@QEAAXV?$Local@VName@v8@@@2@V?$Local@VData@v8@@@2@W4PropertyAttribute@2@@Z 000000018009ded8     node:node.exe
 0003:00000ee0       __imp_?Initialize@Locker@v8@@AEAAXPEAVIsolate@2@@Z 000000018009dee0     node:node.exe
 0003:00000ee8       __imp_?GetId@UnboundScript@v8@@QEAAHXZ 000000018009dee8     node:node.exe
 0003:00000ef0       __imp_?Initialize@Unlocker@v8@@AEAAXPEAVIsolate@2@@Z 000000018009def0     node:node.exe
 0003:00000ef8       __imp_?ToLocalEmpty@V8@v8@@CAXXZ 000000018009def8     node:node.exe
 0003:00000f00       __imp_?ToInt32@Value@v8@@QEBA?AV?$MaybeLocal@VInt32@v8@@@2@V?$Local@VContext@v8@@@2@@Z 000000018009df00     node:node.exe
 0003:00000f08       __imp_?ToUint32@Value@v8@@QEBA?AV?$MaybeLocal@VUint32@v8@@@2@V?$Local@VContext@v8@@@2@@Z 000000018009df08     node:node.exe
 0003:00000f10       __imp_?ToInteger@Value@v8@@QEBA?AV?$MaybeLocal@VInteger@v8@@@2@V?$Local@VContext@v8@@@2@@Z 000000018009df10     node:node.exe
 0003:00000f18       __imp_?ToObject@Value@v8@@QEBA?AV?$MaybeLocal@VObject@v8@@@2@V?$Local@VContext@v8@@@2@@Z 000000018009df18     node:node.exe
 0003:00000f20       __imp_?ToDetailString@Value@v8@@QEBA?AV?$MaybeLocal@VString@v8@@@2@V?$Local@VContext@v8@@@2@@Z 000000018009df20     node:node.exe
 0003:00000f28       __imp_?ToString@Value@v8@@QEBA?AV?$MaybeLocal@VString@v8@@@2@V?$Local@VContext@v8@@@2@@Z 000000018009df28     node:node.exe
 0003:00000f30       __imp_?ToNumber@Value@v8@@QEBA?AV?$MaybeLocal@VNumber@v8@@@2@V?$Local@VContext@v8@@@2@@Z 000000018009df30     node:node.exe
 0003:00000f38       __imp_?ToBoolean@Value@v8@@QEBA?AV?$MaybeLocal@VBoolean@v8@@@2@V?$Local@VContext@v8@@@2@@Z 000000018009df38     node:node.exe
 0003:00000f40       __imp_?GetUnboundScript@Script@v8@@QEAA?AV?$Local@VUnboundScript@v8@@@2@XZ 000000018009df40     node:node.exe
 0003:00000f48       __imp_?NewFromUtf8@String@v8@@SA?AV?$MaybeLocal@VString@v8@@@2@PEAVIsolate@2@PEBDW4NewStringType@2@H@Z 000000018009df48     node:node.exe
 0003:00000f50       __imp_?SlowGetAlignedPointerFromInternalField@Object@v8@@AEAAPEAXH@Z 000000018009df50     node:node.exe
 0003:00000f58       __imp_?SlowGetInternalField@Object@v8@@AEAA?AV?$Local@VValue@v8@@@2@H@Z 000000018009df58     node:node.exe
 0003:00000f60       __imp_?InternalFieldCount@Object@v8@@QEAAHXZ 000000018009df60     node:node.exe
 0003:00000f68       __imp_?NewInstance@Function@v8@@QEBA?AV?$MaybeLocal@VObject@v8@@@2@V?$Local@VContext@v8@@@2@HQEAV?$Local@VValue@v8@@@2@@Z 000000018009df68     node:node.exe
 0003:00000f70       __imp_?SetHandler@ObjectTemplate@v8@@QEAAXAEBUIndexedPropertyHandlerConfiguration@2@@Z 000000018009df70     node:node.exe
 0003:00000f78       __imp_node_module_register 000000018009df78     node:node.exe
 0003:00000f80       __imp_uv_queue_work        000000018009df80     node:node.exe
 0003:00000f88       __imp_?Global@Context@v8@@QEAA?AV?$Local@VObject@v8@@@2@XZ 000000018009df88     node:node.exe
 0003:00000f90       __imp_?Value@External@v8@@QEBAPEAXXZ 000000018009df90     node:node.exe
 0003:00000f98       __imp_?New@External@v8@@SA?AV?$Local@VExternal@v8@@@2@PEAVIsolate@2@PEAX@Z 000000018009df98     node:node.exe
 0003:00000fa0       __imp_?NewFromUnsigned@Integer@v8@@SA?AV?$Local@VInteger@v8@@@2@PEAVIsolate@2@I@Z 000000018009dfa0     node:node.exe
 0003:00000fa8       __imp_?New@Integer@v8@@SA?AV?$Local@VInteger@v8@@@2@PEAVIsolate@2@H@Z 000000018009dfa8     node:node.exe
 0003:00000fb0       __imp_?CreateHandle@HandleScope@v8@@KAPEAPEAVObject@internal@2@PEAVIsolate@42@PEAV342@@Z 000000018009dfb0     node:node.exe
 0003:00000fb8       __imp_?New@Array@v8@@SA?AV?$Local@VArray@v8@@@2@PEAVIsolate@2@H@Z 000000018009dfb8     node:node.exe
 0003:00000fc0       __imp_?GetFunction@FunctionTemplate@v8@@QEAA?AV?$MaybeLocal@VFunction@v8@@@2@V?$Local@VContext@v8@@@2@@Z 000000018009dfc0     node:node.exe
 0003:00000fc8       __imp_?New@FunctionTemplate@v8@@SA?AV?$Local@VFunctionTemplate@v8@@@2@PEAVIsolate@2@P6AXAEBV?$FunctionCallbackInfo@VValue@v8@@@2@@ZV?$Local@VValue@v8@@@2@V?$Local@VSignature@v8@@@2@H@Z 000000018009dfc8     node:node.exe
 0003:00000fd0       __imp_?DisposeGlobal@V8@v8@@CAXPEAPEAVObject@internal@2@@Z 000000018009dfd0     node:node.exe
 0003:00000fd8       __imp_?GlobalizeReference@V8@v8@@CAPEAPEAVObject@internal@2@PEAVIsolate@42@PEAPEAV342@@Z 000000018009dfd8     node:node.exe
 0003:00000fe0       __imp_?Int32Value@Value@v8@@QEBA?AV?$Maybe@H@2@V?$Local@VContext@v8@@@2@@Z 000000018009dfe0     node:node.exe
 0003:00000fe8       __imp_?Int32Value@Value@v8@@QEBAHXZ 000000018009dfe8     node:node.exe
 0003:00000ff0       __imp_?NumberValue@Value@v8@@QEBANXZ 000000018009dff0     node:node.exe
 0003:00000ff8       __imp_?HasCaught@TryCatch@v8@@QEBA_NXZ 000000018009dff8     node:node.exe
 0003:00001000       __imp_??1TryCatch@v8@@QEAA@XZ 000000018009e000     node:node.exe
 0003:00001008       __imp_??0TryCatch@v8@@QEAA@PEAVIsolate@1@@Z 000000018009e008     node:node.exe
 0003:00001010       __imp_?Escape@EscapableHandleScope@v8@@AEAAPEAPEAVObject@internal@2@PEAPEAV342@@Z 000000018009e010     node:node.exe
 0003:00001018       __imp_??0EscapableHandleScope@v8@@QEAA@PEAVIsolate@1@@Z 000000018009e018     node:node.exe
 0003:00001020       __imp_?New@Number@v8@@SA?AV?$Local@VNumber@v8@@@2@PEAVIsolate@2@N@Z 000000018009e020     node:node.exe
 0003:00001028       __imp_?SetInternalField@Object@v8@@QEAAXHV?$Local@VValue@v8@@@2@@Z 000000018009e028     node:node.exe
 0003:00001030       __imp_?ForceSet@Object@v8@@QEAA?AV?$Maybe@_N@2@V?$Local@VContext@v8@@@2@V?$Local@VValue@v8@@@2@1W4PropertyAttribute@2@@Z 000000018009e030     node:node.exe
 0003:00001038       __imp_?Set@Object@v8@@QEAA_NV?$Local@VValue@v8@@@2@0@Z 000000018009e038     node:node.exe
 0003:00001040       __imp_?Set@Object@v8@@QEAA?AV?$Maybe@_N@2@V?$Local@VContext@v8@@@2@IV?$Local@VValue@v8@@@2@@Z 000000018009e040     node:node.exe
 0003:00001048       __imp_?SetName@Function@v8@@QEAAXV?$Local@VString@v8@@@2@@Z 000000018009e048     node:node.exe
 0003:00001050       __imp_?Call@Function@v8@@QEAA?AV?$Local@VValue@v8@@@2@V32@HQEAV32@@Z 000000018009e050     node:node.exe
 0003:00001058       __imp_?SetInternalFieldCount@ObjectTemplate@v8@@QEAAXH@Z 000000018009e058     node:node.exe
 0003:00001060       __imp_?NewInstance@ObjectTemplate@v8@@QEAA?AV?$MaybeLocal@VObject@v8@@@2@V?$Local@VContext@v8@@@2@@Z 000000018009e060     node:node.exe
 0003:00001068       __imp_?New@ObjectTemplate@v8@@SA?AV?$Local@VObjectTemplate@v8@@@2@PEAVIsolate@2@V?$Local@VFunctionTemplate@v8@@@2@@Z 000000018009e068     node:node.exe
 0003:00001070       __imp_?FatalException@node@@YAXPEAVIsolate@v8@@AEBVTryCatch@3@@Z 000000018009e070     node:node.exe
 0003:00001078       __imp_?HasInstance@Buffer@node@@YA_NV?$Local@VValue@v8@@@v8@@@Z 000000018009e078     node:node.exe
 0003:00001080       __imp_?New@Buffer@node@@YA?AV?$MaybeLocal@VObject@v8@@@v8@@PEAVIsolate@4@PEAD_KP6AX1PEAX@Z3@Z 000000018009e080     node:node.exe
 0003:00001088       __imp_?Data@Buffer@node@@YAPEADV?$Local@VObject@v8@@@v8@@@Z 000000018009e088     node:node.exe
 0003:00001090       __imp_?Length@Buffer@node@@YA_KV?$Local@VObject@v8@@@v8@@@Z 000000018009e090     node:node.exe
 0003:00001098       __imp_uv_default_loop      000000018009e098     node:node.exe
 0003:000010a0       __imp_?New@Object@v8@@SA?AV?$Local@VObject@v8@@@2@PEAVIsolate@2@@Z 000000018009e0a0     node:node.exe
 0003:000010a8       __imp_?Set@Object@v8@@QEAA?AV?$Maybe@_N@2@V?$Local@VContext@v8@@@2@V?$Local@VValue@v8@@@2@1@Z 000000018009e0a8     node:node.exe
 0003:000010b0       \177node_NULL_THUNK_DATA_DLA 000000018009e0b0     node:node.exe
 0003:000010c0       __hmod__node_exe           000000018009e0c0     node:node.exe
 0003:00001640       __scrt_current_native_startup_state 000000018009e640     LIBCMT:utility.obj
 0003:00001648       __scrt_native_startup_lock 000000018009e648     LIBCMT:utility.obj
 0003:00001690       ?__type_info_root_node@@3U__type_info_node@@A 000000018009e690     LIBCMT:tncleanup.obj
 0003:000016a0       __scrt_debugger_hook_flag  000000018009e6a0     LIBCMT:utility_desktop.obj
 0003:000016a4       __favor                    000000018009e6a4     LIBCMT:_cpu_disp_.obj
 0003:000016a8       __pPurecall                000000018009e6a8     libvcruntime:purevirt_data.obj
 0003:000017c8       ?pArgList@UnDecorator@@0PEAVReplicator@@EA 000000018009e7c8     libvcruntime:undname.obj
 0003:000017d0       ?pZNameList@UnDecorator@@0PEAVReplicator@@EA 000000018009e7d0     libvcruntime:undname.obj
 0003:000017d8       ?pTemplateArgList@UnDecorator@@0PEAVReplicator@@EA 000000018009e7d8     libvcruntime:undname.obj
 0003:000017e0       ?gName@UnDecorator@@0PEBDEB 000000018009e7e0     libvcruntime:undname.obj
 0003:000017e8       ?name@UnDecorator@@0PEBDEB 000000018009e7e8     libvcruntime:undname.obj
 0003:000017f0       ?outputString@UnDecorator@@0PEADEA 000000018009e7f0     libvcruntime:undname.obj
 0003:000017f8       ?maxStringLength@UnDecorator@@0HA 000000018009e7f8     libvcruntime:undname.obj
 0003:000017fc       ?disableFlags@UnDecorator@@0KA 000000018009e7fc     libvcruntime:undname.obj
 0003:00001800       ?fExplicitTemplateParams@UnDecorator@@0_NA 000000018009e800     libvcruntime:undname.obj
 0003:00001801       ?fGetTemplateArgumentList@UnDecorator@@0_NA 000000018009e801     libvcruntime:undname.obj
 0003:00001808       ?m_pGetParameter@UnDecorator@@0P6APEADJ@ZEA 000000018009e808     libvcruntime:undname.obj
 0003:00001838       _nstream                   000000018009e838     libucrt:_file.obj
 0003:00001840       __piob                     000000018009e840     libucrt:_file.obj
 0003:00001848       _cflush                    000000018009e848     libucrt:_file.obj
 0003:00001868       _environ_table             000000018009e868     libucrt:environment_initialization.obj
 0003:00001870       _wenviron_table            000000018009e870     libucrt:environment_initialization.obj
 0003:00001878       __dcrt_initial_wide_environment 000000018009e878     libucrt:environment_initialization.obj
 0003:00001880       __dcrt_initial_narrow_environment 000000018009e880     libucrt:environment_initialization.obj
 0003:00001888       __acrt_atexit_table        000000018009e888     libucrt:onexit.obj
 0003:000018a0       __acrt_at_quick_exit_table 000000018009e8a0     libucrt:onexit.obj
 0003:000018e8       __acrt_locale_changed_data 000000018009e8e8     libucrt:wsetlocale.obj
 0003:000018f0       __acrt_current_locale_data 000000018009e8f0     libucrt:nlsdata.obj
 0003:00001900       __pioinfo                  000000018009e900     libucrt:ioinit.obj
 0003:00001d00       _nhandle                   000000018009ed00     libucrt:ioinit.obj
 0003:00001d10       __acrt_stdout_buffer       000000018009ed10     libucrt:_sftbuf.obj
 0003:00001d18       __acrt_stderr_buffer       000000018009ed18     libucrt:_sftbuf.obj
 0003:000020dc       __mbcodepage               000000018009f0dc     libucrt:mbctype.obj
 0003:000020e0       __ismbcodepage             000000018009f0e0     libucrt:mbctype.obj
 0003:000020e8       __mbulinfo                 000000018009f0e8     libucrt:mbctype.obj
 0003:000020f8       __mblocalename             000000018009f0f8     libucrt:mbctype.obj
 0003:00002108       __acrt_heap                000000018009f108     libucrt:heap_handle.obj
 0003:00002110       __argv                     000000018009f110     libucrt:argv_data.obj
 0003:00002118       __wargv                    000000018009f118     libucrt:argv_data.obj
 0003:00002120       _acmdln                    000000018009f120     libucrt:argv_data.obj
 0003:00002128       _wcmdln                    000000018009f128     libucrt:argv_data.obj
 0003:0000213c       __acrt_lconv_static_null   000000018009f13c     libucrt:localeconv.obj
 0003:00002140       __acrt_lconv_static_W_null 000000018009f140     libucrt:localeconv.obj
 0003:00002144       __fma3_is_available        000000018009f144     libucrt:fma3_available.obj
 0003:00002148       __use_fma3_lib             000000018009f148     libucrt:fma3_available.obj
 0003:00002150       ?DloadKernel32@@3PEAUHINSTANCE__@@EA 000000018009f150     DelayImp:delayhlp.obj
 0003:00002158       ?DloadAcquireSRWLockExclusive@@3P6AXPEA_K@ZEA 000000018009f158     DelayImp:delayhlp.obj
 0003:00002160       ?DloadReleaseSRWLockExclusive@@3P6AXPEA_K@ZEA 000000018009f160     DelayImp:delayhlp.obj
 0003:00002168       ?DloadSrwLock@@3_KA        000000018009f168     DelayImp:delayhlp.obj
 0003:00002170       ?DloadSectionLockCount@@3KA 000000018009f170     DelayImp:delayhlp.obj
 0003:00002174       ?DloadSectionOldProtection@@3KA 000000018009f174     DelayImp:delayhlp.obj
 0003:00002178       ?DloadSectionCommitPermanent@@3KA 000000018009f178     DelayImp:delayhlp.obj
 0003:00002180       __pfnDliFailureHook2       000000018009f180     DelayImp:delayhk1.obj
 0003:00013b1c       __scrt_ucrt_dll_is_in_use  00000001800b0b1c     <common>
 0003:00013b20       __dyn_tls_init_callback    00000001800b0b20     <common>
 0003:00013b28       _pDestructExceptionObject  00000001800b0b28     <common>
 0003:00013b40       INT123_COS9                00000001800b0b40     <common>
 0003:00013b80       INT123_tfcos36             00000001800b0b80     <common>
 0003:00013bc0       adj43asm                   00000001800b0bc0     <common>
 0003:0001bc00       ipow20                     00000001800b8c00     <common>
 0003:0001c020       pow43                      00000001800b9020     <common>
 0003:00024060       pow20                      00000001800c1060     <common>
 0003:00024638       ?_OptionsStorage@?1??__local_stdio_printf_options@@9@9 00000001800c1638     <common>
 0003:00024640       ?_OptionsStorage@?1??__local_stdio_scanf_options@@9@9 00000001800c1640     <common>

 entry point at        0001:00051174

 Static symbols

 0000:fff33000       .debug$S                   0000000180000000     node:node.exe
 0000:fff33000       .debug$S                   0000000180000000     kernel32:KERNEL32.dll
 0000:fff33000       .debug$S                   0000000180000000     kernel32:KERNEL32.dll
 0000:fff33000       .debug$S                   0000000180000000     kernel32:KERNEL32.dll
 0000:fff33000       .debug$S                   0000000180000000     kernel32:KERNEL32.dll
 0000:fff33000       .debug$S                   0000000180000000     kernel32:KERNEL32.dll
 0000:fff33000       .debug$S                   0000000180000000     kernel32:KERNEL32.dll
 0000:fff33000       .debug$S                   0000000180000000     kernel32:KERNEL32.dll
 0000:fff33000       .debug$S                   0000000180000000     kernel32:KERNEL32.dll
 0000:fff33000       .debug$S                   0000000180000000     kernel32:KERNEL32.dll
 0000:fff33000       .debug$S                   0000000180000000     kernel32:KERNEL32.dll
 0000:fff33000       .debug$S                   0000000180000000     kernel32:KERNEL32.dll
 0000:fff33000       .debug$S                   0000000180000000     kernel32:KERNEL32.dll
 0000:fff33000       .debug$S                   0000000180000000     kernel32:KERNEL32.dll
 0000:fff33000       .debug$S                   0000000180000000     kernel32:KERNEL32.dll
 0000:fff33000       .debug$S                   0000000180000000     kernel32:KERNEL32.dll
 0000:fff33000       .debug$S                   0000000180000000     kernel32:KERNEL32.dll
 0000:fff33000       .debug$S                   0000000180000000     kernel32:KERNEL32.dll
 0000:fff33000       .debug$S                   0000000180000000     kernel32:KERNEL32.dll
 0000:fff33000       .debug$S                   0000000180000000     kernel32:KERNEL32.dll
 0000:fff33000       .debug$S                   0000000180000000     kernel32:KERNEL32.dll
 0000:fff33000       .debug$S                   0000000180000000     kernel32:KERNEL32.dll
 0000:fff33000       .debug$S                   0000000180000000     kernel32:KERNEL32.dll
 0000:fff33000       .debug$S                   0000000180000000     kernel32:KERNEL32.dll
 0000:fff33000       .debug$S                   0000000180000000     kernel32:KERNEL32.dll
 0000:fff33000       .debug$S                   0000000180000000     kernel32:KERNEL32.dll
 0000:fff33000       .debug$S                   0000000180000000     kernel32:KERNEL32.dll
 0000:fff33000       .debug$S                   0000000180000000     kernel32:KERNEL32.dll
 0000:fff33000       .debug$S                   0000000180000000     kernel32:KERNEL32.dll
 0000:fff33000       .debug$S                   0000000180000000     kernel32:KERNEL32.dll
 0000:fff33000       .debug$S                   0000000180000000     kernel32:KERNEL32.dll
 0000:fff33000       .debug$S                   0000000180000000     kernel32:KERNEL32.dll
 0000:fff33000       .debug$S                   0000000180000000     kernel32:KERNEL32.dll
 0000:fff33000       .debug$S                   0000000180000000     kernel32:KERNEL32.dll
 0000:fff33000       .debug$S                   0000000180000000     kernel32:KERNEL32.dll
 0000:fff33000       .debug$S                   0000000180000000     kernel32:KERNEL32.dll
 0000:fff33000       .debug$S                   0000000180000000     kernel32:KERNEL32.dll
 0000:fff33000       .debug$S                   0000000180000000     kernel32:KERNEL32.dll
 0000:fff33000       .debug$S                   0000000180000000     kernel32:KERNEL32.dll
 0000:fff33000       .debug$S                   0000000180000000     kernel32:KERNEL32.dll
 0000:fff33000       .debug$S                   0000000180000000     kernel32:KERNEL32.dll
 0000:fff33000       .debug$S                   0000000180000000     kernel32:KERNEL32.dll
 0000:fff33000       .debug$S                   0000000180000000     kernel32:KERNEL32.dll
 0000:fff33000       .debug$S                   0000000180000000     kernel32:KERNEL32.dll
 0000:fff33000       .debug$S                   0000000180000000     kernel32:KERNEL32.dll
 0000:fff33000       .debug$S                   0000000180000000     kernel32:KERNEL32.dll
 0000:fff33000       .debug$S                   0000000180000000     kernel32:KERNEL32.dll
 0000:fff33000       .debug$S                   0000000180000000     kernel32:KERNEL32.dll
 0000:fff33000       .debug$S                   0000000180000000     kernel32:KERNEL32.dll
 0000:fff33000       .debug$S                   0000000180000000     kernel32:KERNEL32.dll
 0000:fff33000       .debug$S                   0000000180000000     kernel32:KERNEL32.dll
 0000:fff33000       .debug$S                   0000000180000000     kernel32:KERNEL32.dll
 0000:fff33000       .debug$S                   0000000180000000     kernel32:KERNEL32.dll
 0000:fff33000       .debug$S                   0000000180000000     kernel32:KERNEL32.dll
 0000:fff33000       .debug$S                   0000000180000000     kernel32:KERNEL32.dll
 0000:fff33000       .debug$S                   0000000180000000     kernel32:KERNEL32.dll
 0000:fff33000       .debug$S                   0000000180000000     kernel32:KERNEL32.dll
 0000:fff33000       .debug$S                   0000000180000000     kernel32:KERNEL32.dll
 0000:fff33000       .debug$S                   0000000180000000     kernel32:KERNEL32.dll
 0000:fff33000       .debug$S                   0000000180000000     kernel32:KERNEL32.dll
 0000:fff33000       .debug$S                   0000000180000000     kernel32:KERNEL32.dll
 0000:fff33000       .debug$S                   0000000180000000     kernel32:KERNEL32.dll
 0000:fff33000       .debug$S                   0000000180000000     kernel32:KERNEL32.dll
 0000:fff33000       .debug$S                   0000000180000000     kernel32:KERNEL32.dll
 0000:fff33000       .debug$S                   0000000180000000     kernel32:KERNEL32.dll
 0000:fff33000       .debug$S                   0000000180000000     kernel32:KERNEL32.dll
 0000:fff33000       .debug$S                   0000000180000000     kernel32:KERNEL32.dll
 0000:fff33000       .debug$S                   0000000180000000     kernel32:KERNEL32.dll
 0000:fff33000       .debug$S                   0000000180000000     kernel32:KERNEL32.dll
 0000:fff33000       .debug$S                   0000000180000000     kernel32:KERNEL32.dll
 0000:fff33000       .debug$S                   0000000180000000     kernel32:KERNEL32.dll
 0000:fff33000       .debug$S                   0000000180000000     kernel32:KERNEL32.dll
 0000:fff33000       .debug$S                   0000000180000000     advapi32:ADVAPI32.dll
 0000:fff33000       .debug$S                   0000000180000000     node:node.exe
 0000:fff33000       .debug$S                   0000000180000000     node:node.exe
 0000:fff33000       .debug$S                   0000000180000000     node:node.exe
 0000:fff33000       .debug$S                   0000000180000000     node:node.exe
 0000:fff33000       .debug$S                   0000000180000000     node:node.exe
 0000:fff33000       .debug$S                   0000000180000000     node:node.exe
 0000:fff33000       .debug$S                   0000000180000000     node:node.exe
 0000:fff33000       .debug$S                   0000000180000000     node:node.exe
 0000:fff33000       .debug$S                   0000000180000000     node:node.exe
 0000:fff33000       .debug$S                   0000000180000000     node:node.exe
 0000:fff33000       .debug$S                   0000000180000000     node:node.exe
 0000:fff33000       .debug$S                   0000000180000000     node:node.exe
 0000:fff33000       .debug$S                   0000000180000000     node:node.exe
 0000:fff33000       .debug$S                   0000000180000000     node:node.exe
 0000:fff33000       .debug$S                   0000000180000000     node:node.exe
 0000:fff33000       .debug$S                   0000000180000000     node:node.exe
 0000:fff33000       .debug$S                   0000000180000000     node:node.exe
 0000:fff33000       .debug$S                   0000000180000000     node:node.exe
 0000:fff33000       .debug$S                   0000000180000000     node:node.exe
 0000:fff33000       .debug$S                   0000000180000000     node:node.exe
 0000:fff33000       .debug$S                   0000000180000000     node:node.exe
 0000:fff33000       .debug$S                   0000000180000000     node:node.exe
 0000:fff33000       .debug$S                   0000000180000000     node:node.exe
 0000:fff33000       .debug$S                   0000000180000000     node:node.exe
 0000:fff33000       .debug$S                   0000000180000000     node:node.exe
 0000:fff33000       .debug$S                   0000000180000000     node:node.exe
 0000:fff33000       .debug$S                   0000000180000000     node:node.exe
 0000:fff33000       .debug$S                   0000000180000000     node:node.exe
 0000:fff33000       .debug$S                   0000000180000000     node:node.exe
 0000:fff33000       .debug$S                   0000000180000000     node:node.exe
 0000:fff33000       .debug$S                   0000000180000000     node:node.exe
 0000:fff33000       .debug$S                   0000000180000000     node:node.exe
 0000:fff33000       .debug$S                   0000000180000000     node:node.exe
 0000:fff33000       .debug$S                   0000000180000000     node:node.exe
 0000:fff33000       .debug$S                   0000000180000000     node:node.exe
 0000:fff33000       .debug$S                   0000000180000000     node:node.exe
 0000:fff33000       .debug$S                   0000000180000000     node:node.exe
 0000:fff33000       .debug$S                   0000000180000000     node:node.exe
 0000:fff33000       .debug$S                   0000000180000000     node:node.exe
 0000:fff33000       .debug$S                   0000000180000000     node:node.exe
 0000:fff33000       .debug$S                   0000000180000000     node:node.exe
 0000:fff33000       .debug$S                   0000000180000000     node:node.exe
 0000:fff33000       .debug$S                   0000000180000000     node:node.exe
 0000:fff33000       .debug$S                   0000000180000000     node:node.exe
 0000:fff33000       .debug$S                   0000000180000000     node:node.exe
 0000:fff33000       .debug$S                   0000000180000000     node:node.exe
 0000:fff33000       .debug$S                   0000000180000000     node:node.exe
 0000:fff33000       .debug$S                   0000000180000000     node:node.exe
 0000:fff33000       .debug$S                   0000000180000000     node:node.exe
 0000:fff33000       .debug$S                   0000000180000000     node:node.exe
 0000:fff33000       .debug$S                   0000000180000000     node:node.exe
 0000:fff33000       .debug$S                   0000000180000000     node:node.exe
 0000:fff33000       .debug$S                   0000000180000000     node:node.exe
 0000:fff33000       .debug$S                   0000000180000000     node:node.exe
 0000:fff33000       .debug$S                   0000000180000000     node:node.exe
 0000:fff33000       .debug$S                   0000000180000000     node:node.exe
 0000:fff33000       .debug$S                   0000000180000000     node:node.exe
 0000:fff33000       .debug$S                   0000000180000000     node:node.exe
 0000:fff33000       .debug$S                   0000000180000000     node:node.exe
 0000:fff33000       .debug$S                   0000000180000000     bindings.exp
 0000:fff33000       .debug$S                   0000000180000000     kernel32:KERNEL32.dll
 0000:fff33000       .debug$S                   0000000180000000     node:node.exe
 0000:fff33000       .debug$S                   0000000180000000     node:node.exe
 0000:fff33000       .debug$S                   0000000180000000     node:node.exe
 0000:fff33000       .debug$S                   0000000180000000     node:node.exe
 0000:fff33000       .debug$S                   0000000180000000     node:node.exe
 0000:fff33000       .debug$S                   0000000180000000     node:node.exe
 0000:fff33000       .debug$S                   0000000180000000     node:node.exe
 0000:fff33000       .debug$S                   0000000180000000     node:node.exe
 0000:fff33000       .debug$S                   0000000180000000     node:node.exe
 0000:fff33000       .debug$S                   0000000180000000     node:node.exe
 0000:fff33000       .debug$S                   0000000180000000     node:node.exe
 0000:fff33000       .debug$S                   0000000180000000     node:node.exe
 0000:fff33000       .debug$S                   0000000180000000     node:node.exe
 0000:fff33000       .debug$S                   0000000180000000     node:node.exe
 0000:fff33000       .debug$S                   0000000180000000     node:node.exe
 0000:fff33000       .debug$S                   0000000180000000     node:node.exe
 0000:fff33000       .debug$S                   0000000180000000     node:node.exe
 0000:fff33000       .debug$S                   0000000180000000     node:node.exe
 0000:fff33000       .debug$S                   0000000180000000     node:node.exe
 0000:fff33000       .debug$S                   0000000180000000     node:node.exe
 0000:fff33000       .debug$S                   0000000180000000     node:node.exe
 0000:fff33000       .debug$S                   0000000180000000     node:node.exe
 0000:fff33000       .debug$S                   0000000180000000     node:node.exe
 0000:fff33000       .debug$S                   0000000180000000     node:node.exe
 0000:fff33000       .debug$S                   0000000180000000     node:node.exe
 0000:fff33000       .debug$S                   0000000180000000     node:node.exe
 0000:fff33000       .debug$S                   0000000180000000     kernel32:KERNEL32.dll
 0000:fff33000       .debug$S                   0000000180000000     kernel32:KERNEL32.dll
 0000:fff33000       .debug$S                   0000000180000000     kernel32:KERNEL32.dll
 0000:fff33000       .debug$S                   0000000180000000     kernel32:KERNEL32.dll
 0000:fff33000       .debug$S                   0000000180000000     kernel32:KERNEL32.dll
 0000:fff33000       .debug$S                   0000000180000000     kernel32:KERNEL32.dll
 0000:fff33000       .debug$S                   0000000180000000     kernel32:KERNEL32.dll
 0000:fff33000       .debug$S                   0000000180000000     kernel32:KERNEL32.dll
 0000:fff33000       .debug$S                   0000000180000000     kernel32:KERNEL32.dll
 0000:fff33000       .debug$S                   0000000180000000     kernel32:KERNEL32.dll
 0000:fff33000       .debug$S                   0000000180000000     kernel32:KERNEL32.dll
 0000:fff33000       .debug$S                   0000000180000000     kernel32:KERNEL32.dll
 0000:fff33000       .debug$S                   0000000180000000     kernel32:KERNEL32.dll
 0000:fff33000       .debug$S                   0000000180000000     kernel32:KERNEL32.dll
 0000:fff33000       .debug$S                   0000000180000000     kernel32:KERNEL32.dll
 0000:fff33000       .debug$S                   0000000180000000     kernel32:KERNEL32.dll
 0000:fff33000       .debug$S                   0000000180000000     kernel32:KERNEL32.dll
 0001:000005f0       ?wrap_pointer_cb@@YAXPEADPEAX@Z 00000001800015f0 f i node_mpg123.obj
 0001:000005f0       ?wrap_pointer_cb@@YAXPEADPEAX@Z 00000001800015f0 f i node_lame.obj
 0001:000005f0       bad_close                  00000001800015f0 f i libmpg123:readers.obj
 0001:000005f0       bad_rewind                 00000001800015f0 f i libmpg123:readers.obj
 0001:00001440       _register_bindings         0000000180002440 f   bindings.obj
 0001:00001450       ?FunctionCallbackWrapper@imp@Nan@@YAXAEBV?$FunctionCallbackInfo@VValue@v8@@@v8@@@Z 0000000180002450 f   node_lame.obj
 0001:000141c0       load_exe_hook              00000001800151c0 f   win_delay_load_hook.obj
 0001:00014210       lame_init_params_ppflt     0000000180015210 f   libmp3lame:lame.obj
 0001:000146a0       optimum_samplefreq         00000001800156a0 f   libmp3lame:lame.obj
 0001:000147f0       lame_init_qval             00000001800157f0 f   libmp3lame:lame.obj
 0001:000149a8       $LN34                      00000001800159a8     libmp3lame:lame.obj
 0001:00016c60       save_gain_values           0000000180017c60 f   libmp3lame:lame.obj
 0001:00016dc0       update_inbuffer_size       0000000180017dc0 f   libmp3lame:lame.obj
 0001:00016eb0       lame_encode_buffer_sample_t 0000000180017eb0 f   libmp3lame:lame.obj
 0001:000172f0       lame_copy_inbuffer         00000001800182f0 f   libmp3lame:lame.obj
 0001:00017b50       lame_encode_buffer_template 0000000180018b50 f   libmp3lame:lame.obj
 0001:00017d80       lame_init_old              0000000180018d80 f   libmp3lame:lame.obj
 0001:00017ff0       id3v2AddAudioDuration      0000000180018ff0 f   libmp3lame:id3tag.obj
 0001:000180d0       local_strdup               00000001800190d0 f   libmp3lame:id3tag.obj
 0001:00018170       id3v2_add_latin1           0000000180019170 f   libmp3lame:id3tag.obj
 0001:00018280       sizeOfNode                 0000000180019280 f   libmp3lame:id3tag.obj
 0001:000182c0       sizeOfWxxxNode             00000001800192c0 f   libmp3lame:id3tag.obj
 0001:00018310       writeLoBytes               0000000180019310 f   libmp3lame:id3tag.obj
 0001:00018390       set_frame_comment          0000000180019390 f   libmp3lame:id3tag.obj
 0001:00018540       set_frame_custom2          0000000180019540 f   libmp3lame:id3tag.obj
 0001:000186e0       set_frame_wxxx             00000001800196e0 f   libmp3lame:id3tag.obj
 0001:00018870       set_frame_apic             0000000180019870 f   libmp3lame:id3tag.obj
 0001:00018f30       putbits2                   0000000180019f30 f   libmp3lame:bitstream.obj
 0001:00019050       drain_into_ancillary       000000018001a050 f   libmp3lame:bitstream.obj
 0001:00019150       writeheader                000000018001a150 f   libmp3lame:bitstream.obj
 0001:00019210       CRC_update                 000000018001a210 f   libmp3lame:bitstream.obj
 0001:000193c0       encodeSideInfo2            000000018001a3c0 f   libmp3lame:bitstream.obj
 0001:0001aa00       huffman_coder_count1       000000018001ba00 f   libmp3lame:bitstream.obj
 0001:0001ab40       Huffmancode                000000018001bb40 f   libmp3lame:bitstream.obj
 0001:0001ad00       LongHuffmancodebits        000000018001bd00 f   libmp3lame:bitstream.obj
 0001:0001adc0       writeMainData              000000018001bdc0 f   libmp3lame:bitstream.obj
 0001:0001b620       apply_vbr_preset           000000018001c620 f   libmp3lame:presets.obj
 0001:0001bc60       apply_abr_preset           000000018001cc60 f   libmp3lame:presets.obj
 0001:0001c82c       $LN76                      000000018001d82c     libmp3lame:presets.obj
 0001:0001c84c       $LN75                      000000018001d84c     libmp3lame:presets.obj
 0001:0001c878       $LN74                      000000018001d878     libmp3lame:presets.obj
 0001:0001c8e0       vbrpsy_mask_add            000000018001d8e0 f   libmp3lame:psymodel.obj
 0001:0001c9f0       convert_partition2scalefac 000000018001d9f0 f   libmp3lame:psymodel.obj
 0001:0001ccb0       convert_partition2scalefac_s 000000018001dcb0 f   libmp3lame:psymodel.obj
 0001:0001ce70       convert_partition2scalefac_l_to_s 000000018001de70 f   libmp3lame:psymodel.obj
 0001:0001cf30       pecalc_s                   000000018001df30 f   libmp3lame:psymodel.obj
 0001:0001d260       pecalc_l                   000000018001e260 f   libmp3lame:psymodel.obj
 0001:0001d5a0       calc_energy                000000018001e5a0 f   libmp3lame:psymodel.obj
 0001:0001d6f0       calc_mask_index_l          000000018001e6f0 f   libmp3lame:psymodel.obj
 0001:0001d900       vbrpsy_compute_fft_l       000000018001e900 f   libmp3lame:psymodel.obj
 0001:0001dd90       vbrpsy_compute_fft_s       000000018001ed90 f   libmp3lame:psymodel.obj
 0001:0001e0e0       vbrpsy_attack_detection    000000018001f0e0 f   libmp3lame:psymodel.obj
 0001:0001ee10       vbrpsy_skip_masking_s      000000018001fe10 f   libmp3lame:psymodel.obj
 0001:0001eec0       vbrpsy_calc_mask_index_s   000000018001fec0 f   libmp3lame:psymodel.obj
 0001:0001f0c0       vbrpsy_compute_masking_s   00000001800200c0 f   libmp3lame:psymodel.obj
 0001:0001f670       vbrpsy_compute_masking_l   0000000180020670 f   libmp3lame:psymodel.obj
 0001:0001fb50       vbrpsy_compute_MS_thresholds 0000000180020b50 f   libmp3lame:psymodel.obj
 0001:00020830       s3_func                    0000000180021830 f   libmp3lame:psymodel.obj
 0001:00020970       init_numline               0000000180021970 f   libmp3lame:psymodel.obj
 0001:00020f80       compute_bark_values        0000000180021f80 f   libmp3lame:psymodel.obj
 0001:00021290       init_s3_values             0000000180022290 f   libmp3lame:psymodel.obj
 0001:000226d0       ATHformula_GB              00000001800236d0 f   libmp3lame:util.obj
 0001:000228bc       $LN12                      00000001800238bc     libmp3lame:util.obj
 0001:00022b80       blackman                   0000000180023b80 f   libmp3lame:util.obj
 0001:00022cf0       gcd                        0000000180023cf0 f   libmp3lame:util.obj
 0001:00022d10       fill_buffer_resample       0000000180023d10 f   libmp3lame:util.obj
 0001:000237a0       compute_ath                00000001800247a0 f   libmp3lame:quantize_pvt.obj
 0001:00024f40       calc_noise_core_c          0000000180025f40 f   libmp3lame:quantize_pvt.obj
 0001:000254b0       set_pinfo                  00000001800264b0 f   libmp3lame:quantize_pvt.obj
 0001:00025eb0       setLameTagFrameHeader      0000000180026eb0 f   libmp3lame:VbrTag.obj
 0001:00026180       ms_convert                 0000000180027180 f   libmp3lame:quantize.obj
 0001:00026350       init_xrpow_core_c          0000000180027350 f   libmp3lame:quantize.obj
 0001:000265a0       init_xrpow                 00000001800275a0 f   libmp3lame:quantize.obj
 0001:00026680       psfb21_analogsilence       0000000180027680 f   libmp3lame:quantize.obj
 0001:000268d0       init_outer_loop            00000001800278d0 f   libmp3lame:quantize.obj
 0001:00026d30       bin_search_StepSize        0000000180027d30 f   libmp3lame:quantize.obj
 0001:00026ed0       floatcompare               0000000180027ed0 f   libmp3lame:quantize.obj
 0001:00026ef0       trancate_smallspectrums    0000000180027ef0 f   libmp3lame:quantize.obj
 0001:00027460       loop_break                 0000000180028460 f   libmp3lame:quantize.obj
 0001:000274b0       get_klemm_noise            00000001800284b0 f   libmp3lame:quantize.obj
 0001:00027820       quant_compare              0000000180028820 f   libmp3lame:quantize.obj
 0001:00027c60       $LN54                      0000000180028c60     libmp3lame:quantize.obj
 0001:00027c90       amp_scalefac_bands         0000000180028c90 f   libmp3lame:quantize.obj
 0001:00027f00       inc_scalefac_scale         0000000180028f00 f   libmp3lame:quantize.obj
 0001:000280d0       inc_subblock_gain          00000001800290d0 f   libmp3lame:quantize.obj
 0001:00028520       balance_noise              0000000180029520 f   libmp3lame:quantize.obj
 0001:00028680       outer_loop                 0000000180029680 f   libmp3lame:quantize.obj
 0001:00028db0       VBR_encode_granule         0000000180029db0 f   libmp3lame:quantize.obj
 0001:00029130       get_framebits              000000018002a130 f   libmp3lame:quantize.obj
 0001:00029280       VBR_old_prepare            000000018002a280 f   libmp3lame:quantize.obj
 0001:000296b0       bitpressure_strategy       000000018002a6b0 f   libmp3lame:quantize.obj
 0001:00029eb0       VBR_new_prepare            000000018002aeb0 f   libmp3lame:quantize.obj
 0001:0002a4c0       calc_target_bits           000000018002b4c0 f   libmp3lame:quantize.obj
 0001:0002b0b0       filterYule                 000000018002c0b0 f   libmp3lame:gain_analysis.obj
 0001:0002b280       ResetSampleFrequency       000000018002c280 f   libmp3lame:gain_analysis.obj
 0001:0002bc30       analyzeResult              000000018002cc30 f   libmp3lame:gain_analysis.obj
 0001:0002bdc0       adjust_ATH                 000000018002cdc0 f   libmp3lame:encoder.obj
 0001:0002bf00       updateStats                000000018002cf00 f   libmp3lame:encoder.obj
 0001:0002c000       lame_encode_frame_init     000000018002d000 f   libmp3lame:encoder.obj
 0001:0002cf80       quantize_lines_xrpow       000000018002df80 f   libmp3lame:takehiro.obj
 0001:0002d180       quantize_xrpow             000000018002e180 f   libmp3lame:takehiro.obj
 0001:0002d590       count_bit_ESC              000000018002e590 f   libmp3lame:takehiro.obj
 0001:0002d650       count_bit_noESC            000000018002e650 f   libmp3lame:takehiro.obj
 0001:0002d690       count_bit_noESC_from2      000000018002e690 f   libmp3lame:takehiro.obj
 0001:0002d730       count_bit_noESC_from3      000000018002e730 f   libmp3lame:takehiro.obj
 0001:0002d800       count_bit_null             000000018002e800 f   libmp3lame:takehiro.obj
 0001:0002d810       choose_table_nonMMX        000000018002e810 f   libmp3lame:takehiro.obj
 0001:0002e5e0       scfsi_calc                 000000018002f5e0 f   libmp3lame:takehiro.obj
 0001:0002ea90       mpeg1_scale_bitcount       000000018002fa90 f   libmp3lame:takehiro.obj
 0001:0002ec30       mpeg2_scale_bitcount       000000018002fc30 f   libmp3lame:takehiro.obj
 0001:0002f000       fht                        0000000180030000 f   libmp3lame:fft.obj
 0001:0002faa0       k_34_4                     0000000180030aa0 f   libmp3lame:vbrquantize.obj
 0001:0002fbd0       calc_sfb_noise_x34         0000000180030bd0 f   libmp3lame:vbrquantize.obj
 0001:0002ffe0       guess_scalefac_x34         0000000180030fe0 f   libmp3lame:vbrquantize.obj
 0001:00030030       find_scalefac_x34          0000000180031030 f   libmp3lame:vbrquantize.obj
 0001:000301e0       block_sf                   00000001800311e0 f   libmp3lame:vbrquantize.obj
 0001:000304d0       quantize_x34               00000001800314d0 f   libmp3lame:vbrquantize.obj
 0001:00030790       set_subblock_gain          0000000180031790 f   libmp3lame:vbrquantize.obj
 0001:00030970       set_scalefacs              0000000180031970 f   libmp3lame:vbrquantize.obj
 0001:00030b90       short_block_constrain      0000000180031b90 f   libmp3lame:vbrquantize.obj
 0001:00030d90       long_block_constrain       0000000180031d90 f   libmp3lame:vbrquantize.obj
 0001:00031120       tryGlobalStepsize          0000000180032120 f   libmp3lame:vbrquantize.obj
 0001:00031250       searchGlobalStepsizeMax    0000000180032250 f   libmp3lame:vbrquantize.obj
 0001:00031440       flattenDistribution        0000000180032440 f   libmp3lame:vbrquantize.obj
 0001:00031510       outOfBitsStrategy          0000000180032510 f   libmp3lame:vbrquantize.obj
 0001:000326c0       window_subband             00000001800336c0 f   libmp3lame:newmdct.obj
 0001:000335b0       mdct_short                 00000001800345b0 f   libmp3lame:newmdct.obj
 0001:00033a40       mdct_long                  0000000180034a40 f   libmp3lame:newmdct.obj
 0001:00034d00       frame_buffercheck          0000000180035d00 f   libmpg123:libmpg123.obj
 0001:00035140       get_next_frame             0000000180036140 f   libmpg123:libmpg123.obj
 0001:000352e0       decode_the_frame           00000001800362e0 f   libmpg123:libmpg123.obj
 0001:000358f0       synth_stereo_wrap          00000001800368f0 f   libmpg123:optimize.obj
 0001:00035940       find_dectype               0000000180036940 f   libmpg123:optimize.obj
 0001:00035ef0       frame_default_pars         0000000180036ef0 f   libmpg123:frame.obj
 0001:00036650       frame_fixed_reset          0000000180037650 f   libmpg123:frame.obj
 0001:000367d0       frame_free_buffers         00000001800377d0 f   libmpg123:frame.obj
 0001:000369a0       frame_fuzzy_find           00000001800379a0 f   libmpg123:frame.obj
 0001:000374e0       free_id3_text              00000001800384e0 f   libmpg123:id3.obj
 0001:00037590       add_id3_text               0000000180038590 f   libmpg123:id3.obj
 0001:00037630       pop_id3_text               0000000180038630 f   libmpg123:id3.obj
 0001:000379b0       store_id3_text             00000001800389b0 f   libmpg123:id3.obj
 0001:00037ba0       next_text                  0000000180038ba0 f   libmpg123:id3.obj
 0001:00037c30       process_text               0000000180038c30 f   libmpg123:id3.obj
 0001:00037dc0       process_comment            0000000180038dc0 f   libmpg123:id3.obj
 0001:000382f0       process_extra              00000001800392f0 f   libmpg123:id3.obj
 0001:00038810       promote_framename          0000000180039810 f   libmpg123:id3.obj
 0001:00039670       convert_latin1             000000018003a670 f   libmpg123:id3.obj
 0001:00039780       check_bom                  000000018003a780 f   libmpg123:id3.obj
 0001:000397f0       convert_utf16bom           000000018003a7f0 f   libmpg123:id3.obj
 0001:00039bc0       convert_utf8               000000018003abc0 f   libmpg123:id3.obj
 0001:00039c40       rate2num                   000000018003ac40 f   libmpg123:format.obj
 0001:00039c80       cap_fit                    000000018003ac80 f   libmpg123:format.obj
 0001:00039d60       freq_fit                   000000018003ad60 f   libmpg123:format.obj
 0001:0003a430       chop_fourth_byte           000000018003b430 f   libmpg123:format.obj
 0001:0003a5f0       posix_read                 000000018003b5f0 f   libmpg123:readers.obj
 0001:0003a600       posix_lseek                000000018003b600 f   libmpg123:readers.obj
 0001:0003a610       nix_lseek                  000000018003b610 f   libmpg123:readers.obj
 0001:0003a610       feed_seek_frame            000000018003b610 f   libmpg123:readers.obj
 0001:0003a620       plain_read                 000000018003b620 f   libmpg123:readers.obj
 0001:0003a660       icy_fullread               000000018003b660 f   libmpg123:readers.obj
 0001:0003a9b0       plain_fullread             000000018003b9b0 f   libmpg123:readers.obj
 0001:0003aa30       stream_close               000000018003ba30 f   libmpg123:readers.obj
 0001:0003aaa0       stream_seek_frame          000000018003baa0 f   libmpg123:readers.obj
 0001:0003ab70       generic_head_read          000000018003bb70 f   libmpg123:readers.obj
 0001:0003abe0       generic_head_shift         000000018003bbe0 f   libmpg123:readers.obj
 0001:0003ac30       stream_skip_bytes          000000018003bc30 f   libmpg123:readers.obj
 0001:0003ad80       stream_back_bytes          000000018003bd80 f   libmpg123:readers.obj
 0001:0003ade0       generic_read_frame_body    000000018003bde0 f   libmpg123:readers.obj
 0001:0003ae10       generic_tell               000000018003be10 f   libmpg123:readers.obj
 0001:0003ae40       stream_rewind              000000018003be40 f   libmpg123:readers.obj
 0001:0003aee0       get_fileinfo               000000018003bee0 f   libmpg123:readers.obj
 0001:0003b030       buffy_new                  000000018003c030 f   libmpg123:readers.obj
 0001:0003b0b0       bc_fill_pool               000000018003c0b0 f   libmpg123:readers.obj
 0001:0003b180       bc_reset                   000000018003c180 f   libmpg123:readers.obj
 0001:0003b210       bc_add                     000000018003c210 f   libmpg123:readers.obj
 0001:0003b310       bc_give                    000000018003c310 f   libmpg123:readers.obj
 0001:0003b3f0       bc_forget                  000000018003c3f0 f   libmpg123:readers.obj
 0001:0003b4a0       feed_init                  000000018003c4a0 f   libmpg123:readers.obj
 0001:0003b4f0       feed_read                  000000018003c4f0 f   libmpg123:readers.obj
 0001:0003b520       feed_skip_bytes            000000018003c520 f   libmpg123:readers.obj
 0001:0003b580       feed_back_bytes            000000018003c580 f   libmpg123:readers.obj
 0001:0003b620       buffered_forget            000000018003c620 f   libmpg123:readers.obj
 0001:0003b650       buffered_fullread          000000018003c650 f   libmpg123:readers.obj
 0001:0003b800       bad_init                   000000018003c800 f   libmpg123:readers.obj
 0001:0003b800       bad_back_bytes             000000018003c800 f   libmpg123:readers.obj
 0001:0003b800       bad_tell                   000000018003c800 f   libmpg123:readers.obj
 0001:0003b800       bad_read_frame_body        000000018003c800 f   libmpg123:readers.obj
 0001:0003b800       bad_head_read              000000018003c800 f   libmpg123:readers.obj
 0001:0003b800       bad_seek_frame             000000018003c800 f   libmpg123:readers.obj
 0001:0003b800       bad_skip_bytes             000000018003c800 f   libmpg123:readers.obj
 0001:0003b800       bad_head_shift             000000018003c800 f   libmpg123:readers.obj
 0001:0003b810       bad_fullread               000000018003c810 f   libmpg123:readers.obj
 0001:0003b820       default_init               000000018003c820 f   libmpg123:readers.obj
 0001:0003bcc0       II_step_one                000000018003ccc0 f   libmpg123:layer2.obj
 0001:0003c3a0       II_step_two                000000018003d3a0 f   libmpg123:layer2.obj
 0001:0003cbe0       II_select_table            000000018003dbe0 f   libmpg123:layer2.obj
 0001:0003e360       III_get_side_info          000000018003f360 f   libmpg123:layer3.obj
 0001:0003ee40       III_get_scale_factors_1    000000018003fe40 f   libmpg123:layer3.obj
 0001:0003f3b0       III_get_scale_factors_2    00000001800403b0 f   libmpg123:layer3.obj
 0001:0003f5d0       III_dequantize_sample      00000001800405d0 f   libmpg123:layer3.obj
 0001:00040470       III_i_stereo               0000000180041470 f   libmpg123:layer3.obj
 0001:00040c20       III_antialias              0000000180041c20 f   libmpg123:layer3.obj
 0001:000417a0       dct12                      00000001800427a0 f   libmpg123:layer3.obj
 0001:00041d40       III_hybrid                 0000000180042d40 f   libmpg123:layer3.obj
 0001:00042580       head_check                 0000000180043580 f   libmpg123:parse.obj
 0001:000425c0       check_lame_tag             00000001800435c0 f   libmpg123:parse.obj
 0001:00042f10       halfspeed_do               0000000180043f10 f   libmpg123:parse.obj
 0001:00043580       guess_freeformat_framesize 0000000180044580 f   libmpg123:parse.obj
 0001:00043660       decode_header              0000000180044660 f   libmpg123:parse.obj
 0001:00043bb0       do_readahead               0000000180044bb0 f   libmpg123:parse.obj
 0001:00043d90       skip_junk                  0000000180044d90 f   libmpg123:parse.obj
 0001:00044030       wetwork                    0000000180045030 f   libmpg123:parse.obj
 0001:0004dbe0       I_step_one                 000000018004ebe0 f   libmpg123:layer1.obj
 0001:0004e000       I_step_two                 000000018004f000 f   libmpg123:layer1.obj
 0001:0004f7b0       dct64_1                    00000001800507b0 f   libmpg123:dct64_i386.obj
 0001:00050d90       $$000000                   0000000180051d90     LIBCMT:_amdsecgs_.obj
 0001:00050e18       ?dllmain_crt_dispatch@@YAHQEAUHINSTANCE__@@KQEAX@Z 0000000180051e18 f   LIBCMT:dll_dllmain.obj
 0001:00050e68       ?dllmain_crt_process_attach@@YAHQEAUHINSTANCE__@@QEAX@Z 0000000180051e68 f   LIBCMT:dll_dllmain.obj
 0001:00050f94       ?dllmain_crt_process_detach@@YAH_N@Z 0000000180051f94 f   LIBCMT:dll_dllmain.obj
 0001:00051018       ?dllmain_dispatch@@YAHQEAUHINSTANCE__@@KQEAX@Z 0000000180052018 f   LIBCMT:dll_dllmain.obj
 0001:00051120       ?dllmain_raw@@YAHQEAUHINSTANCE__@@KQEAX@Z 0000000180052120 f   LIBCMT:dll_dllmain.obj
 0001:0005136c       capture_current_context    000000018005236c f   LIBCMT:gs_report.obj
 0001:000513dc       capture_previous_context   00000001800523dc f   LIBCMT:gs_report.obj
 0001:00051ee0       $$000000                   0000000180052ee0     libvcruntime:memcpy.obj
 0001:00051f87       MoveSmall                  0000000180052f87     libvcruntime:memcpy.obj
 0001:00052328       _TlgDefineProvider_annotation__Tlg_Microsoft_CRTProviderProv 0000000180053328 f   libvcruntime:telemetry.obj
 0001:000529e0       $$000000                   00000001800539e0     libvcruntime:memset.obj
 0001:00052acc       MsetTab                    0000000180053acc     libvcruntime:memset.obj
 0001:00052bb4       ?try_get_function@@YAPEAXW4function_id@?A0x61ce2399@@QEBDQEBW4module_id@2@2@Z 0000000180053bb4 f   libvcruntime:winapi_downlevel.obj
 0001:000531d0       $$000000                   00000001800541d0     libvcruntime:_jmpuwind_.obj
 0001:00053618       ?internal_isupper_l@@YA_NHQEAU__crt_locale_pointers@@@Z 0000000180054618 f   libucrt:tolower_toupper.obj
 0001:000537e0       $$000000                   00000001800547e0     libucrt:strncmp.obj
 0001:00053c20       ??R<lambda_0a64b6a4deda75c01876f29c44fc5eb3>@@QEBAHXZ 0000000180054c20 f   libucrt:output.obj
 0001:000562c4       common_flush_all           00000001800572c4 f   libucrt:fflush.obj
 0001:000563f0       $$000000                   00000001800573f0     libucrt:strncpy.obj
 0001:00056564       ?atexit_exception_filter@@YAHK@Z 0000000180057564 f   libucrt:exit.obj
 0001:00056570       ?common_exit@@YAXHW4_crt_exit_cleanup_mode@@W4_crt_exit_return_mode@@@Z 0000000180057570 f   libucrt:exit.obj
 0001:000566dc       ?exit_or_terminate_process@@YAXI@Z 00000001800576dc f   libucrt:exit.obj
 0001:00056728       ?try_cor_exit_process@@YAXI@Z 0000000180057728 f   libucrt:exit.obj
 0001:000567d0       ?shortsort@@YAXPEAD0_KP6AHPEBX2@Z@Z 00000001800577d0 f   libucrt:qsort.obj
 0001:00056d48       ??$common_atof_l@D@@YANQEBDQEAU__crt_locale_pointers@@@Z 0000000180057d48 f   libucrt:atof.obj
 0001:000578c8       ??R<lambda_73acf8ad6384d823b0eabb7cc5a67fbc>@@QEBA_NXZ 00000001800588c8 f   libucrt:atof.obj
 0001:000578c8       ??R<lambda_5b157d9853193f9f9f8b62eb1b9b9f4d>@@QEBA_NXZ 00000001800588c8 f   libucrt:atof.obj
 0001:000578c8       ??R<lambda_4b02b6c4205409ce3a17cd2e58fe2976>@@QEBA_NXZ 00000001800588c8 f   libucrt:atof.obj
 0001:0005a218       memcpy_s                   000000018005b218 f   libucrt:cfout.obj
 0001:0005a218       memcpy_s                   000000018005b218 f   libucrt:atof.obj
 0001:0005bc1c       ??R<lambda_d101c2b4ad3778eb23b701cc8964de65>@@QEBA_NXZ 000000018005cc1c f   libucrt:input.obj
 0001:0005bc1c       ??R<lambda_5b936a367a2157d8f8fe79b470b291e7>@@QEBA_NXZ 000000018005cc1c f   libucrt:input.obj
 0001:0005bc1c       ??R<lambda_5ffa2d601484df6a17cc9a350962665c>@@QEBA_NXZ 000000018005cc1c f   libucrt:input.obj
 0001:0005d02c       ??$common_initialize_environment_nolock@D@@YAHXZ 000000018005e02c f   libucrt:environment_initialization.obj
 0001:0005d098       ??$create_environment@D@@YAQEAPEADQEAD@Z 000000018005e098 f   libucrt:environment_initialization.obj
 0001:0005d194       ??$free_environment@D@@YAXQEAPEAD@Z 000000018005e194 f   libucrt:environment_initialization.obj
 0001:0005d194       ??$free_environment@_W@@YAXQEAPEA_W@Z 000000018005e194 f   libucrt:environment_initialization.obj
 0001:0005d1d8       ??$uninitialize_environment_internal@D@@YAXAEAPEAPEAD@Z 000000018005e1d8 f   libucrt:environment_initialization.obj
 0001:0005d1f4       ??$uninitialize_environment_internal@_W@@YAXAEAPEAPEA_W@Z 000000018005e1f4 f   libucrt:environment_initialization.obj
 0001:0005d42c       ??R<lambda_4e60a939b0d047cfe11ddc22648dfba9>@@QEBAHXZ 000000018005e42c f   libucrt:onexit.obj
 0001:0005d6dc       initialize_global_variables 000000018005e6dc f   libucrt:initialization.obj
 0001:0005d6f0       initialize_c               000000018005e6f0 f   libucrt:initialization.obj
 0001:0005d714       uninitialize_environment   000000018005e714 f   libucrt:initialization.obj
 0001:0005d724       initialize_global_state_isolation 000000018005e724 f   libucrt:initialization.obj
 0001:0005d724       uninitialize_c             000000018005e724 f   libucrt:initialization.obj
 0001:0005d724       initialize_environment     000000018005e724 f   libucrt:initialization.obj
 0001:0005d724       report_memory_leaks        000000018005e724 f   libucrt:initialization.obj
 0001:0005d724       uninitialize_global_state_isolation 000000018005e724 f   libucrt:initialization.obj
 0001:0005d728       initialize_pointers        000000018005e728 f   libucrt:initialization.obj
 0001:0005d77c       uninitialize_vcruntime     000000018005e77c f   libucrt:initialization.obj
 0001:0005d784       uninitialize_allocated_memory 000000018005e784 f   libucrt:initialization.obj
 0001:0005d898       ??$translate_text_mode_nolock@_W@@YAHHQEA_W_K@Z 000000018005e898 f   libucrt:read.obj
 0001:0005dac8       ?translate_ansi_or_utf8_nolock@@YAHHQEAD_KQEA_W1@Z 000000018005eac8 f   libucrt:read.obj
 0001:0005e348       ??$common_lseek@J@@YAJHJH@Z 000000018005f348 f   libucrt:lseek.obj
 0001:0005e434       ??$common_lseek@_J@@YA_JH_JH@Z 000000018005f434 f   libucrt:lseek.obj
 0001:0005e524       ??$common_lseek_nolock@J@@YAJHJH@Z 000000018005f524 f   libucrt:lseek.obj
 0001:0005e5a0       ??$common_lseek_nolock@_J@@YA_JH_JH@Z 000000018005f5a0 f   libucrt:lseek.obj
 0001:0005e63c       ?common_lseek_do_seek_nolock@@YAJQEAXJH@Z 000000018005f63c f   libucrt:lseek.obj
 0001:0005efac       ?construct_ptd_array@@YAXQEAU__acrt_ptd@@@Z 000000018005ffac f   libucrt:per_thread_data.obj
 0001:0005f07c       ?destroy_fls@@YAXPEAX@Z    000000018006007c f   libucrt:per_thread_data.obj
 0001:0005f09c       ?destroy_ptd_array@@YAXQEAU__acrt_ptd@@@Z 000000018006009c f   libucrt:per_thread_data.obj
 0001:0005f194       ?replace_current_thread_locale_nolock@@YAXQEAU__acrt_ptd@@QEAU__crt_locale_data@@@Z 0000000180060194 f   libucrt:per_thread_data.obj
 0001:0005f490       ?initialize_inherited_file_handles_nolock@@YAXXZ 0000000180060490 f   libucrt:ioinit.obj
 0001:0005f57c       ?initialize_stdio_handles_nolock@@YAXXZ 000000018006057c f   libucrt:ioinit.obj
 0001:0005f874       ?__acrt_LCMapStringA_stat@@YAHPEAU__crt_locale_pointers@@PEB_WKPEBDHPEADHHH@Z 0000000180060874 f   libucrt:lcmapstringa.obj
 0001:000603ec       ?fp_format_a@@YAHQEBNPEAD_KQEAD2H_NIQEAU__crt_locale_pointers@@@Z 00000001800613ec f   libucrt:cvt.obj
 0001:0006074c       ?fp_format_e@@YAHQEBNQEAD_K12H_NIQEAU__crt_locale_pointers@@@Z 000000018006174c f   libucrt:cvt.obj
 0001:0006081c       ?fp_format_e_internal@@YAHQEAD_KH_NIQEAU_strflt@@2QEAU__crt_locale_pointers@@@Z 000000018006181c f   libucrt:cvt.obj
 0001:000609f8       ?fp_format_f_internal@@YAHQEAD_KHQEAU_strflt@@_NQEAU__crt_locale_pointers@@@Z 00000001800619f8 f   libucrt:cvt.obj
 0001:00060b40       ?fp_format_g@@YAHQEBNQEAD_K12H_NIQEAU__crt_locale_pointers@@@Z 0000000180061b40 f   libucrt:cvt.obj
 0001:00060c78       ?fp_format_nan_or_infinity@@YAHW4__acrt_fp_class@@_NPEAD_K1@Z 0000000180061c78 f   libucrt:cvt.obj
 0001:00061164       ?try_get_function@@YAPEAXW4function_id@?A0x63058377@@QEBDQEBW4module_id@2@2@Z 0000000180062164 f   libucrt:winapi_thunks.obj
 0001:00061a14       ?write_double_translated_ansi_nolock@@YA?AUwrite_result@?A0x9c548279@@HQEBDI@Z 0000000180062a14 f   libucrt:write.obj
 0001:00061c1c       ?write_text_ansi_nolock@@YA?AUwrite_result@?A0x9c548279@@HQEBDI@Z 0000000180062c1c f   libucrt:write.obj
 0001:00061d24       ?write_text_utf16le_nolock@@YA?AUwrite_result@?A0x9c548279@@HQEBDI@Z 0000000180062d24 f   libucrt:write.obj
 0001:00061e40       ?write_text_utf8_nolock@@YA?AUwrite_result@?A0x9c548279@@HQEBDI@Z 0000000180062e40 f   libucrt:write.obj
 0001:00062384       ??$write_buffer_nolock@D@@YA_NDV__crt_stdio_stream@@@Z 0000000180063384 f   libucrt:_flsbuf.obj
 0001:0006295c       ??R<lambda_ad1ced32f4ac17aa236e5ef05d6b3b7c>@@QEBAXXZ 000000018006395c f   libucrt:mbctype.obj
 0001:00062b74       ?getSystemCP@@YAHH@Z       0000000180063b74 f   libucrt:mbctype.obj
 0001:00062bf4       ?setSBCS@@YAXPEAU__crt_multibyte_data@@@Z 0000000180063bf4 f   libucrt:mbctype.obj
 0001:00062c84       ?setSBUpLow@@YAXPEAU__crt_multibyte_data@@@Z 0000000180063c84 f   libucrt:mbctype.obj
 0001:00062e68       ?setmbcp_internal@@YAHH_N@Z 0000000180063e68 f   libucrt:mbctype.obj
 0001:00063ce4       ?free_crt_array_internal@@YAXQEAPEBX_K@Z 0000000180064ce4 f   libucrt:inittime.obj
 0001:0006543c       ?GetTableIndexFromLocaleName@@YAHPEB_W@Z 000000018006643c f   libucrt:lcidtoname_downlevel.obj
 0001:00065770       ?initialize_multibyte@@YAHXZ 0000000180066770 f   libucrt:multibyte_initializer.obj
 0001:00065950       $$000000                   0000000180066950     libucrt:log10.obj
 0001:00066044       common_control87           0000000180067044 f   libucrt:ieee.obj
 0001:000662e0       $$000000                   00000001800672e0     libucrt:fpsr.obj
 0001:00066340       _call_matherr              0000000180067340 f   libucrt:libm_error.obj
 0001:000663a8       _exception_enabled         00000001800673a8 f   libucrt:libm_error.obj
 0001:000667c0       _log_special_common        00000001800677c0 f   libucrt:log_special.obj
 0001:00066858       _logf_special_common       0000000180067858 f   libucrt:log_special.obj
 0001:00067570       $$000000                   0000000180068570     LIBCMT:_chkstk_.obj
 0001:000675e0       $$000000                   00000001800685e0     libvcruntime:memcmp.obj
 0001:00067800       $$000000                   0000000180068800     LIBCMT:_svml_dcos2_dispatch_.obj
 0001:00067810       $$000000                   0000000180068810     LIBCMT:_svml_dlog2_dispatch_.obj
 0001:00067820       $$000000                   0000000180068820     LIBCMT:_svml_dpow2_dispatch_.obj
 0001:00067830       __static_scalar_cos        0000000180068830 f   LIBCMT:_svml_dcos2_sse2_.obj
 0001:00067830       $$000000                   0000000180068830     LIBCMT:_svml_dcos2_sse2_.obj
 0001:000681d0       $$000000                   00000001800691d0     LIBCMT:_svml_dlog2_sse2_.obj
 0001:000685e0       $$000000                   00000001800695e0     LIBCMT:_svml_dpow2_sse2_.obj
 0001:000685e0       _raise_zerodivide          00000001800695e0 f   LIBCMT:_svml_dpow2_sse2_.obj
 0001:00068a80       pow_scalar                 0000000180069a80 f   LIBCMT:_svml_dpow2_sse2_.obj
 0001:00069900       _raise_invalid             000000018006a900 f   LIBCMT:_svml_dpow2_sse2_.obj
 0001:00069b30       $$000000                   000000018006ab30     libucrt:cos.obj
 0001:0006a0b0       $$000000                   000000018006b0b0     libucrt:exp.obj
 0001:0006a560       $$000000                   000000018006b560     libucrt:log.obj
 0001:0006aa90       $$000000                   000000018006ba90     libucrt:log10f.obj
 0001:0006af70       $$000000                   000000018006bf70     libucrt:pow.obj
 0001:0006c610       $$000000                   000000018006d610     libucrt:powf.obj
 0001:0006d4e0       $$000000                   000000018006e4e0     libucrt:sin.obj
 0001:0006db20       $$000000                   000000018006eb20     libucrt:tan.obj
 0001:0006e0e0       _tan_piby4                 000000018006f0e0 f   libucrt:tan.obj
 0001:0006e2c0       $$000000                   000000018006f2c0     libucrt:remainder_piby2_forasm.obj
 0001:0006e610       $$000000                   000000018006f610     libucrt:remainder_piby2_forfma3.obj
 0001:0006e8a0       _sincos_special            000000018006f8a0 f   libucrt:sincos_special.obj
 0001:0006ecb0       $$000000                   000000018006fcb0     LIBCMT:_guard_dispatch_.obj
 0001:0006ecd0       ?fin$0@?0??dllmain_crt_process_attach@@YAHQEAUHINSTANCE__@@QEAX@Z@4HA 000000018006fcd0 f   LIBCMT:dll_dllmain.obj
 0001:0006ece7       ?fin$0@?0??dllmain_crt_process_detach@@YAH_N@Z@4HA 000000018006fce7 f   LIBCMT:dll_dllmain.obj
 0001:0006ed03       ?filt$0@?0??dllmain_dispatch@@YAHQEAUHINSTANCE__@@KQEAX@Z@4HA 000000018006fd03 f   LIBCMT:dll_dllmain.obj
 0001:0006ed39       __scrt_is_nonwritable_in_current_image$filt$0 000000018006fd39 f   LIBCMT:utility.obj
 0001:0006ed51       ?fin$0@?0???$?RV<lambda_aa279a7bcb127014629d5b1d62c7325d>@@AEAV<lambda_0a64b6a4deda75c01876f29c44fc5eb3>@@V<lambda_3323e69fbefe9d1a11713e670d47cdfa>@@@?$__crt_seh_guarded_call@H@@QEAAH$$QEAV<lambda_aa279a7bcb127014629d5b1d62c7325d>@@AEAV<lambda_0a64b6a4deda75c01876f29c44fc5eb3>@@$$QEAV<lambda_3323e69fbefe9d1a11713e670d47cdfa>@@@Z@4HA 000000018006fd51 f   libucrt:output.obj
 0001:0006ed6c       common_flush_all$fin$0     000000018006fd6c f   libucrt:fflush.obj
 0001:0006ed86       common_flush_all$fin$1     000000018006fd86 f   libucrt:fflush.obj
 0001:0006ed9f       ?filt$0@?0??common_exit@@YAXHW4_crt_exit_cleanup_mode@@W4_crt_exit_return_mode@@@Z@4HA 000000018006fd9f f   libucrt:exit.obj
 0001:0006edba       ?fin$1@?0??common_exit@@YAXHW4_crt_exit_cleanup_mode@@W4_crt_exit_return_mode@@@Z@4HA 000000018006fdba f   libucrt:exit.obj
 0001:0006edd3       ?fin$0@?0???$?RV<lambda_b521505b218e5242e90febf6bfebc422>@@AEAV<lambda_6978c1fb23f02e42e1d9e99668cc68aa>@@V<lambda_314360699dd331753a4119843814e9a7>@@@?$__crt_seh_guarded_call@H@@QEAAH$$QEAV<lambda_b521505b218e5242e90febf6bfebc422>@@AEAV<lambda_6978c1fb23f02e42e1d9e99668cc68aa>@@$$QEAV<lambda_314360699dd331753a4119843814e9a7>@@@Z@4HA 000000018006fdd3 f   libucrt:commit.obj
 0001:0006edd3       ?fin$0@?0???$?RV<lambda_bfedae4ebbf01fab1bb6dcc6a9e276e0>@@AEAV<lambda_2fe9b910cf3cbf4a0ab98a02ba45b3ec>@@V<lambda_237c231691f317818eb88cc1d5d642d6>@@@?$__crt_seh_guarded_call@H@@QEAAH$$QEAV<lambda_bfedae4ebbf01fab1bb6dcc6a9e276e0>@@AEAV<lambda_2fe9b910cf3cbf4a0ab98a02ba45b3ec>@@$$QEAV<lambda_237c231691f317818eb88cc1d5d642d6>@@@Z@4HA 000000018006fdd3 f   libucrt:close.obj
 0001:0006eded       _query_new_handler$fin$0   000000018006fded f   libucrt:new_handler.obj
 0001:0006ee03       ?fin$0@?0???$?RV<lambda_e24bbb7b643b32fcea6fa61b31d4c984>@@AEAV<lambda_275893d493268fdec8709772e3fcec0e>@@V<lambda_9d71df4d7cf3f480f8d633942495c3b0>@@@?$__crt_seh_guarded_call@H@@QEAAH$$QEAV<lambda_e24bbb7b643b32fcea6fa61b31d4c984>@@AEAV<lambda_275893d493268fdec8709772e3fcec0e>@@$$QEAV<lambda_9d71df4d7cf3f480f8d633942495c3b0>@@@Z@4HA 000000018006fe03 f   libucrt:onexit.obj
 0001:0006ee20       ?fin$0@?0???$common_lseek@_J@@YA_JH_JH@Z@4HA 000000018006fe20 f   libucrt:lseek.obj
 0001:0006ee20       _write$fin$0               000000018006fe20 f   libucrt:write.obj
 0001:0006ee20       ?fin$0@?0???$common_lseek@J@@YAJHJH@Z@4HA 000000018006fe20 f   libucrt:lseek.obj
 0001:0006ee20       _read$fin$0                000000018006fe20 f   libucrt:read.obj
 0001:0006ee37       raise$fin$0                000000018006fe37 f   libucrt:signal.obj
 0001:0006ee5b       ?fin$0@?0???$?RV<lambda_c36588078e9f5dfd39652860aa6b3aaf>@@AEAV<lambda_ec61778202f4f5fc7e7711acc23c3bca>@@V<lambda_dc9d2797ccde5d239b4a0efae8ebd7db>@@@?$__crt_seh_guarded_call@P6AXH@Z@@QEAAP6AXH@Z$$QEAV<lambda_c36588078e9f5dfd39652860aa6b3aaf>@@AEAV<lambda_ec61778202f4f5fc7e7711acc23c3bca>@@$$QEAV<lambda_dc9d2797ccde5d239b4a0efae8ebd7db>@@@Z@4HA 000000018006fe5b f   libucrt:signal.obj
 0001:0006ee5b       ?fin$0@?0???$?RV<lambda_72d1df2b273a38828b1ce30cbf4cdab5>@@AEAV<lambda_876a65b173b8412d3a47c70a915b0cf4>@@V<lambda_41932305e351933ebe8f8be3ed8bb5dc>@@@?$__crt_seh_guarded_call@X@@QEAAX$$QEAV<lambda_72d1df2b273a38828b1ce30cbf4cdab5>@@AEAV<lambda_876a65b173b8412d3a47c70a915b0cf4>@@$$QEAV<lambda_41932305e351933ebe8f8be3ed8bb5dc>@@@Z@4HA 000000018006fe5b f   libucrt:per_thread_data.obj
 0001:0006ee5b       ?fin$0@?0???$?RV<lambda_5e887d1dcbef67a5eb4283622ba103bf>@@AEAV<lambda_4466841279450cc726390878d4a41900>@@V<lambda_341c25c0346d94847f1f3c463c57e077>@@@?$__crt_seh_guarded_call@X@@QEAAX$$QEAV<lambda_5e887d1dcbef67a5eb4283622ba103bf>@@AEAV<lambda_4466841279450cc726390878d4a41900>@@$$QEAV<lambda_341c25c0346d94847f1f3c463c57e077>@@@Z@4HA 000000018006fe5b f   libucrt:per_thread_data.obj
 0001:0006ee5b       ?fin$0@?0???$?RV<lambda_46352004c1216016012b18bd6f87e700>@@AEAV<lambda_3bd07e1a1191394380780325891bf33f>@@V<lambda_334532d3f185bcaa59b5be82d7d22bff>@@@?$__crt_seh_guarded_call@X@@QEAAX$$QEAV<lambda_46352004c1216016012b18bd6f87e700>@@AEAV<lambda_3bd07e1a1191394380780325891bf33f>@@$$QEAV<lambda_334532d3f185bcaa59b5be82d7d22bff>@@@Z@4HA 000000018006fe5b f   libucrt:per_thread_data.obj
 0001:0006ee5b       ?fin$0@?0???$?RV<lambda_99476a1ad63dd22509b5d3e65b0ffc95>@@AEAV<lambda_ad1ced32f4ac17aa236e5ef05d6b3b7c>@@V<lambda_f7424dd8d45958661754dc4f2697e9c3>@@@?$__crt_seh_guarded_call@X@@QEAAX$$QEAV<lambda_99476a1ad63dd22509b5d3e65b0ffc95>@@AEAV<lambda_ad1ced32f4ac17aa236e5ef05d6b3b7c>@@$$QEAV<lambda_f7424dd8d45958661754dc4f2697e9c3>@@@Z@4HA 000000018006fe5b f   libucrt:mbctype.obj
 0001:0006ee5b       ?fin$0@?0???$?RV<lambda_b8c45f8f788dd370798f47cfe8ac3a86>@@AEAV<lambda_4e60a939b0d047cfe11ddc22648dfba9>@@V<lambda_332c3edc96d0294ec56c57d38c1cdfd5>@@@?$__crt_seh_guarded_call@H@@QEAAH$$QEAV<lambda_b8c45f8f788dd370798f47cfe8ac3a86>@@AEAV<lambda_4e60a939b0d047cfe11ddc22648dfba9>@@$$QEAV<lambda_332c3edc96d0294ec56c57d38c1cdfd5>@@@Z@4HA 000000018006fe5b f   libucrt:onexit.obj
 0001:0006ee5b       ?fin$0@?0???$?RV<lambda_fb3a7dec4e47f37f22dae91bb15c9095>@@AEAV<lambda_698284760c8add0bfb0756c19673e34b>@@V<lambda_dfb8eca1e75fef3034a8fb18dd509707>@@@?$__crt_seh_guarded_call@X@@QEAAX$$QEAV<lambda_fb3a7dec4e47f37f22dae91bb15c9095>@@AEAV<lambda_698284760c8add0bfb0756c19673e34b>@@$$QEAV<lambda_dfb8eca1e75fef3034a8fb18dd509707>@@@Z@4HA 000000018006fe5b f   libucrt:per_thread_data.obj
 0001:0006ee75       __acrt_initialize_lowio$fin$0 000000018006fe75 f   libucrt:ioinit.obj
 0001:0006ee75       __acrt_lowio_ensure_fh_exists$fin$0 000000018006fe75 f   libucrt:osfinfo.obj
 0001:0006ee8e       _fcloseall$fin$0           000000018006fe8e f   libucrt:closeall.obj
 0001:0006eea7       __acrt_update_thread_multibyte_data$fin$0 000000018006fea7 f   libucrt:mbctype.obj
 0001:0006eec0       __acrt_uninitialize_locale$fin$0 000000018006fec0 f   libucrt:wsetlocale.obj
 0001:0006eec0       __acrt_update_thread_locale_data$fin$0 000000018006fec0 f   libucrt:locale_refcounting.obj
 0001:0006eed9       fflush$fin$0               000000018006fed9 f   libucrt:fflush.obj
 0001:0006eed9       fclose$fin$0               000000018006fed9 f   libucrt:fclose.obj
 0001:0006eef1       common_control87$filt$0    000000018006fef1 f   libucrt:ieee.obj
 0001:0006eef1       _ctrlfp$filt$0             000000018006fef1 f   libucrt:fpctrl.obj
 0001:0006ef20       _IsNonwritableInCurrentImage$filt$0 000000018006ff20 f   LIBCMT:pesect.obj
 0002:000002f8       GS_ExceptionPointers       00000001800702f8     LIBCMT:gs_report.obj
 0002:000003d0       ?ExceptionTemplate@?1??_CxxThrowException@@9@4UEHExceptionRecord@@B 00000001800703d0     libvcruntime:throw.obj
 0002:00000410       ?module_names@?A0x61ce2399@@3QBQEB_WB 0000000180070410     libvcruntime:winapi_downlevel.obj
 0002:000004dc       ?candidate_modules@?1??try_get_EventRegister@@YAP6AKPEBU_GUID@@P6AX0KE_K1PEAU_EVENT_FILTER_DESCRIPTOR@@PEAX@Z3PEA_K@ZXZ@4QBW4module_id@?A0x61ce2399@@B 00000001800704dc     libvcruntime:winapi_downlevel.obj
 0002:000004f0       ?candidate_modules@?1??try_get_EventSetInformation@@YAP6AK_KW4_EVENT_INFO_CLASS@@PEAXK@ZXZ@4QBW4module_id@?A0x61ce2399@@B 00000001800704f0     libvcruntime:winapi_downlevel.obj
 0002:0000050c       ?candidate_modules@?1??try_get_EventUnregister@@YAP6AK_K@ZXZ@4QBW4module_id@?A0x61ce2399@@B 000000018007050c     libvcruntime:winapi_downlevel.obj
 0002:00000520       ?candidate_modules@?1??try_get_EventWriteTransfer@@YAP6AK_KPEBU_EVENT_DESCRIPTOR@@PEBU_GUID@@2KPEAU_EVENT_DATA_DESCRIPTOR@@@ZXZ@4QBW4module_id@?A0x61ce2399@@B 0000000180070520     libvcruntime:winapi_downlevel.obj
 0002:00000540       ?candidate_modules@?1??try_get_FlsAlloc@@YAP6AKP6AXPEAX@Z@ZXZ@4QBW4module_id@?A0x61ce2399@@B 0000000180070540     libvcruntime:winapi_downlevel.obj
 0002:00000558       ?candidate_modules@?1??try_get_FlsFree@@YAP6AHK@ZXZ@4QBW4module_id@?A0x61ce2399@@B 0000000180070558     libvcruntime:winapi_downlevel.obj
 0002:00000568       ?candidate_modules@?1??try_get_FlsGetValue@@YAP6APEAXK@ZXZ@4QBW4module_id@?A0x61ce2399@@B 0000000180070568     libvcruntime:winapi_downlevel.obj
 0002:00000580       ?candidate_modules@?1??try_get_FlsSetValue@@YAP6AHKPEAX@ZXZ@4QBW4module_id@?A0x61ce2399@@B 0000000180070580     libvcruntime:winapi_downlevel.obj
 0002:00000598       ?candidate_modules@?1??try_get_InitializeCriticalSectionEx@@YAP6AHPEAU_RTL_CRITICAL_SECTION@@KK@ZXZ@4QBW4module_id@?A0x61ce2399@@B 0000000180070598     libvcruntime:winapi_downlevel.obj
 0002:00000a80       ?rttiTable@@3QBQEBDB       0000000180070a80     libvcruntime:undname.obj
 0002:00000ab0       ?tokenTable@@3QBQEBDB      0000000180070ab0     libvcruntime:undname.obj
 0002:00000b20       ?nameTable@@3QBQEBDB       0000000180070b20     libvcruntime:undname.obj
 0002:00001b50       errtable                   0000000180071b50     libucrt:errno.obj
 0002:00001e50       __acrt_initializers        0000000180071e50     libucrt:initialization.obj
 0002:00002c20       module_names               0000000180072c20     libucrt:winapi_thunks.obj
 0002:00003150       ?candidate_modules@?1??try_get_FlsAlloc@@YAP6AKP6AXPEAX@Z@ZXZ@4QBW4module_id@?A0x63058377@@B 0000000180073150     libucrt:winapi_thunks.obj
 0002:00003158       ?candidate_modules@?1??try_get_FlsFree@@YAP6AHK@ZXZ@4QBW4module_id@?A0x63058377@@B 0000000180073158     libucrt:winapi_thunks.obj
 0002:00003160       ?candidate_modules@?1??try_get_FlsGetValue@@YAP6APEAXK@ZXZ@4QBW4module_id@?A0x63058377@@B 0000000180073160     libucrt:winapi_thunks.obj
 0002:00003168       ?candidate_modules@?1??try_get_FlsSetValue@@YAP6AHKPEAX@ZXZ@4QBW4module_id@?A0x63058377@@B 0000000180073168     libucrt:winapi_thunks.obj
 0002:00003170       ?candidate_modules@?1??try_get_GetCurrentPackageId@@YAP6AJPEAIPEAE@ZXZ@4QBW4module_id@?A0x63058377@@B 0000000180073170     libucrt:winapi_thunks.obj
 0002:00003190       ?candidate_modules@?1??try_get_InitializeCriticalSectionEx@@YAP6AHPEAU_RTL_CRITICAL_SECTION@@KK@ZXZ@4QBW4module_id@?A0x63058377@@B 0000000180073190     libucrt:winapi_thunks.obj
 0002:00003198       ?candidate_modules@?1??try_get_LCMapStringEx@@YAP6AHPEB_WK0HPEA_WHPEAU_nlsversioninfo@@PEAX_J@ZXZ@4QBW4module_id@?A0x63058377@@B 0000000180073198     libucrt:winapi_thunks.obj
 0002:000031b0       ?candidate_modules@?1??try_get_LocaleNameToLCID@@YAP6AKPEB_WK@ZXZ@4QBW4module_id@?A0x63058377@@B 00000001800731b0     libucrt:winapi_thunks.obj
 0002:000031d0       _mb_locale_names           00000001800731d0     libucrt:mbctype.obj
 0002:00003260       LcidToLocaleNameTable      0000000180073260     libucrt:lcidtoname_downlevel.obj
 0002:00004cb0       LocaleNameToIndexTable     0000000180074cb0     libucrt:lcidtoname_downlevel.obj
 0002:00006550       __real_ninf                0000000180076550     libucrt:log10.obj
 0002:00006560       __real_inf                 0000000180076560     libucrt:log10.obj
 0002:00006570       __real_neg_qnan            0000000180076570     libucrt:log10.obj
 0002:00006580       __real_qnanbit             0000000180076580     libucrt:log10.obj
 0002:00006590       __int_1023                 0000000180076590     libucrt:log10.obj
 0002:000065a0       __mask_001                 00000001800765a0     libucrt:log10.obj
 0002:000065b0       __mask_mant                00000001800765b0     libucrt:log10.obj
 0002:000065c0       __mask_mant_top8           00000001800765c0     libucrt:log10.obj
 0002:000065d0       __mask_mant9               00000001800765d0     libucrt:log10.obj
 0002:000065e0       __real_log10_e             00000001800765e0     libucrt:log10.obj
 0002:000065f0       __real_log10_e_lead        00000001800765f0     libucrt:log10.obj
 0002:00006600       __real_log10_e_tail        0000000180076600     libucrt:log10.obj
 0002:00006610       __real_log10_2_lead        0000000180076610     libucrt:log10.obj
 0002:00006620       __real_log10_2_tail        0000000180076620     libucrt:log10.obj
 0002:00006630       __real_two                 0000000180076630     libucrt:log10.obj
 0002:00006640       __real_one                 0000000180076640     libucrt:log10.obj
 0002:00006650       __real_half                0000000180076650     libucrt:log10.obj
 0002:00006660       __mask_100                 0000000180076660     libucrt:log10.obj
 0002:00006670       __real_1_over_512          0000000180076670     libucrt:log10.obj
 0002:00006680       __real_1_over_2            0000000180076680     libucrt:log10.obj
 0002:00006690       __real_1_over_3            0000000180076690     libucrt:log10.obj
 0002:000066a0       __real_1_over_4            00000001800766a0     libucrt:log10.obj
 0002:000066b0       __real_1_over_5            00000001800766b0     libucrt:log10.obj
 0002:000066c0       __real_1_over_6            00000001800766c0     libucrt:log10.obj
 0002:000066d0       __real_neg_1023            00000001800766d0     libucrt:log10.obj
 0002:000066e0       __mask_2045                00000001800766e0     libucrt:log10.obj
 0002:000066f0       __real_threshold           00000001800766f0     libucrt:log10.obj
 0002:00006700       __real_near_one_lt         0000000180076700     libucrt:log10.obj
 0002:00006710       __real_near_one_gt         0000000180076710     libucrt:log10.obj
 0002:00006720       __real_min_norm            0000000180076720     libucrt:log10.obj
 0002:00006730       __real_notsign             0000000180076730     libucrt:log10.obj
 0002:00006740       __real_ca1                 0000000180076740     libucrt:log10.obj
 0002:00006750       __real_ca2                 0000000180076750     libucrt:log10.obj
 0002:00006760       __real_ca3                 0000000180076760     libucrt:log10.obj
 0002:00006770       __real_ca4                 0000000180076770     libucrt:log10.obj
 0002:00006780       __mask_lower               0000000180076780     libucrt:log10.obj
 0002:00006790       __flag_x_zero              0000000180076790     libucrt:log10.obj
 0002:00006794       __flag_x_neg               0000000180076794     libucrt:log10.obj
 0002:00006798       __flag_x_nan               0000000180076798     libucrt:log10.obj
 0002:000067b0       __real@433fffffffffffff    00000001800767b0     libucrt:fpsr.obj
 0002:000067b8       __real@c33fffffffffffff    00000001800767b8     libucrt:fpsr.obj
 0002:0000a350       ?mime_png@?7??lame_get_id3v2_tag@@9@9 000000018007a350     libmp3lame:id3tag.obj
 0002:0000a358       ?mime_gif@?7??lame_get_id3v2_tag@@9@9 000000018007a358     libmp3lame:id3tag.obj
 0002:0000a360       genre_names                000000018007a360     libmp3lame:id3tag.obj
 0002:0000a800       ?mime_jpeg@?7??lame_get_id3v2_tag@@9@9 000000018007a800     libmp3lame:id3tag.obj
 0002:0000a808       t8l                        000000018007a808     libmp3lame:tables.obj
 0002:0000a8f0       t15HB                      000000018007a8f0     libmp3lame:tables.obj
 0002:0000ab00       t9HB                       000000018007ab00     libmp3lame:tables.obj
 0002:0000ab48       t1HB                       000000018007ab48     libmp3lame:tables.obj
 0002:0000ab50       t16HB                      000000018007ab50     libmp3lame:tables.obj
 0002:0000b0b0       t11l                       000000018007b0b0     libmp3lame:tables.obj
 0002:0000b0f0       t16l                       000000018007b0f0     libmp3lame:tables.obj
 0002:0000b1f0       t5HB                       000000018007b1f0     libmp3lame:tables.obj
 0002:0000b210       t24HB                      000000018007b210     libmp3lame:tables.obj
 0002:0000b410       t6HB                       000000018007b410     libmp3lame:tables.obj
 0002:0000b430       t6l                        000000018007b430     libmp3lame:tables.obj
 0002:0000b440       t12HB                      000000018007b440     libmp3lame:tables.obj
 0002:0000b4c0       t13HB                      000000018007b4c0     libmp3lame:tables.obj
 0002:0000b6c0       t15l                       000000018007b6c0     libmp3lame:tables.obj
 0002:0000b7c0       t3HB                       000000018007b7c0     libmp3lame:tables.obj
 0002:0000b7d8       t9l                        000000018007b7d8     libmp3lame:tables.obj
 0002:0000b800       t11HB                      000000018007b800     libmp3lame:tables.obj
 0002:0000b880       t16_5l                     000000018007b880     libmp3lame:tables.obj
 0002:0000b9c0       t5l                        000000018007b9c0     libmp3lame:tables.obj
 0002:0000b9d0       t32HB                      000000018007b9d0     libmp3lame:tables.obj
 0002:0000b9f0       t13l                       000000018007b9f0     libmp3lame:tables.obj
 0002:0000baf0       t24l                       000000018007baf0     libmp3lame:tables.obj
 0002:0000bbf0       t3l                        000000018007bbf0     libmp3lame:tables.obj
 0002:0000bc00       t8HB                       000000018007bc00     libmp3lame:tables.obj
 0002:0000bc48       t2HB                       000000018007bc48     libmp3lame:tables.obj
 0002:0000bc60       t12l                       000000018007bc60     libmp3lame:tables.obj
 0002:0000bca0       t2l                        000000018007bca0     libmp3lame:tables.obj
 0002:0000bcac       MAGIC_INT                  000000018007bcac     libmp3lame:vbrquantize.obj
 0002:0000bcb0       t7l                        000000018007bcb0     libmp3lame:tables.obj
 0002:0000bcd4       VBRTag0                    000000018007bcd4     libmp3lame:VbrTag.obj
 0002:0000bce0       t7HB                       000000018007bce0     libmp3lame:tables.obj
 0002:0000bd28       ?str@?1??get_lame_version@@9@9 000000018007bd28     libmp3lame:version.obj
 0002:0000bd54       VBRTag1                    000000018007bd54     libmp3lame:VbrTag.obj
 0002:0000c160       t10HB                      000000018007c160     libmp3lame:tables.obj
 0002:0000c1f4       tab0                       000000018007c1f4     libmpg123:layer3.obj
 0002:0000c1f8       t33HB                      000000018007c1f8     libmp3lame:tables.obj
 0002:0000c218       ?str@?1??get_lame_short_version@@9@9 000000018007c218     libmp3lame:version.obj
 0002:0000c230       t10l                       000000018007c230     libmp3lame:tables.obj
 0002:0000c270       ?str@?1??get_lame_url@@9@9 000000018007c270     libmp3lame:version.obj
 0002:0000c278       ?strXX@?1??get_lame_os_bitness@@9@9 000000018007c278     libmp3lame:version.obj
 0002:0000c280       ?str32@?1??get_lame_os_bitness@@9@9 000000018007c280     libmp3lame:version.obj
 0002:0000c288       ?str64@?1??get_lame_os_bitness@@9@9 000000018007c288     libmp3lame:version.obj
 0002:0000c290       vbr_old_switch_map         000000018007c290     libmp3lame:presets.obj
 0002:0000c580       vbr_mt_psy_switch_map      000000018007c580     libmp3lame:presets.obj
 0002:0000c86c       ?step@?1??INT123_synth_4to1_s32_i386@@9@9 000000018007c86c     libmpg123:synth_s32.obj
 0002:0000c870       ?sk@?DG@??psymodel_init@@9@9 000000018007c870     libmp3lame:psymodel.obj
 0002:0000c8a0       tab                        000000018007c8a0     libmp3lame:psymodel.obj
 0002:0000c8c4       ?step@?1??INT123_synth_4to1_s32@@9@9 000000018007c8c4     libmpg123:synth_s32.obj
 0002:0000c8c8       tab_mask_add_delta         000000018007c8c8     libmp3lame:psymodel.obj
 0002:0000c8f0       ?fircoef@?3??vbrpsy_attack_detection@@9@9 000000018007c8f0     libmp3lame:psymodel.obj
 0002:0000c918       ?table2@?1??vbrpsy_mask_add@@9@9 000000018007c918     libmp3lame:psymodel.obj
 0002:0000c940       ?regcoef_l@?1??pecalc_l@@9@9 000000018007c940     libmp3lame:psymodel.obj
 0002:0000c994       ?step@?1??INT123_synth_1to1_s32@@9@9 000000018007c994     libmpg123:synth_s32.obj
 0002:0000c998       max_range_long_lsf_pretab  000000018007c998     libmp3lame:vbrquantize.obj
 0002:0000c9b0       ?regcoef_s@?1??pecalc_s@@9@9 000000018007c9b0     libmp3lame:psymodel.obj
 0002:0000d10c       ?step@?1??INT123_synth_2to1_s32_i386@@9@9 000000018007d10c     libmpg123:synth_s32.obj
 0002:0000d110       payload_long               000000018007d110     libmp3lame:quantize_pvt.obj
 0002:0000d130       payload_short              000000018007d130     libmp3lame:quantize_pvt.obj
 0002:0000d2c8       MAGIC_FLOAT                000000018007d2c8     libmp3lame:vbrquantize.obj
 0002:0000d2d0       crc16_lookup               000000018007d2d0     libmp3lame:VbrTag.obj
 0002:0000d6d0       ABYule                     000000018007d6d0     libmp3lame:gain_analysis.obj
 0002:0000d9c4       ?step@?1??INT123_synth_2to1_s32@@9@9 000000018007d9c4     libmpg123:synth_s32.obj
 0002:0000d9c8       frame_type                 000000018007d9c8     libmpg123:id3.obj
 0002:0000d9e0       ABButter                   000000018007d9e0     libmp3lame:gain_analysis.obj
 0002:0000da94       ?step@?1??INT123_synth_1to1_s32_i386@@9@9 000000018007da94     libmpg123:synth_s32.obj
 0002:0000da98       enc_8bit_range             000000018007da98     libmpg123:format.obj
 0002:0000daa0       ?fircoef@?BN@??lame_encode_mp3_frame@@9@9 000000018007daa0     libmp3lame:encoder.obj
 0002:0000dac4       ?step@?1??INT123_synth_ntom_s32@@9@9 000000018007dac4     libmpg123:synth_s32.obj
 0002:0000dac8       enc_float_range            000000018007dac8     libmpg123:format.obj
 0002:0000db50       scale_mixed                000000018007db50     libmp3lame:takehiro.obj
 0002:0000db90       subdv_table                000000018007db90     libmp3lame:takehiro.obj
 0002:0000dc48       huf_tbl_noESC              000000018007dc48     libmp3lame:takehiro.obj
 0002:0000dc84       ?step@?1??INT123_synth_4to1_i386@@9@9 000000018007dc84     libmpg123:synth.obj
 0002:0000dc88       tab2                       000000018007dc88     libmpg123:layer3.obj
 0002:0000dcb0       slen1_n                    000000018007dcb0     libmp3lame:takehiro.obj
 0002:0000dcf0       slen2_n                    000000018007dcf0     libmp3lame:takehiro.obj
 0002:0000dd30       count_fncs                 000000018007dd30     libmp3lame:takehiro.obj
 0002:0000ddb0       scale_short                000000018007ddb0     libmp3lame:takehiro.obj
 0002:0000ddf0       ?log2tab@?P@??mpeg2_scale_bitcount@@9@9 000000018007ddf0     libmp3lame:takehiro.obj
 0002:0000de30       max_range_sfac_tab         000000018007de30     libmp3lame:takehiro.obj
 0002:0000de90       scale_long                 000000018007de90     libmp3lame:takehiro.obj
 0002:0000ded0       costab                     000000018007ded0     libmp3lame:fft.obj
 0002:0000def0       rv_tbl                     000000018007def0     libmp3lame:fft.obj
 0002:0000df70       max_range_short            000000018007df70     libmp3lame:vbrquantize.obj
 0002:0000df98       encoding_widths            000000018007df98     libmpg123:id3.obj
 0002:0000dfa8       tab3                       000000018007dfa8     libmpg123:layer3.obj
 0002:0000dfd0       max_range_long             000000018007dfd0     libmp3lame:vbrquantize.obj
 0002:0000dfe8       text_converters            000000018007dfe8     libmpg123:id3.obj
 0002:0000e008       freqs                      000000018007e008     libmpg123:parse.obj
 0002:0000e030       enwindow                   000000018007e030     libmp3lame:newmdct.obj
 0002:0000e4a4       ?step@?1??INT123_synth_2to1_i386@@9@9 000000018007e4a4     libmpg123:synth.obj
 0002:0000e4a8       ?step@?1??INT123_synth_4to1@@9@9 000000018007e4a8     libmpg123:synth.obj
 0002:0000e4b0       win                        000000018007e4b0     libmp3lame:newmdct.obj
 0002:0000e6f0       order                      000000018007e6f0     libmp3lame:newmdct.obj
 0002:0000e770       decname                    000000018007e770     libmpg123:optimize.obj
 0002:0000e870       synth_base                 000000018007e870     libmpg123:optimize.obj
 0002:0000ea70       good_encodings             000000018007ea70     libmpg123:format.obj
 0002:0000eaa0       my_rates                   000000018007eaa0     libmpg123:format.obj
 0002:0000eac4       ?step@?1??INT123_synth_1to1_i386@@9@9 000000018007eac4     libmpg123:synth.obj
 0002:0000eac8       ?step@?1??INT123_synth_ntom@@9@9 000000018007eac8     libmpg123:synth.obj
 0002:0000ead0       my_encodings               000000018007ead0     libmpg123:format.obj
 0002:0000eb00       alloc_1                    000000018007eb00     libmpg123:layer2.obj
 0002:0000efb0       mulmul                     000000018007efb0     libmpg123:layer2.obj
 0002:0000f088       ?step@?1??INT123_synth_1to1@@9@9 000000018007f088     libmpg123:synth.obj
 0002:0000f090       alloc_0                    000000018007f090     libmpg123:layer2.obj
 0002:0000f510       alloc_2                    000000018007f510     libmpg123:layer2.obj
 0002:0000f650       alloc_4                    000000018007f650     libmpg123:layer2.obj
 0002:0000f960       alloc_3                    000000018007f960     libmpg123:layer2.obj
 0002:0000fb20       tab15                      000000018007fb20     libmpg123:layer3.obj
 0002:0000ff20       tab_c1                     000000018007ff20     libmpg123:layer3.obj
 0002:0000ff60       tab9                       000000018007ff60     libmpg123:layer3.obj
 0002:0000fff0       tab8                       000000018007fff0     libmpg123:layer3.obj
 0002:00010080       tab10                      0000000180080080     libmpg123:layer3.obj
 0002:00010180       ht                         0000000180080180     libmpg123:layer3.obj
 0002:00010380       tab11                      0000000180080380     libmpg123:layer3.obj
 0002:00010480       tab5                       0000000180080480     libmpg123:layer3.obj
 0002:000104c0       tab16                      00000001800804c0     libmpg123:layer3.obj
 0002:000108c0       bandInfo                   00000001800808c0     libmpg123:layer3.obj
 0002:00010ca0       tab6                       0000000180080ca0     libmpg123:layer3.obj
 0002:00010ce0       tab12                      0000000180080ce0     libmpg123:layer3.obj
 0002:00010de0       tab24                      0000000180080de0     libmpg123:layer3.obj
 0002:000111e0       tab7                       00000001800811e0     libmpg123:layer3.obj
 0002:00011270       htc                        0000000180081270     libmpg123:layer3.obj
 0002:00011290       tab_c0                     0000000180081290     libmpg123:layer3.obj
 0002:000112d0       tab13                      00000001800812d0     libmpg123:layer3.obj
 0002:000116d0       tab1                       00000001800816d0     libmpg123:layer3.obj
 0002:000116e0       tabsel_123                 00000001800816e0     libmpg123:parse.obj
 0002:00011860       intwinbase                 0000000180081860     libmpg123:tabinit.obj
 0002:00011c64       ?step@?1??INT123_synth_2to1@@9@9 0000000180081c64     libmpg123:synth.obj
 0002:00011c68       ?step@?1??INT123_synth_2to1_real_i386@@9@9 0000000180081c68     libmpg123:synth_real.obj
 0002:00011c98       ?step@?1??INT123_synth_4to1_real_i386@@9@9 0000000180081c98     libmpg123:synth_real.obj
 0002:00011c9c       ?step@?1??INT123_synth_ntom_real@@9@9 0000000180081c9c     libmpg123:synth_real.obj
 0002:00011ca0       ?step@?1??INT123_synth_2to1_real@@9@9 0000000180081ca0     libmpg123:synth_real.obj
 0002:00011ca4       ?step@?1??INT123_synth_4to1_real@@9@9 0000000180081ca4     libmpg123:synth_real.obj
 0002:00011ca8       ?step@?1??INT123_synth_1to1_real@@9@9 0000000180081ca8     libmpg123:synth_real.obj
 0002:00011cac       ?step@?1??INT123_synth_1to1_real_i386@@9@9 0000000180081cac     libmpg123:synth_real.obj
 0002:00011cb0       ?step@?1??INT123_synth_1to1_8bit_i386@@9@9 0000000180081cb0     libmpg123:synth_8bit.obj
 0002:00011cb4       ?step@?1??INT123_synth_4to1_8bit_i386@@9@9 0000000180081cb4     libmpg123:synth_8bit.obj
 0002:00011cb8       ?step@?1??INT123_synth_2to1_8bit_i386@@9@9 0000000180081cb8     libmpg123:synth_8bit.obj
 0002:00011cbc       ?step@?1??INT123_synth_2to1_8bit@@9@9 0000000180081cbc     libmpg123:synth_8bit.obj
 0002:00011cc0       ?step@?1??INT123_synth_1to1_8bit@@9@9 0000000180081cc0     libmpg123:synth_8bit.obj
 0002:00011cc4       ?step@?1??INT123_synth_ntom_8bit@@9@9 0000000180081cc4     libmpg123:synth_8bit.obj
 0002:00011cc8       ?step@?1??INT123_synth_4to1_8bit@@9@9 0000000180081cc8     libmpg123:synth_8bit.obj
 0002:00011cd0       costab                     0000000180081cd0     liblamevectorroutines:xmm_quantize_sub.obj
 0002:000159e0       s_Data                     00000001800859e0     LIBCMT:_svml_dpow2_sse2_.obj
 0002:0001c470       _2il0floatpacket_14        000000018008c470     LIBCMT:_svml_dpow2_sse2_.obj
 0002:0001c478       _2il0floatpacket_15        000000018008c478     LIBCMT:_svml_dpow2_sse2_.obj
 0002:0001c480       _2il0floatpacket_16        000000018008c480     LIBCMT:_svml_dpow2_sse2_.obj
 0002:0001c520       L_real_piby2_1             000000018008c520     libucrt:cos.obj
 0002:0001c530       L_real_piby2_1tail         000000018008c530     libucrt:cos.obj
 0002:0001c540       L_real_piby2_2             000000018008c540     libucrt:cos.obj
 0002:0001c550       L_real_piby2_2tail         000000018008c550     libucrt:cos.obj
 0002:0001c560       L_one                      000000018008c560     libucrt:cos.obj
 0002:0001c570       L_signbit                  000000018008c570     libucrt:cos.obj
 0002:0001c580       L_int_one                  000000018008c580     libucrt:cos.obj
 0002:0001c590       L_int_two                  000000018008c590     libucrt:cos.obj
 0002:0001c5a0       L_2_by_pi                  000000018008c5a0     libucrt:cos.obj
 0002:0001c5a8       L_one_half                 000000018008c5a8     libucrt:cos.obj
 0002:0001c5b0       L_neg_one_half             000000018008c5b0     libucrt:cos.obj
 0002:0001c5b8       L_two_to_neg_27            000000018008c5b8     libucrt:cos.obj
 0002:0001c5c0       L_two_to_neg_13            000000018008c5c0     libucrt:cos.obj
 0002:0001c5c8       L_piby4                    000000018008c5c8     libucrt:cos.obj
 0002:0001c5d0       L_small_arg_cw             000000018008c5d0     libucrt:cos.obj
 0002:0001c5d8       L_small_arg_bdl            000000018008c5d8     libucrt:cos.obj
 0002:0001c5e0       L_sign_mask                000000018008c5e0     libucrt:cos.obj
 0002:0001c5e8       L__inf_mask_64             000000018008c5e8     libucrt:cos.obj
 0002:0001c5f0       L_2_to_32                  000000018008c5f0     libucrt:cos.obj
 0002:0001c600       __flag_x_nan               000000018008c600     libucrt:exp.obj
 0002:0001c604       __flag_y_zero              000000018008c604     libucrt:exp.obj
 0002:0001c608       __flag_y_inf               000000018008c608     libucrt:exp.obj
 0002:0001c610       L__real_1_by_720           000000018008c610     libucrt:exp.obj
 0002:0001c620       L__real_1_by_120           000000018008c620     libucrt:exp.obj
 0002:0001c630       L__real_1_by_6             000000018008c630     libucrt:exp.obj
 0002:0001c640       L__real_1_by_2             000000018008c640     libucrt:exp.obj
 0002:0001c650       L__real_1_by_24            000000018008c650     libucrt:exp.obj
 0002:0001c660       L__log2_by_64_mtail_mhead  000000018008c660     libucrt:exp.obj
 0002:0001c670       L__ln_of_smallest_normal   000000018008c670     libucrt:exp.obj
 0002:0001c678       L__zero                    000000018008c678     libucrt:exp.obj
 0002:0001c680       L__max_exp_arg             000000018008c680     libucrt:exp.obj
 0002:0001c688       L__denormal_tiny_threshold 000000018008c688     libucrt:exp.obj
 0002:0001c690       L__min_exp_arg             000000018008c690     libucrt:exp.obj
 0002:0001c698       L__real_64_by_log2         000000018008c698     libucrt:exp.obj
 0002:0001c6a0       L__positive_infinity       000000018008c6a0     libucrt:exp.obj
 0002:0001c6a8       L__negative_infinity       000000018008c6a8     libucrt:exp.obj
 0002:0001c6b0       L__real_qnanbit            000000018008c6b0     libucrt:exp.obj
 0002:0001c6b8       L__real_x_near0_threshold  000000018008c6b8     libucrt:exp.obj
 0002:0001c6c0       L__log2_by_64_mhead        000000018008c6c0     libucrt:exp.obj
 0002:0001c6c8       L__log2_by_64_mtail        000000018008c6c8     libucrt:exp.obj
 0002:0001c6d0       L__real_smallest_denormal  000000018008c6d0     libucrt:exp.obj
 0002:0001c6d8       L__real_one                000000018008c6d8     libucrt:exp.obj
 0002:0001c6e0       L__2_to_neg_26             000000018008c6e0     libucrt:exp.obj
 0002:0001c6e8       L__2_to_32                 000000018008c6e8     libucrt:exp.obj
 0002:0001c6f0       L__min_normal              000000018008c6f0     libucrt:exp.obj
 0002:0001c6f8       L__2_to_neg_63             000000018008c6f8     libucrt:exp.obj
 0002:0001c700       __real_ninf                000000018008c700     libucrt:log.obj
 0002:0001c710       __real_inf                 000000018008c710     libucrt:log.obj
 0002:0001c720       __real_neg_qnan            000000018008c720     libucrt:log.obj
 0002:0001c730       __real_qnanbit             000000018008c730     libucrt:log.obj
 0002:0001c740       __real_min_norm            000000018008c740     libucrt:log.obj
 0002:0001c750       __real_mant                000000018008c750     libucrt:log.obj
 0002:0001c760       __mask_1023                000000018008c760     libucrt:log.obj
 0002:0001c770       __mask_001                 000000018008c770     libucrt:log.obj
 0002:0001c780       __mask_mant_all8           000000018008c780     libucrt:log.obj
 0002:0001c790       __mask_mant9               000000018008c790     libucrt:log.obj
 0002:0001c7a0       __real_two                 000000018008c7a0     libucrt:log.obj
 0002:0001c7b0       __real_one                 000000018008c7b0     libucrt:log.obj
 0002:0001c7c0       __real_near_one_lt         000000018008c7c0     libucrt:log.obj
 0002:0001c7d0       __real_near_one_gt         000000018008c7d0     libucrt:log.obj
 0002:0001c7e0       __real_half                000000018008c7e0     libucrt:log.obj
 0002:0001c7f0       __mask_100                 000000018008c7f0     libucrt:log.obj
 0002:0001c800       __real_1_over_512          000000018008c800     libucrt:log.obj
 0002:0001c810       __real_1_over_2            000000018008c810     libucrt:log.obj
 0002:0001c820       __real_1_over_3            000000018008c820     libucrt:log.obj
 0002:0001c830       __real_1_over_4            000000018008c830     libucrt:log.obj
 0002:0001c840       __real_1_over_5            000000018008c840     libucrt:log.obj
 0002:0001c850       __real_1_over_6            000000018008c850     libucrt:log.obj
 0002:0001c860       __mask_1023_f              000000018008c860     libucrt:log.obj
 0002:0001c870       __mask_2045                000000018008c870     libucrt:log.obj
 0002:0001c880       __real_threshold           000000018008c880     libucrt:log.obj
 0002:0001c890       __real_notsign             000000018008c890     libucrt:log.obj
 0002:0001c8a0       __real_ca1                 000000018008c8a0     libucrt:log.obj
 0002:0001c8b0       __real_ca2                 000000018008c8b0     libucrt:log.obj
 0002:0001c8c0       __real_ca3                 000000018008c8c0     libucrt:log.obj
 0002:0001c8d0       __real_ca4                 000000018008c8d0     libucrt:log.obj
 0002:0001c8e0       __real_log2_lead           000000018008c8e0     libucrt:log.obj
 0002:0001c8f0       __real_log2_tail           000000018008c8f0     libucrt:log.obj
 0002:0001c900       __flag_x_zero              000000018008c900     libucrt:log.obj
 0002:0001c904       __flag_x_neg               000000018008c904     libucrt:log.obj
 0002:0001c908       __flag_x_nan               000000018008c908     libucrt:log.obj
 0002:0001c910       __real_one                 000000018008c910     libucrt:log10f.obj
 0002:0001c920       __real_two                 000000018008c920     libucrt:log10f.obj
 0002:0001c930       __real_ninf                000000018008c930     libucrt:log10f.obj
 0002:0001c940       __real_inf                 000000018008c940     libucrt:log10f.obj
 0002:0001c950       __real_nan                 000000018008c950     libucrt:log10f.obj
 0002:0001c960       __real_ef                  000000018008c960     libucrt:log10f.obj
 0002:0001c970       __real_neg_qnan            000000018008c970     libucrt:log10f.obj
 0002:0001c980       __real_sign                000000018008c980     libucrt:log10f.obj
 0002:0001c990       __real_notsign             000000018008c990     libucrt:log10f.obj
 0002:0001c9a0       __real_qnanbit             000000018008c9a0     libucrt:log10f.obj
 0002:0001c9b0       __real_mant                000000018008c9b0     libucrt:log10f.obj
 0002:0001c9c0       __mask_127                 000000018008c9c0     libucrt:log10f.obj
 0002:0001c9d0       __mask_mant_all7           000000018008c9d0     libucrt:log10f.obj
 0002:0001c9e0       __mask_mant8               000000018008c9e0     libucrt:log10f.obj
 0002:0001c9f0       __real_ca1                 000000018008c9f0     libucrt:log10f.obj
 0002:0001ca00       __real_ca2                 000000018008ca00     libucrt:log10f.obj
 0002:0001ca10       __real_log2_lead           000000018008ca10     libucrt:log10f.obj
 0002:0001ca20       __real_log2_tail           000000018008ca20     libucrt:log10f.obj
 0002:0001ca30       __real_half                000000018008ca30     libucrt:log10f.obj
 0002:0001ca40       __real_log10_e_lead        000000018008ca40     libucrt:log10f.obj
 0002:0001ca50       __real_log10_e_tail        000000018008ca50     libucrt:log10f.obj
 0002:0001ca60       __real_log10_2_lead        000000018008ca60     libucrt:log10f.obj
 0002:0001ca70       __real_log10_2_tail        000000018008ca70     libucrt:log10f.obj
 0002:0001ca80       __real_log10_e             000000018008ca80     libucrt:log10f.obj
 0002:0001ca90       __mask_lower               000000018008ca90     libucrt:log10f.obj
 0002:0001caa0       __real_neg127              000000018008caa0     libucrt:log10f.obj
 0002:0001cab0       __mask_253                 000000018008cab0     libucrt:log10f.obj
 0002:0001cac0       __real_threshold           000000018008cac0     libucrt:log10f.obj
 0002:0001cad0       __mask_01                  000000018008cad0     libucrt:log10f.obj
 0002:0001cae0       __mask_80                  000000018008cae0     libucrt:log10f.obj
 0002:0001caf0       __real_3b800000            000000018008caf0     libucrt:log10f.obj
 0002:0001cb00       __real_1_over_3            000000018008cb00     libucrt:log10f.obj
 0002:0001cb10       __real_1_over_2            000000018008cb10     libucrt:log10f.obj
 0002:0001cb20       __flag_x_zero              000000018008cb20     libucrt:log10f.obj
 0002:0001cb24       __flag_x_neg               000000018008cb24     libucrt:log10f.obj
 0002:0001cb28       __flag_x_nan               000000018008cb28     libucrt:log10f.obj
 0002:0001cb30       __flag_x_one_y_snan        000000018008cb30     libucrt:pow.obj
 0002:0001cb34       __flag_x_zero_z_inf        000000018008cb34     libucrt:pow.obj
 0002:0001cb38       __flag_x_nan               000000018008cb38     libucrt:pow.obj
 0002:0001cb3c       __flag_y_nan               000000018008cb3c     libucrt:pow.obj
 0002:0001cb40       __flag_x_nan_y_nan         000000018008cb40     libucrt:pow.obj
 0002:0001cb44       __flag_x_neg_y_notint      000000018008cb44     libucrt:pow.obj
 0002:0001cb48       __flag_z_zero              000000018008cb48     libucrt:pow.obj
 0002:0001cb4c       __flag_z_denormal          000000018008cb4c     libucrt:pow.obj
 0002:0001cb50       __flag_z_inf               000000018008cb50     libucrt:pow.obj
 0002:0001cb60       __ay_max_bound             000000018008cb60     libucrt:pow.obj
 0002:0001cb68       __ay_min_bound             000000018008cb68     libucrt:pow.obj
 0002:0001cb70       __sign_mask                000000018008cb70     libucrt:pow.obj
 0002:0001cb78       __sign_and_exp_mask        000000018008cb78     libucrt:pow.obj
 0002:0001cb80       __exp_mask                 000000018008cb80     libucrt:pow.obj
 0002:0001cb88       __neg_inf                  000000018008cb88     libucrt:pow.obj
 0002:0001cb90       __pos_inf                  000000018008cb90     libucrt:pow.obj
 0002:0001cb98       __pos_one                  000000018008cb98     libucrt:pow.obj
 0002:0001cba0       __pos_zero                 000000018008cba0     libucrt:pow.obj
 0002:0001cba8       __exp_mant_mask            000000018008cba8     libucrt:pow.obj
 0002:0001cbb0       __mant_mask                000000018008cbb0     libucrt:pow.obj
 0002:0001cbb8       __ind_pattern              000000018008cbb8     libucrt:pow.obj
 0002:0001cbc0       __neg_qnan                 000000018008cbc0     libucrt:pow.obj
 0002:0001cbc8       __qnan                     000000018008cbc8     libucrt:pow.obj
 0002:0001cbd0       __qnan_set                 000000018008cbd0     libucrt:pow.obj
 0002:0001cbd8       __neg_one                  000000018008cbd8     libucrt:pow.obj
 0002:0001cbe0       __neg_zero                 000000018008cbe0     libucrt:pow.obj
 0002:0001cbe8       __exp_shift                000000018008cbe8     libucrt:pow.obj
 0002:0001cbf0       __exp_bias                 000000018008cbf0     libucrt:pow.obj
 0002:0001cbf8       __exp_bias_m1              000000018008cbf8     libucrt:pow.obj
 0002:0001cc00       __yexp_53                  000000018008cc00     libucrt:pow.obj
 0002:0001cc08       __mant_full                000000018008cc08     libucrt:pow.obj
 0002:0001cc10       __1_before_mant            000000018008cc10     libucrt:pow.obj
 0002:0001cc18       __mask_mant_all8           000000018008cc18     libucrt:pow.obj
 0002:0001cc20       __mask_mant9               000000018008cc20     libucrt:pow.obj
 0002:0001cc30       __real_fffffffff8000000    000000018008cc30     libucrt:pow.obj
 0002:0001cc40       __mask_8000000000000000    000000018008cc40     libucrt:pow.obj
 0002:0001cc50       __real_4090040000000000    000000018008cc50     libucrt:pow.obj
 0002:0001cc60       __real_C090C80000000000    000000018008cc60     libucrt:pow.obj
 0002:0001cc70       __real_ninf                000000018008cc70     libucrt:pow.obj
 0002:0001cc80       __real_inf                 000000018008cc80     libucrt:pow.obj
 0002:0001cc90       __real_nan                 000000018008cc90     libucrt:pow.obj
 0002:0001cca0       __real_mant                000000018008cca0     libucrt:pow.obj
 0002:0001ccb0       __mask_1023                000000018008ccb0     libucrt:pow.obj
 0002:0001ccc0       __mask_001                 000000018008ccc0     libucrt:pow.obj
 0002:0001ccd0       __real_log2_lead           000000018008ccd0     libucrt:pow.obj
 0002:0001cce0       __real_log2_tail           000000018008cce0     libucrt:pow.obj
 0002:0001ccf0       __real_two                 000000018008ccf0     libucrt:pow.obj
 0002:0001cd00       __real_one                 000000018008cd00     libucrt:pow.obj
 0002:0001cd10       __real_half                000000018008cd10     libucrt:pow.obj
 0002:0001cd20       __mask_100                 000000018008cd20     libucrt:pow.obj
 0002:0001cd30       __real_1_over_2            000000018008cd30     libucrt:pow.obj
 0002:0001cd40       __real_1_over_3            000000018008cd40     libucrt:pow.obj
 0002:0001cd50       __real_1_over_4            000000018008cd50     libucrt:pow.obj
 0002:0001cd60       __real_1_over_5            000000018008cd60     libucrt:pow.obj
 0002:0001cd70       __real_1_over_6            000000018008cd70     libucrt:pow.obj
 0002:0001cd80       __real_1_over_7            000000018008cd80     libucrt:pow.obj
 0002:0001cd90       __mask_1023_f              000000018008cd90     libucrt:pow.obj
 0002:0001cda0       __mask_2045                000000018008cda0     libucrt:pow.obj
 0002:0001cdb0       __real_threshold           000000018008cdb0     libucrt:pow.obj
 0002:0001cdc0       __real_notsign             000000018008cdc0     libucrt:pow.obj
 0002:0001cdd0       __log_F_inv_head           000000018008cdd0     libucrt:pow.obj
 0002:0001d5e0       __log_F_inv_tail           000000018008d5e0     libucrt:pow.obj
 0002:0001ddf0       __denormal_threshold       000000018008ddf0     libucrt:pow.obj
 0002:0001de00       __enable_almost_inf        000000018008de00     libucrt:pow.obj
 0002:0001de10       __real_zero                000000018008de10     libucrt:pow.obj
 0002:0001de20       __real_smallest_denormal   000000018008de20     libucrt:pow.obj
 0002:0001de30       __denormal_tiny_threshold  000000018008de30     libucrt:pow.obj
 0002:0001de40       __real_p65536              000000018008de40     libucrt:pow.obj
 0002:0001de50       __real_m68800              000000018008de50     libucrt:pow.obj
 0002:0001de60       __real_64_by_log2          000000018008de60     libucrt:pow.obj
 0002:0001de70       __real_log2_by_64_head     000000018008de70     libucrt:pow.obj
 0002:0001de80       __real_log2_by_64_tail     000000018008de80     libucrt:pow.obj
 0002:0001de90       __real_1_by_720            000000018008de90     libucrt:pow.obj
 0002:0001dea0       __real_1_by_120            000000018008dea0     libucrt:pow.obj
 0002:0001deb0       __real_1_by_24             000000018008deb0     libucrt:pow.obj
 0002:0001dec0       __real_1_by_6              000000018008dec0     libucrt:pow.obj
 0002:0001ded0       __real_1_by_2              000000018008ded0     libucrt:pow.obj
 0002:0001dee0       __flag_x_one_y_snan        000000018008dee0     libucrt:powf.obj
 0002:0001dee4       __flag_x_zero_z_inf        000000018008dee4     libucrt:powf.obj
 0002:0001dee8       __flag_x_nan               000000018008dee8     libucrt:powf.obj
 0002:0001deec       __flag_y_nan               000000018008deec     libucrt:powf.obj
 0002:0001def0       __flag_x_nan_y_nan         000000018008def0     libucrt:powf.obj
 0002:0001def4       __flag_x_neg_y_notint      000000018008def4     libucrt:powf.obj
 0002:0001def8       __flag_z_zero              000000018008def8     libucrt:powf.obj
 0002:0001defc       __flag_z_denormal          000000018008defc     libucrt:powf.obj
 0002:0001df00       __flag_z_inf               000000018008df00     libucrt:powf.obj
 0002:0001df04       L__1_by_3                  000000018008df04     libucrt:powf.obj
 0002:0001df0c       L__log2                    000000018008df0c     libucrt:powf.obj
 0002:0001df14       L__max_exp_arg             000000018008df14     libucrt:powf.obj
 0002:0001df1c       L__min_exp_arg             000000018008df1c     libucrt:powf.obj
 0002:0001df24       L__real_log2_by_64         000000018008df24     libucrt:powf.obj
 0002:0001df2c       L__1_by_6                  000000018008df2c     libucrt:powf.obj
 0002:0001df34       L__real_threshold          000000018008df34     libucrt:powf.obj
 0002:0001df3c       L__real_one                000000018008df3c     libucrt:powf.obj
 0002:0001df44       L__real_two                000000018008df44     libucrt:powf.obj
 0002:0001df4c       L__neg_zero                000000018008df4c     libucrt:powf.obj
 0002:0001df60       L__real_ca42               000000018008df60     libucrt:powf.obj
 0002:0001df68       L__real_ca4                000000018008df68     libucrt:powf.obj
 0002:0001df70       L__real_ca31               000000018008df70     libucrt:powf.obj
 0002:0001df78       L__real_ca3                000000018008df78     libucrt:powf.obj
 0002:0001df80       L__clear_sign              000000018008df80     libucrt:powf.obj
 0002:0001df90       L__real_64_by_log2         000000018008df90     libucrt:powf.obj
 0002:0001dfa0       L__1_by_2                  000000018008dfa0     libucrt:powf.obj
 0002:0001dfb0       L__1023                    000000018008dfb0     libucrt:powf.obj
 0002:0001dfc0       L__xexp_bits_xmantissa_bits 000000018008dfc0     libucrt:powf.obj
 0002:0001e7e0       L_real_piby2_1             000000018008e7e0     libucrt:sin.obj
 0002:0001e7f0       L_real_piby2_1tail         000000018008e7f0     libucrt:sin.obj
 0002:0001e800       L_real_piby2_2             000000018008e800     libucrt:sin.obj
 0002:0001e810       L_real_piby2_2tail         000000018008e810     libucrt:sin.obj
 0002:0001e820       L_one                      000000018008e820     libucrt:sin.obj
 0002:0001e830       L_signbit                  000000018008e830     libucrt:sin.obj
 0002:0001e840       L_int_one                  000000018008e840     libucrt:sin.obj
 0002:0001e850       L_int_two                  000000018008e850     libucrt:sin.obj
 0002:0001e860       L_int_three                000000018008e860     libucrt:sin.obj
 0002:0001e870       L_2_by_pi                  000000018008e870     libucrt:sin.obj
 0002:0001e878       L_one_half                 000000018008e878     libucrt:sin.obj
 0002:0001e880       L_one_sixth                000000018008e880     libucrt:sin.obj
 0002:0001e888       L_two_to_neg_27            000000018008e888     libucrt:sin.obj
 0002:0001e890       L_two_to_neg_13            000000018008e890     libucrt:sin.obj
 0002:0001e898       L_piby4                    000000018008e898     libucrt:sin.obj
 0002:0001e8a0       L_small_arg_cw             000000018008e8a0     libucrt:sin.obj
 0002:0001e8a8       L_small_arg_bdl            000000018008e8a8     libucrt:sin.obj
 0002:0001e8b0       L__inf_mask_64             000000018008e8b0     libucrt:sin.obj
 0002:0001e8b8       L_near_one                 000000018008e8b8     libucrt:sin.obj
 0002:0001e8c0       L_signbit                  000000018008e8c0     libucrt:tan.obj
 0002:0001e8d0       L_sign_mask                000000018008e8d0     libucrt:tan.obj
 0002:0001e8e0       L_int_one                  000000018008e8e0     libucrt:tan.obj
 0002:0001e8f0       L_twobypi                  000000018008e8f0     libucrt:tan.obj
 0002:0001e900       L_point_333                000000018008e900     libucrt:tan.obj
 0002:0001e910       L_tan_p0                   000000018008e910     libucrt:tan.obj
 0002:0001e920       L_tan_p2                   000000018008e920     libucrt:tan.obj
 0002:0001e930       L_tan_p4                   000000018008e930     libucrt:tan.obj
 0002:0001e940       L_tan_q0                   000000018008e940     libucrt:tan.obj
 0002:0001e950       L_tan_q2                   000000018008e950     libucrt:tan.obj
 0002:0001e960       L_tan_q4                   000000018008e960     libucrt:tan.obj
 0002:0001e970       L_tan_q6                   000000018008e970     libucrt:tan.obj
 0002:0001e980       L_half_mask                000000018008e980     libucrt:tan.obj
 0002:0001e990       L_piby4_lead               000000018008e990     libucrt:tan.obj
 0002:0001e9a0       L_piby4_tail               000000018008e9a0     libucrt:tan.obj
 0002:0001e9b0       L_piby2_1                  000000018008e9b0     libucrt:tan.obj
 0002:0001e9b8       L_piby2_1tail              000000018008e9b8     libucrt:tan.obj
 0002:0001e9c0       L_piby2_2                  000000018008e9c0     libucrt:tan.obj
 0002:0001e9c8       L_piby2_2tail              000000018008e9c8     libucrt:tan.obj
 0002:0001e9d0       L_piby2_3                  000000018008e9d0     libucrt:tan.obj
 0002:0001e9d8       L_piby2_3tail              000000018008e9d8     libucrt:tan.obj
 0002:0001e9e0       L_two_to_neg_27            000000018008e9e0     libucrt:tan.obj
 0002:0001e9e8       L_two_to_neg_13            000000018008e9e8     libucrt:tan.obj
 0002:0001e9f0       L_inf_mask_64              000000018008e9f0     libucrt:tan.obj
 0002:0001e9f8       L_point_five               000000018008e9f8     libucrt:tan.obj
 0002:0001ea00       L_point_68                 000000018008ea00     libucrt:tan.obj
 0002:0001ea08       L_n_point_68               000000018008ea08     libucrt:tan.obj
 0002:0001ea10       L_zero                     000000018008ea10     libucrt:tan.obj
 0002:0001ea18       L_one                      000000018008ea18     libucrt:tan.obj
 0002:0001ea20       L_n_one                    000000018008ea20     libucrt:tan.obj
 0002:0001ea28       L_two                      000000018008ea28     libucrt:tan.obj
 0002:0001ea30       L_near_one                 000000018008ea30     libucrt:tan.obj
 0002:0001ea38       L_moderate_arg_cw          000000018008ea38     libucrt:tan.obj
 0002:0001ea40       L_moderate_arg_bdl         000000018008ea40     libucrt:tan.obj
 0002:0001eb10       L__piby2_part3_piby2_lead  000000018008eb10     libucrt:remainder_piby2_forasm.obj
 0002:0001eb20       L__piby2_part1             000000018008eb20     libucrt:remainder_piby2_forasm.obj
 0002:0001eb30       L__piby2_part2             000000018008eb30     libucrt:remainder_piby2_forasm.obj
 0002:0001eb40       L_piby2_1                  000000018008eb40     libucrt:remainder_piby2_forasm.obj
 0002:0001eb50       L_piby2_2                  000000018008eb50     libucrt:remainder_piby2_forasm.obj
 0002:0001eb60       L_piby2_3                  000000018008eb60     libucrt:remainder_piby2_forasm.obj
 0002:0001eb70       L_piby2_1tail              000000018008eb70     libucrt:remainder_piby2_forasm.obj
 0002:0001eb80       L_piby2_2tail              000000018008eb80     libucrt:remainder_piby2_forasm.obj
 0002:0001eb90       L_piby2_3tail              000000018008eb90     libucrt:remainder_piby2_forasm.obj
 0002:0001eba0       L_twobypi                  000000018008eba0     libucrt:remainder_piby2_forasm.obj
 0002:0001ebb0       L_point_five               000000018008ebb0     libucrt:remainder_piby2_forasm.obj
 0002:0001ebc0       L_int_three                000000018008ebc0     libucrt:remainder_piby2_forasm.obj
 0002:0001ebd0       L_inf_mask_64              000000018008ebd0     libucrt:remainder_piby2_forasm.obj
 0002:0001ebe0       L_signbit                  000000018008ebe0     libucrt:remainder_piby2_forasm.obj
 0002:0001ebf0       L_int_1                    000000018008ebf0     libucrt:remainder_piby2_forasm.obj
 0002:0001ec00       L_int_15                   000000018008ec00     libucrt:remainder_piby2_forasm.obj
 0002:0001ec08       L_int_48                   000000018008ec08     libucrt:remainder_piby2_forasm.obj
 0002:0001ec10       L_3pio4                    000000018008ec10     libucrt:remainder_piby2_forasm.obj
 0002:0001ec18       L_5pio4                    000000018008ec18     libucrt:remainder_piby2_forasm.obj
 0002:0001ec20       L_7pio4                    000000018008ec20     libucrt:remainder_piby2_forasm.obj
 0002:0001ec28       L_9pio4                    000000018008ec28     libucrt:remainder_piby2_forasm.obj
 0002:0001ec30       L__2_by_pi_bits            000000018008ec30     libucrt:remainder_piby2_forasm.obj
 0002:0001ecd0       L_piby2_lead               000000018008ecd0     libucrt:remainder_piby2_forfma3.obj
 0002:0001ece0       L_fff800                   000000018008ece0     libucrt:remainder_piby2_forfma3.obj
 0002:0001ecf0       L_piby2_part1              000000018008ecf0     libucrt:remainder_piby2_forfma3.obj
 0002:0001ed00       L_piby2_part2              000000018008ed00     libucrt:remainder_piby2_forfma3.obj
 0002:0001ed10       L_piby2_part3              000000018008ed10     libucrt:remainder_piby2_forfma3.obj
 0002:0001ed20       L_piby2_1                  000000018008ed20     libucrt:remainder_piby2_forfma3.obj
 0002:0001ed30       L_piby2_2                  000000018008ed30     libucrt:remainder_piby2_forfma3.obj
 0002:0001ed40       L_piby2_3                  000000018008ed40     libucrt:remainder_piby2_forfma3.obj
 0002:0001ed50       L_piby2_1tail              000000018008ed50     libucrt:remainder_piby2_forfma3.obj
 0002:0001ed60       L_piby2_2tail              000000018008ed60     libucrt:remainder_piby2_forfma3.obj
 0002:0001ed70       L_piby2_3tail              000000018008ed70     libucrt:remainder_piby2_forfma3.obj
 0002:0001ed80       L_sign_mask                000000018008ed80     libucrt:remainder_piby2_forfma3.obj
 0002:0001ed90       L_twobypi                  000000018008ed90     libucrt:remainder_piby2_forfma3.obj
 0002:0001eda0       L_point_five               000000018008eda0     libucrt:remainder_piby2_forfma3.obj
 0002:0001edb0       L_int_three                000000018008edb0     libucrt:remainder_piby2_forfma3.obj
 0002:0001edc0       L_inf_mask_64              000000018008edc0     libucrt:remainder_piby2_forfma3.obj
 0002:0001edd0       L_signbit                  000000018008edd0     libucrt:remainder_piby2_forfma3.obj
 0002:0001ede0       L_r                        000000018008ede0     libucrt:remainder_piby2_forfma3.obj
 0002:0001edf0       L_xc1                      000000018008edf0     libucrt:remainder_piby2_forfma3.obj
 0002:0001ee00       L_xc2                      000000018008ee00     libucrt:remainder_piby2_forfma3.obj
 0002:0001ee10       L_xc3                      000000018008ee10     libucrt:remainder_piby2_forfma3.obj
 0002:0001ee20       L_sigma                    000000018008ee20     libucrt:remainder_piby2_forfma3.obj
 0002:00020d80       ?_TlgEvent@?3??__telemetry_main_invoke_trigger@@9@4U<unnamed-type-_TlgEvent>@?3??1@YAXQEAUHINSTANCE__@@@Z@B 0000000180090d80     libvcruntime:telemetry.obj
 0002:00020dbc       ?_TlgEvent@?3??__telemetry_main_return_trigger@@9@4U<unnamed-type-_TlgEvent>@?3??1@YAXQEAUHINSTANCE__@@@Z@B 0000000180090dbc     libvcruntime:telemetry.obj
 0002:00020df7       ?_Tlg_Microsoft_CRTProviderProv_Meta@@3U<unnamed-type-_Tlg_Microsoft_CRTProviderProv_Meta>@@B 0000000180090df7     libvcruntime:telemetry.obj
 0002:000212a0       $unwind$__acrt_release_locale_ref 00000001800912a0     libucrt:locale_refcounting.obj
 0002:000212a0       $unwind$_strnicmp          00000001800912a0     libucrt:strnicmp.obj
 0002:000212a0       $unwind$_getfpcontrolword  00000001800912a0     libucrt:_fenvutils.obj
 0002:000212a0       $unwind$__dcrt_terminate_console_output 00000001800912a0     libucrt:initcon.obj
 0002:000212a0       $unwind$??$uninitialize_environment_internal@_W@@YAXAEAPEAPEA_W@Z 00000001800912a0     libucrt:environment_initialization.obj
 0002:000212a0       $unwind$_fileno            00000001800912a0     libucrt:fileno.obj
 0002:000212a0       $unwind$__dcrt_uninitialize_environments_nolock 00000001800912a0     libucrt:environment_initialization.obj
 0002:000212a0       $unwind$__acrt_DownlevelLocaleNameToLCID 00000001800912a0     libucrt:lcidtoname_downlevel.obj
 0002:000212a0       $unwind$ATHformula         00000001800912a0     libmp3lame:util.obj
 0002:000212a0       $unwind$_statfp            00000001800912a0     libucrt:fpctrl.obj
 0002:000212a0       $unwind$?validate_stream_is_ansi_if_required@?$__acrt_stdio_char_traits@D@@SA_NQEAU_iobuf@@@Z 00000001800912a0     libucrt:output.obj
 0002:000212a0       $unwind$posix_read         00000001800912a0     libmpg123:readers.obj
 0002:000212a0       $unwind$CRC_writeheader    00000001800912a0     libmp3lame:bitstream.obj
 0002:000212a0       $unwind$_getfpstatusword   00000001800912a0     libucrt:_fenvutils.obj
 0002:000212a0       $unwind$__vcrt_uninitialize_telemetry_provider 00000001800912a0     libvcruntime:telemetry.obj
 0002:000212a0       $unwind$_stricmp           00000001800912a0     libucrt:stricmp.obj
 0002:000212a0       $unwind$__pctype_func      00000001800912a0     libucrt:ctype.obj
 0002:000212a0       $unwind$_set_errno_from_matherr 00000001800912a0     libucrt:fpexcept.obj
 0002:000212a0       $unwind$__acrt_initialize_ptd 00000001800912a0     libucrt:per_thread_data.obj
 0002:000212a0       $unwind$__acrt_uninitialize_ptd 00000001800912a0     libucrt:per_thread_data.obj
 0002:000212a0       $unwind$_isatty            00000001800912a0     libucrt:isatty.obj
 0002:000212a0       $unwind$INT123_frame_offset 00000001800912a0     libmpg123:frame.obj
 0002:000212a0       $unwind$postprocess_buffer 00000001800912a0     libmpg123:format.obj
 0002:000212a0       $unwind$_get_osfhandle     00000001800912a0     libucrt:osfinfo.obj
 0002:000212a0       $unwind$__acrt_uninitialize_critical 00000001800912a0     libucrt:initialization.obj
 0002:000212a0       $unwind$__vcrt_freefls     00000001800912a0     libvcruntime:per_thread_data.obj
 0002:000212a0       $unwind$?state_case_size@?$output_processor@DV?$stream_output_adapter@D@__crt_stdio_output@@V?$standard_base@DV?$stream_output_adapter@D@__crt_stdio_output@@@2@@__crt_stdio_output@@AEAA_NXZ 00000001800912a0     libucrt:output.obj
 0002:000212a0       $unwind$__vcrt_uninitialize_ptd 00000001800912a0     libvcruntime:per_thread_data.obj
 0002:000212a0       $unwind$__vcrt_initialize_ptd 00000001800912a0     libvcruntime:per_thread_data.obj
 0002:000212a0       $unwind$__acrt_thread_attach 00000001800912a0     libucrt:initialization.obj
 0002:000212a0       $unwind$__acrt_thread_detach 00000001800912a0     libucrt:initialization.obj
 0002:000212a0       $unwind$initialize_c       00000001800912a0     libucrt:initialization.obj
 0002:000212a0       $unwind$?GetId@Script@v8@@QEAAHXZ 00000001800912a0     bindings.obj
 0002:000212a0       $unwind$uninitialize_environment 00000001800912a0     libucrt:initialization.obj
 0002:000212a0       $unwind$__acrt_initialize_command_line 00000001800912a0     libucrt:argv_data.obj
 0002:000212a0       $unwind$?initialize_multibyte@@YAHXZ 00000001800912a0     libucrt:multibyte_initializer.obj
 0002:000212a0       $unwind$abort              00000001800912a0     libucrt:abort.obj
 0002:000212a0       $unwind$_msize             00000001800912a0     libucrt:msize.obj
 0002:000212a0       $unwind$__acrt_initialize_heap 00000001800912a0     libucrt:heap_handle.obj
 0002:000212a0       $unwind$ResetSampleFrequency 00000001800912a0     libmp3lame:gain_analysis.obj
 0002:000212a0       $unwind$?state_case_normal_tchar@?$output_processor@DV?$string_output_adapter@D@__crt_stdio_output@@V?$standard_base@DV?$string_output_adapter@D@__crt_stdio_output@@@2@@__crt_stdio_output@@AEAA_ND@Z 00000001800912a0     libucrt:output.obj
 0002:000212a0       $unwind$?IsDead@V8@v8@@SA_NXZ 00000001800912a0     bindings.obj
 0002:000212a0       $unwind$tolower            00000001800912a0     libucrt:tolower_toupper.obj
 0002:000212a0       $unwind$?state_case_size@?$output_processor@DV?$string_output_adapter@D@__crt_stdio_output@@V?$standard_base@DV?$string_output_adapter@D@__crt_stdio_output@@@2@@__crt_stdio_output@@AEAA_NXZ 00000001800912a0     libucrt:output.obj
 0002:000212a0       $unwind$?IsExecutionTerminating@V8@v8@@SA_NPEAVIsolate@2@@Z 00000001800912a0     bindings.obj
 0002:000212a0       $unwind$__vcrt_thread_detach 00000001800912a0     libvcruntime:initialization.obj
 0002:000212a0       $unwind$__vcrt_thread_attach 00000001800912a0     libvcruntime:initialization.obj
 0002:000212a0       $unwind$__GSHandlerCheck   00000001800912a0     LIBCMT:_gshandler_.obj
 0002:000212a0       $unwind$__vcrt_uninitialize_critical 00000001800912a0     libvcruntime:initialization.obj
 0002:000212a0       $unwind$__vcrt_initialize  00000001800912a0     libvcruntime:initialization.obj
 0002:000212a0       $unwind$_invoke_watson     00000001800912a0     libucrt:invalid_parameter.obj
 0002:000212a0       $unwind$__report_rangecheckfailure 00000001800912a0     LIBCMT:gs_report.obj
 0002:000212a0       $unwind$__scrt_initialize_default_local_stdio_options 00000001800912a0     LIBCMT:default_local_stdio_options.obj
 0002:000212a0       $unwind$guess_scalefac_x34 00000001800912a0     libmp3lame:vbrquantize.obj
 0002:000212a0       $unwind$?dllmain_crt_dispatch@@YAHQEAUHINSTANCE__@@KQEAX@Z 00000001800912a0     LIBCMT:dll_dllmain.obj
 0002:000212a0       $unwind$__scrt_dllmain_crt_thread_detach 00000001800912a0     LIBCMT:utility.obj
 0002:000212a0       $unwind$__scrt_dllmain_crt_thread_attach 00000001800912a0     LIBCMT:utility.obj
 0002:000212a0       $unwind$__scrt_dllmain_uninitialize_critical 00000001800912a0     LIBCMT:utility.obj
 0002:000212a0       $unwind$__scrt_dllmain_uninitialize_c 00000001800912a0     LIBCMT:utility.obj
 0002:000212a0       $unwind$atexit             00000001800912a0     LIBCMT:utility.obj
 0002:000212a0       $unwind$__scrt_dllmain_after_initialize_c 00000001800912a0     LIBCMT:utility.obj
 0002:000212a0       $unwind$_errno             00000001800912a0     libucrt:errno.obj
 0002:000212a0       $unwind$fegetround         00000001800912a0     libucrt:fegetround.obj
 0002:000212a0       $unwind$__scrt_dllmain_before_initialize_c 00000001800912a0     LIBCMT:utility.obj
 0002:000212a0       $unwind$__scrt_acquire_startup_lock 00000001800912a0     LIBCMT:utility.obj
 0002:000212a0       $unwind$__acrt_initialize_multibyte 00000001800912a0     libucrt:mbctype.obj
 0002:000212a0       $unwind$__doserrno         00000001800912a0     libucrt:errno.obj
 0002:000212a0       $unwind$??$uninitialize_environment_internal@D@@YAXAEAPEAPEAD@Z 00000001800912a0     libucrt:environment_initialization.obj
 0002:000212a0       $unwind$set_frame_wxxx     00000001800912a0     libmp3lame:id3tag.obj
 0002:000212a8       $unwind$feholdexcept       00000001800912a8     libucrt:feholdexcept.obj
 0002:000212a8       $unwind$fegetenv           00000001800912a8     libucrt:fegetenv.obj
 0002:000212a8       $unwind$INT123_id3_link    00000001800912a8     libmpg123:id3.obj
 0002:000212a8       $unwind$?node_mpg123_feed_async@nodelame@@YAXPEAUuv_work_s@@@Z 00000001800912a8     node_mpg123.obj
 0002:000212a8       $unwind$?node_mpg123_id3_async@nodelame@@YAXPEAUuv_work_s@@@Z 00000001800912a8     node_mpg123.obj
 0002:000212a8       $unwind$default_init       00000001800912a8     libmpg123:readers.obj
 0002:000212a8       $unwind$buffered_forget    00000001800912a8     libmpg123:readers.obj
 0002:000212a8       $unwind$feed_read          00000001800912a8     libmpg123:readers.obj
 0002:000212a8       $unwind$bc_reset           00000001800912a8     libmpg123:readers.obj
 0002:000212a8       $unwind$stream_rewind      00000001800912a8     libmpg123:readers.obj
 0002:000212a8       $unwind$generic_read_frame_body 00000001800912a8     libmpg123:readers.obj
 0002:000212a8       $unwind$generic_head_shift 00000001800912a8     libmpg123:readers.obj
 0002:000212a8       $unwind$check_bom          00000001800912a8     libmpg123:id3.obj
 0002:000212a8       $unwind$compute_flushbits  00000001800912a8     libmp3lame:bitstream.obj
 0002:000212a8       $unwind$generic_head_read  00000001800912a8     libmpg123:readers.obj
 0002:000212a8       $unwind$_fflush_nolock     00000001800912a8     libucrt:fflush.obj
 0002:000212a8       $unwind$stream_close       00000001800912a8     libmpg123:readers.obj
 0002:000212a8       $unwind$INT123_open_bad    00000001800912a8     libmpg123:readers.obj
 0002:000212a8       $unwind$__scrt_initialize_crt 00000001800912a8     LIBCMT:utility.obj
 0002:000212a8       $unwind$__acrt_update_locale_info 00000001800912a8     libucrt:locale_update.obj
 0002:000212a8       $unwind$__acrt_update_multibyte_info 00000001800912a8     libucrt:locale_update.obj
 0002:000212a8       $unwind$strcpy_s           00000001800912a8     libucrt:strcpy_s.obj
 0002:000212a8       $unwind$__acrt_stdio_allocate_buffer_nolock 00000001800912a8     libucrt:_getbuf.obj
 0002:000212a8       $unwind$INT123_frame_outs  00000001800912a8     libmpg123:frame.obj
 0002:000212a8       $unwind$__acrt_stdio_free_buffer_nolock 00000001800912a8     libucrt:_freebuf.obj
 0002:000212a8       $unwind$guess_freeformat_framesize 00000001800912a8     libmpg123:parse.obj
 0002:000212a8       $unwind$INT123_frame_index_find 00000001800912a8     libmpg123:frame.obj
 0002:000212a8       $unwind$halfspeed_do       00000001800912a8     libmpg123:parse.obj
 0002:000212a8       $unwind$_setfpstatusword   00000001800912a8     libucrt:_fenvutils.obj
 0002:000212a8       $unwind$__acrt_uninitialize_stdio 00000001800912a8     libucrt:_file.obj
 0002:000212a8       $unwind$_set_statfp        00000001800912a8     libucrt:fpctrl.obj
 0002:000212a8       $unwind$INT123_frame_expect_outsamples 00000001800912a8     libmpg123:frame.obj
 0002:000212a8       $unwind$_clrfp             00000001800912a8     libucrt:fpctrl.obj
 0002:000212a8       $unwind$?node_lame_encode_flush_nogap_async@nodelame@@YAXPEAUuv_work_s@@@Z 00000001800912a8     node_lame.obj
 0002:000212a8       $unwind$_clearfp           00000001800912a8     libucrt:ieee.obj
 0002:000212a8       $unwind$?exit_or_terminate_process@@YAXI@Z 00000001800912a8     libucrt:exit.obj
 0002:000212a8       $unwind$??0?$output_processor@DV?$stream_output_adapter@D@__crt_stdio_output@@V?$standard_base@DV?$stream_output_adapter@D@__crt_stdio_output@@@2@@__crt_stdio_output@@QEAA@AEBV?$stream_output_adapter@D@1@_KQEBDQEAU__crt_locale_pointers@@QEAD@Z 00000001800912a8     libucrt:output.obj
 0002:000212a8       $unwind$frame_default_pars 00000001800912a8     libmpg123:frame.obj
 0002:000212a8       $unwind$_purecall          00000001800912a8     libvcruntime:purevirt.obj
 0002:000212a8       $unwind$?state_case_normal@?$output_processor@DV?$stream_output_adapter@D@__crt_stdio_output@@V?$standard_base@DV?$stream_output_adapter@D@__crt_stdio_output@@@2@@__crt_stdio_output@@AEAA_NXZ 00000001800912a8     libucrt:output.obj
 0002:000212a8       $unwind$__acrt_uninitialize_winapi_thunks 00000001800912a8     libucrt:winapi_thunks.obj
 0002:000212a8       $unwind$?state_case_normal_tchar@?$output_processor@DV?$stream_output_adapter@D@__crt_stdio_output@@V?$standard_base@DV?$stream_output_adapter@D@__crt_stdio_output@@@2@@__crt_stdio_output@@AEAA_ND@Z 00000001800912a8     libucrt:output.obj
 0002:000212a8       $unwind$__acrt_freeptd     00000001800912a8     libucrt:per_thread_data.obj
 0002:000212a8       $unwind$__acrt_initialize_locks 00000001800912a8     libucrt:locks.obj
 0002:000212a8       $unwind$__acrt_uninitialize_locks 00000001800912a8     libucrt:locks.obj
 0002:000212a8       $unwind$__vcrt_freeptd     00000001800912a8     libvcruntime:per_thread_data.obj
 0002:000212a8       $unwind$?DloadReleaseSectionWriteAccess@@YAXXZ 00000001800912a8     DelayImp:delayhlp.obj
 0002:000212a8       $unwind$initialize_pointers 00000001800912a8     libucrt:initialization.obj
 0002:000212a8       $unwind$?type_case_integer@?$output_processor@DV?$stream_output_adapter@D@__crt_stdio_output@@V?$standard_base@DV?$stream_output_adapter@D@__crt_stdio_output@@@2@@__crt_stdio_output@@AEAA_NI_N@Z 00000001800912a8     libucrt:output.obj
 0002:000212a8       $unwind$find_dectype       00000001800912a8     libmpg123:optimize.obj
 0002:000212a8       $unwind$uninitialize_allocated_memory 00000001800912a8     libucrt:initialization.obj
 0002:000212a8       $unwind$??_EExternalSourceStream@ScriptCompiler@v8@@UEAAPEAXI@Z 00000001800912a8     bindings.obj
 0002:000212a8       $unwind$??0Scope@Isolate@v8@@QEAA@PEAV12@@Z 00000001800912a8     bindings.obj
 0002:000212a8       $unwind$??0Unlocker@v8@@QEAA@PEAVIsolate@1@@Z 00000001800912a8     bindings.obj
 0002:000212a8       $unwind$??0Locker@v8@@QEAA@PEAVIsolate@1@@Z 00000001800912a8     bindings.obj
 0002:000212a8       $unwind$?GetInternalField@Object@v8@@QEAA?AV?$Local@VValue@v8@@@2@H@Z 00000001800912a8     bindings.obj
 0002:000212a8       $unwind$_malloc_base       00000001800912a8     libucrt:malloc_base.obj
 0002:000212a8       $unwind$mpg123_feed        00000001800912a8     libmpg123:libmpg123.obj
 0002:000212a8       $unwind$??0?$output_processor@DV?$string_output_adapter@D@__crt_stdio_output@@V?$standard_base@DV?$string_output_adapter@D@__crt_stdio_output@@@2@@__crt_stdio_output@@QEAA@AEBV?$string_output_adapter@D@1@_KQEBDQEAU__crt_locale_pointers@@QEAD@Z 00000001800912a8     libucrt:output.obj
 0002:000212a8       $unwind$analyzeResult      00000001800912a8     libmp3lame:gain_analysis.obj
 0002:000212a8       $unwind$_calloc_base       00000001800912a8     libucrt:calloc_base.obj
 0002:000212a8       $unwind$__acrt_fp_strflt_to_string 00000001800912a8     libucrt:_fptostr.obj
 0002:000212a8       $unwind$?state_case_normal@?$output_processor@DV?$string_output_adapter@D@__crt_stdio_output@@V?$standard_base@DV?$string_output_adapter@D@__crt_stdio_output@@@2@@__crt_stdio_output@@AEAA_NXZ 00000001800912a8     libucrt:output.obj
 0002:000212a8       $unwind$InitGainAnalysis   00000001800912a8     libmp3lame:gain_analysis.obj
 0002:000212a8       $unwind$?GetEmbedderData@Context@v8@@QEAA?AV?$Local@VValue@v8@@@2@H@Z 00000001800912a8     bindings.obj
 0002:000212a8       $unwind$?SetAllowCodeGenerationFromStringsCallback@V8@v8@@SAXP6A_NV?$Local@VContext@v8@@@2@@Z@Z 00000001800912a8     bindings.obj
 0002:000212a8       $unwind$?RemoveMessageListeners@V8@v8@@SAXP6AXV?$Local@VMessage@v8@@@2@V?$Local@VValue@v8@@@2@@Z@Z 00000001800912a8     bindings.obj
 0002:000212a8       $unwind$?SetFailedAccessCheckCallbackFunction@V8@v8@@SAXP6AXV?$Local@VObject@v8@@@2@W4AccessType@2@V?$Local@VValue@v8@@@2@@Z@Z 00000001800912a8     bindings.obj
 0002:000212a8       $unwind$?SetFatalErrorHandler@V8@v8@@SAXP6AXPEBD0@Z@Z 00000001800912a8     bindings.obj
 0002:000212a8       $unwind$?RemoveGCPrologueCallback@V8@v8@@SAXP6AXW4GCType@2@W4GCCallbackFlags@2@@Z@Z 00000001800912a8     bindings.obj
 0002:000212a8       $unwind$INT123_decode_update 00000001800912a8     libmpg123:libmpg123.obj
 0002:000212a8       $unwind$?RemoveGCEpilogueCallback@V8@v8@@SAXP6AXW4GCType@2@W4GCCallbackFlags@2@@Z@Z 00000001800912a8     bindings.obj
 0002:000212a8       $unwind$?RemoveMemoryAllocationCallback@V8@v8@@SAXP6AXW4ObjectSpace@2@W4AllocationAction@2@H@Z@Z 00000001800912a8     bindings.obj
 0002:000212a8       $unwind$?VisitExternalResources@V8@v8@@SAXPEAVExternalResourceVisitor@2@@Z 00000001800912a8     bindings.obj
 0002:000212a8       $unwind$?VisitHandlesWithClassIds@V8@v8@@SAXPEAVPersistentHandleVisitor@2@@Z 00000001800912a8     bindings.obj
 0002:000212a8       $unwind$??_EExternalStringResourceBase@String@v8@@UEAAPEAXI@Z 00000001800912a8     bindings.obj
 0002:000212a8       $unwind$??_EExternalStringResource@String@v8@@UEAAPEAXI@Z 00000001800912a8     bindings.obj
 0002:000212a8       $unwind$?type_case_integer@?$output_processor@DV?$string_output_adapter@D@__crt_stdio_output@@V?$standard_base@DV?$string_output_adapter@D@__crt_stdio_output@@@2@@__crt_stdio_output@@AEAA_NI_N@Z 00000001800912a8     libucrt:output.obj
 0002:000212a8       $unwind$??_EExternalOneByteStringResource@String@v8@@UEAAPEAXI@Z 00000001800912a8     bindings.obj
 0002:000212a8       $unwind$load_exe_hook      00000001800912a8     win_delay_load_hook.obj
 0002:000212a8       $unwind$__vcrt_uninitialize_locks 00000001800912a8     libvcruntime:locks.obj
 0002:000212a8       $unwind$__vcrt_initialize_locks 00000001800912a8     libvcruntime:locks.obj
 0002:000212a8       $unwind$lame_init_old      00000001800912a8     libmp3lame:lame.obj
 0002:000212a8       $unwind$??_EAllocator@ArrayBuffer@v8@@UEAAPEAXI@Z 00000001800912a8     bindings.obj
 0002:000212a8       $unwind$__vcrt_uninitialize 00000001800912a8     libvcruntime:initialization.obj
 0002:000212a8       $unwind$??_EExternalOneByteStringResourceImpl@v8@@UEAAPEAXI@Z 00000001800912a8     bindings.obj
 0002:000212a8       $unwind$__std_type_info_destroy_list 00000001800912a8     libvcruntime:std_type_info.obj
 0002:000212a8       $unwind$__std_exception_destroy 00000001800912a8     libvcruntime:std_exception.obj
 0002:000212a8       $unwind$__raise_securityfailure 00000001800912a8     LIBCMT:gs_report.obj
 0002:000212a8       $unwind$??_EExtension@v8@@UEAAPEAXI@Z 00000001800912a8     bindings.obj
 0002:000212a8       $unwind$??_Gtype_info@@UEAAPEAXI@Z 00000001800912a8     LIBCMT:std_type_info_static.obj
 0002:000212a8       $unwind$??2@YAPEAX_K@Z     00000001800912a8     LIBCMT:new_scalar.obj
 0002:000212a8       $unwind$??0exception@std@@QEAA@AEBV01@@Z 00000001800912a8     LIBCMT:throw_bad_alloc.obj
 0002:000212a8       $unwind$??0bad_alloc@std@@QEAA@AEBV01@@Z 00000001800912a8     LIBCMT:throw_bad_alloc.obj
 0002:000212a8       $unwind$??_EExternalResourceVisitor@v8@@UEAAPEAXI@Z 00000001800912a8     bindings.obj
 0002:000212a8       $unwind$??0bad_array_new_length@std@@QEAA@AEBV01@@Z 00000001800912a8     LIBCMT:throw_bad_alloc.obj
 0002:000212a8       $unwind$??_EPersistentHandleVisitor@v8@@UEAAPEAXI@Z 00000001800912a8     bindings.obj
 0002:000212a8       $unwind$??R<lambda_5b157d9853193f9f9f8b62eb1b9b9f4d>@@QEBA_NXZ 00000001800912a8     libucrt:atof.obj
 0002:000212a8       $unwind$??R<lambda_73acf8ad6384d823b0eabb7cc5a67fbc>@@QEBA_NXZ 00000001800912a8     libucrt:atof.obj
 0002:000212a8       $unwind$??R<lambda_4b02b6c4205409ce3a17cd2e58fe2976>@@QEBA_NXZ 00000001800912a8     libucrt:atof.obj
 0002:000212a8       $unwind$?scan_optional_field_width@?$format_string_parser@D@__crt_stdio_input@@AEAA_NXZ 00000001800912a8     libucrt:input.obj
 0002:000212a8       $unwind$save_gain_values   00000001800912a8     libmp3lame:lame.obj
 0002:000212a8       $unwind$_onexit            00000001800912a8     LIBCMT:utility.obj
 0002:000212a8       $unwind$__scrt_uninitialize_crt 00000001800912a8     LIBCMT:utility.obj
 0002:000212a8       $unwind$__scrt_release_startup_lock 00000001800912a8     LIBCMT:utility.obj
 0002:000212a8       $unwind$fesetenv           00000001800912a8     libucrt:fesetenv.obj
 0002:000212b0       $chain$0$??_EExternalSourceStream@ScriptCompiler@v8@@UEAAPEAXI@Z 00000001800912b0     bindings.obj
 0002:000212c4       $chain$1$??_EExternalSourceStream@ScriptCompiler@v8@@UEAAPEAXI@Z 00000001800912c4     bindings.obj
 0002:000212d4       $unwind$?node_get_lame_version@nodelame@@YAXAEBV?$FunctionCallbackInfo@VValue@v8@@@Nan@@@Z 00000001800912d4     node_lame.obj
 0002:000212d4       $unwind$?NewInstance@Function@v8@@QEBA?AV?$MaybeLocal@VObject@v8@@@2@V?$Local@VContext@v8@@@2@@Z 00000001800912d4     bindings.obj
 0002:000212d4       $unwind$strtoull           00000001800912d4     libucrt:strtox.obj
 0002:000212d4       $unwind$frame_buffercheck  00000001800912d4     libmpg123:libmpg123.obj
 0002:000212d4       $unwind$?node_get_lame_os_bitness@nodelame@@YAXAEBV?$FunctionCallbackInfo@VValue@v8@@@Nan@@@Z 00000001800912d4     node_lame.obj
 0002:000212d4       $unwind$strtol             00000001800912d4     libucrt:strtox.obj
 0002:000212d4       $unwind$?node_mpg123_read_async@nodelame@@YAXPEAUuv_work_s@@@Z 00000001800912d4     node_mpg123.obj
 0002:000212dc       $unwind$?SetIndexedPropertyHandler@ObjectTemplate@v8@@QEAAXP6AXIAEBV?$PropertyCallbackInfo@VValue@v8@@@2@@ZP6AXIV?$Local@VValue@v8@@@2@0@ZP6AXIAEBV?$PropertyCallbackInfo@VInteger@v8@@@2@@ZP6AXIAEBV?$PropertyCallbackInfo@VBoolean@v8@@@2@@ZP6AXAEBV?$PropertyCallbackInfo@VArray@v8@@@2@@Z2@Z 00000001800912dc     bindings.obj
 0002:000212dc       $unwind$init_log_table     00000001800912dc     libmp3lame:util.obj
 0002:000212e4       $unwind$?Set@Template@v8@@QEAAXPEAVIsolate@2@PEBDV?$Local@VData@v8@@@2@@Z 00000001800912e4     bindings.obj
 0002:000212f0       $unwind$__vcrt_FlsGetValue 00000001800912f0     libvcruntime:winapi_downlevel.obj
 0002:000212f0       $unwind$?ToObject@Value@v8@@QEBA?AV?$Local@VObject@v8@@@2@XZ 00000001800912f0     bindings.obj
 0002:000212f0       $unwind$?process_literal_character_tchar@?$input_processor@DV?$string_input_adapter@D@__crt_stdio_input@@@__crt_stdio_input@@AEAA_ND@Z 00000001800912f0     libucrt:input.obj
 0002:000212f0       $unwind$?AdjustAmountOfExternalAllocatedMemory@Isolate@v8@@QEAA_J_J@Z 00000001800912f0     bindings.obj
 0002:000212f0       $unwind$__acrt_uninitialize_lowio 00000001800912f0     libucrt:ioinit.obj
 0002:000212f0       $unwind$frame_free_buffers 00000001800912f0     libmpg123:frame.obj
 0002:000212f0       $unwind$INT123_synth_4to1_8bit_m2s 00000001800912f0     libmpg123:synth_8bit.obj
 0002:000212f0       $unwind$frame_fixed_reset  00000001800912f0     libmpg123:frame.obj
 0002:000212f0       $unwind$mpg123_resize_string 00000001800912f0     libmpg123:stringbuf.obj
 0002:000212f0       $unwind$quant_compare      00000001800912f0     libmp3lame:quantize.obj
 0002:000212f0       $unwind$__acrt_FlsAlloc    00000001800912f0     libucrt:winapi_thunks.obj
 0002:000212f0       $unwind$INT123_frame_fill_toc 00000001800912f0     libmpg123:frame.obj
 0002:000212f0       $unwind$INT123_synth_1to1_m2s 00000001800912f0     libmpg123:synth.obj
 0002:000212f0       $unwind$__vcrt_FlsFree     00000001800912f0     libvcruntime:winapi_downlevel.obj
 0002:000212f0       $unwind$INT123_synth_2to1_m2s 00000001800912f0     libmpg123:synth.obj
 0002:000212f0       $unwind$INT123_synth_2to1_s32_m2s 00000001800912f0     libmpg123:synth_s32.obj
 0002:000212f0       $unwind$INT123_synth_2to1_8bit_m2s 00000001800912f0     libmpg123:synth_8bit.obj
 0002:000212f0       $unwind$?process_conversion_specifier@?$input_processor@DV?$string_input_adapter@D@__crt_stdio_input@@@__crt_stdio_input@@AEAA_NXZ 00000001800912f0     libucrt:input.obj
 0002:000212f0       $unwind$?ToDetailString@Value@v8@@QEBA?AV?$Local@VString@v8@@@2@XZ 00000001800912f0     bindings.obj
 0002:000212f0       $unwind$INT123_frame_buffers 00000001800912f0     libmpg123:frame.obj
 0002:000212f0       $unwind$?internal_isupper_l@@YA_NHQEAU__crt_locale_pointers@@@Z 00000001800912f0     libucrt:tolower_toupper.obj
 0002:000212f0       $unwind$??_Gbad_array_new_length@std@@UEAAPEAXI@Z 00000001800912f0     LIBCMT:throw_bad_alloc.obj
 0002:000212f0       $unwind$__acrt_invoke_user_matherr 00000001800912f0     libucrt:matherr.obj
 0002:000212f0       $unwind$??_Gbad_alloc@std@@UEAAPEAXI@Z 00000001800912f0     LIBCMT:throw_bad_alloc.obj
 0002:000212f0       $unwind$?ToInt32@Value@v8@@QEBA?AV?$Local@VInt32@v8@@@2@XZ 00000001800912f0     bindings.obj
 0002:000212f0       $unwind$??_Gexception@std@@UEAAPEAXI@Z 00000001800912f0     LIBCMT:throw_bad_alloc.obj
 0002:000212f0       $unwind$GetTitleGain       00000001800912f0     libmp3lame:gain_analysis.obj
 0002:000212f0       $unwind$_fclose_nolock     00000001800912f0     libucrt:fclose.obj
 0002:000212f0       $unwind$INT123_fi_resize   00000001800912f0     libmpg123:index.obj
 0002:000212f0       $unwind$INT123_synth_4to1_s32_m2s 00000001800912f0     libmpg123:synth_s32.obj
 0002:000212f0       $unwind$?ToUint32@Value@v8@@QEBA?AV?$Local@VUint32@v8@@@2@XZ 00000001800912f0     bindings.obj
 0002:000212f0       $unwind$INT123_synth_2to1_real_m2s 00000001800912f0     libmpg123:synth_real.obj
 0002:000212f0       $unwind$_close_nolock      00000001800912f0     libucrt:close.obj
 0002:000212f0       $unwind$?type_case_c_tchar@?$output_processor@DV?$string_output_adapter@D@__crt_stdio_output@@V?$standard_base@DV?$string_output_adapter@D@__crt_stdio_output@@@2@@__crt_stdio_output@@AEAA_ND@Z 00000001800912f0     libucrt:output.obj
 0002:000212f0       $unwind$?ToString@Value@v8@@QEBA?AV?$Local@VString@v8@@@2@XZ 00000001800912f0     bindings.obj
 0002:000212f0       $unwind$?DloadGetSRWLockFunctionPointers@@YAEXZ 00000001800912f0     DelayImp:delayhlp.obj
 0002:000212f0       $unwind$INT123_synth_1to1_8bit_m2s 00000001800912f0     libmpg123:synth_8bit.obj
 0002:000212f0       $unwind$?ToNumber@Value@v8@@QEBA?AV?$Local@VNumber@v8@@@2@XZ 00000001800912f0     bindings.obj
 0002:000212f0       $unwind$apply_preset       00000001800912f0     libmp3lame:presets.obj
 0002:000212f0       $unwind$INT123_synth_1to1_s32_m2s 00000001800912f0     libmpg123:synth_s32.obj
 0002:000212f0       $unwind$?ToBoolean@Value@v8@@QEBA?AV?$Local@VBoolean@v8@@@2@XZ 00000001800912f0     bindings.obj
 0002:000212f0       $unwind$??$common_initialize_environment_nolock@D@@YAHXZ 00000001800912f0     libucrt:environment_initialization.obj
 0002:000212f0       $unwind$add_id3_text       00000001800912f0     libmpg123:id3.obj
 0002:000212f0       $unwind$?replace_current_thread_locale_nolock@@YAXQEAU__acrt_ptd@@QEAU__crt_locale_data@@@Z 00000001800912f0     libucrt:per_thread_data.obj
 0002:000212f0       $unwind$INT123_synth_1to1_real_m2s 00000001800912f0     libmpg123:synth_real.obj
 0002:000212f0       $unwind$__acrt_FlsGetValue 00000001800912f0     libucrt:winapi_thunks.obj
 0002:000212f0       $unwind$?DloadAcquireSectionWriteAccess@@YAXXZ 00000001800912f0     DelayImp:delayhlp.obj
 0002:000212f0       $unwind$?try_cor_exit_process@@YAXI@Z 00000001800912f0     libucrt:exit.obj
 0002:000212f0       $unwind$INT123_frame_init_par 00000001800912f0     libmpg123:frame.obj
 0002:000212f0       $unwind$?type_case_c_tchar@?$output_processor@DV?$stream_output_adapter@D@__crt_stdio_output@@V?$standard_base@DV?$stream_output_adapter@D@__crt_stdio_output@@@2@@__crt_stdio_output@@AEAA_ND@Z 00000001800912f0     libucrt:output.obj
 0002:000212f0       $unwind$__vcrt_EventUnregister 00000001800912f0     libvcruntime:winapi_downlevel.obj
 0002:000212f0       $unwind$feed_init          00000001800912f0     libmpg123:readers.obj
 0002:000212f0       $unwind$__acrt_getptd      00000001800912f0     libucrt:per_thread_data.obj
 0002:000212f0       $unwind$INT123_synth_4to1_real_m2s 00000001800912f0     libmpg123:synth_real.obj
 0002:000212f0       $unwind$_realloc_base      00000001800912f0     libucrt:realloc_base.obj
 0002:000212f0       $unwind$INT123_frame_buffers_reset 00000001800912f0     libmpg123:frame.obj
 0002:000212f0       $unwind$?process_floating_point_specifier@?$input_processor@DV?$string_input_adapter@D@__crt_stdio_input@@@__crt_stdio_input@@AEAA_NXZ 00000001800912f0     libucrt:input.obj
 0002:000212f0       $unwind$__acrt_FlsFree     00000001800912f0     libucrt:winapi_thunks.obj
 0002:000212f0       $unwind$??0_LocaleUpdate@@QEAA@QEAU__crt_locale_pointers@@@Z 00000001800912f0     libucrt:stricmp.obj
 0002:000212f0       $unwind$INT123_synth_4to1_m2s 00000001800912f0     libmpg123:synth.obj
 0002:000212f0       $unwind$?ToInteger@Value@v8@@QEBA?AV?$Local@VInteger@v8@@@2@XZ 00000001800912f0     bindings.obj
 0002:000212f0       $unwind$__acrt_errno_map_os_error 00000001800912f0     libucrt:errno.obj
 0002:000212f0       $unwind$?process_state@?$input_processor@DV?$string_input_adapter@D@__crt_stdio_input@@@__crt_stdio_input@@AEAA_NXZ 00000001800912f0     libucrt:input.obj
 0002:000212f0       $unwind$_updatetlocinfoEx_nolock 00000001800912f0     libucrt:locale_refcounting.obj
 0002:000212f0       $unwind$__acrt_stdio_begin_temporary_buffering_nolock 00000001800912f0     libucrt:_sftbuf.obj
 0002:000212f0       $unwind$__vcrt_FlsAlloc    00000001800912f0     libvcruntime:winapi_downlevel.obj
 0002:000212f0       $unwind$_callnewh          00000001800912f0     libucrt:new_handler.obj
 0002:000212f0       $unwind$?write_integer@?$input_processor@DV?$string_input_adapter@D@__crt_stdio_input@@@__crt_stdio_input@@AEAA_N_K_N@Z 00000001800912f0     libucrt:input.obj
 0002:000212f0       $unwind$?force_decimal_point@__crt_stdio_output@@YAXPEADQEAU__crt_locale_pointers@@@Z 00000001800912f0     libucrt:output.obj
 0002:000212fc       $unwind$?destroy_fls@@YAXPEAX@Z 00000001800912fc     libucrt:per_thread_data.obj
 0002:000212fc       $unwind$?AddMessageListener@V8@v8@@SA_NP6AXV?$Local@VMessage@v8@@@2@V?$Local@VValue@v8@@@2@@Z1@Z 00000001800912fc     bindings.obj
 0002:000212fc       $unwind$_free_base         00000001800912fc     libucrt:free_base.obj
 0002:000212fc       $unwind$__acrt_locale_free_lc_time_if_unreferenced 00000001800912fc     libucrt:locale_refcounting.obj
 0002:000212fc       $unwind$__acrt_locale_free_numeric 00000001800912fc     libucrt:initnum.obj
 0002:00021304       $unwind$?type_case_s@?$output_processor@DV?$stream_output_adapter@D@__crt_stdio_output@@V?$standard_base@DV?$stream_output_adapter@D@__crt_stdio_output@@@2@@__crt_stdio_output@@AEAA_NXZ 0000000180091304     libucrt:output.obj
 0002:00021304       $unwind$vbrpsy_compute_fft_s 0000000180091304     libmp3lame:psymodel.obj
 0002:00021304       $unwind$__acrt_stdio_flush_and_write_narrow_nolock 0000000180091304     libucrt:_flsbuf.obj
 0002:00021304       $unwind$INT123_synth_ntom_real_m2s 0000000180091304     libmpg123:synth_real.obj
 0002:00021304       $unwind$memcpy_s           0000000180091304     libucrt:cfout.obj
 0002:00021304       $unwind$?type_case_Z@?$output_processor@DV?$stream_output_adapter@D@__crt_stdio_output@@V?$standard_base@DV?$stream_output_adapter@D@__crt_stdio_output@@@2@@__crt_stdio_output@@AEAA_NXZ 0000000180091304     libucrt:output.obj
 0002:00021304       $unwind$??R<lambda_ad1ced32f4ac17aa236e5ef05d6b3b7c>@@QEBAXXZ 0000000180091304     libucrt:mbctype.obj
 0002:00021304       $unwind$__vcrt_getptd_noexit 0000000180091304     libvcruntime:per_thread_data.obj
 0002:00021304       $unwind$?free_crt_array_internal@@YAXQEAPEBX_K@Z 0000000180091304     libucrt:inittime.obj
 0002:00021304       $unwind$lame_close         0000000180091304     libmp3lame:lame.obj
 0002:00021304       $unwind$?type_case_s@?$output_processor@DV?$string_output_adapter@D@__crt_stdio_output@@V?$standard_base@DV?$string_output_adapter@D@__crt_stdio_output@@@2@@__crt_stdio_output@@AEAA_NXZ 0000000180091304     libucrt:output.obj
 0002:00021304       $unwind$__acrt_execute_uninitializers 0000000180091304     libucrt:shared_initialization.obj
 0002:00021304       $unwind$?process_string_specifier@?$input_processor@DV?$string_input_adapter@D@__crt_stdio_input@@@__crt_stdio_input@@AEAA_NW4conversion_mode@2@@Z 0000000180091304     libucrt:input.obj
 0002:00021304       $unwind$?type_case_Z@?$output_processor@DV?$string_output_adapter@D@__crt_stdio_output@@V?$standard_base@DV?$string_output_adapter@D@__crt_stdio_output@@@2@@__crt_stdio_output@@AEAA_NXZ 0000000180091304     libucrt:output.obj
 0002:00021304       $unwind$_RTC_Terminate     0000000180091304     LIBCMT:_initsect_.obj
 0002:00021304       $unwind$__acrt_FlsSetValue 0000000180091304     libucrt:winapi_thunks.obj
 0002:00021304       $unwind$?TraceLoggingRegister@__vcrt_trace_logging_provider@@YAJPEBU_TlgProvider_t@1@PEBU_GUID@@P6AX1KE_K2PEAU_EVENT_FILTER_DESCRIPTOR@@PEAX@Z4@Z 0000000180091304     libvcruntime:telemetry.obj
 0002:00021304       $unwind$__acrt_stdio_flush_nolock 0000000180091304     libucrt:fflush.obj
 0002:00021304       $unwind$INT123_frame_gapless_realinit 0000000180091304     libmpg123:frame.obj
 0002:00021304       $unwind$INT123_synth_ntom_s32_m2s 0000000180091304     libmpg123:synth_s32.obj
 0002:00021304       $unwind$stream_back_bytes  0000000180091304     libmpg123:readers.obj
 0002:00021304       $unwind$memcpy_s           0000000180091304     libucrt:atof.obj
 0002:00021304       $unwind$INT123_synth_ntom_8bit_m2s 0000000180091304     libmpg123:synth_8bit.obj
 0002:00021304       $unwind$buffy_new          0000000180091304     libmpg123:readers.obj
 0002:00021304       $unwind$?SetCaptureStackTraceForUncaughtExceptions@V8@v8@@SAX_NHW4StackTraceOptions@StackTrace@2@@Z 0000000180091304     bindings.obj
 0002:00021304       $unwind$_exception_enabled 0000000180091304     libucrt:libm_error.obj
 0002:00021304       $unwind$__acrt_getptd_noexit 0000000180091304     libucrt:per_thread_data.obj
 0002:00021304       $unwind$??$common_lseek_nolock@J@@YAJHJH@Z 0000000180091304     libucrt:lseek.obj
 0002:00021304       $unwind$mpg123_id3         0000000180091304     libmpg123:libmpg123.obj
 0002:00021304       $unwind$?type_case_n@?$output_processor@DV?$stream_output_adapter@D@__crt_stdio_output@@V?$standard_base@DV?$stream_output_adapter@D@__crt_stdio_output@@@2@@__crt_stdio_output@@AEAA_NXZ 0000000180091304     libucrt:output.obj
 0002:00021304       $unwind$??$common_lseek_nolock@_J@@YA_JH_JH@Z 0000000180091304     libucrt:lseek.obj
 0002:00021304       $unwind$_initterm_e        0000000180091304     libucrt:initterm.obj
 0002:00021304       $unwind$?type_case_n@?$output_processor@DV?$string_output_adapter@D@__crt_stdio_output@@V?$standard_base@DV?$string_output_adapter@D@__crt_stdio_output@@@2@@__crt_stdio_output@@AEAA_NXZ 0000000180091304     libucrt:output.obj
 0002:00021304       $unwind$?AddMemoryAllocationCallback@V8@v8@@SAXP6AXW4ObjectSpace@2@W4AllocationAction@2@H@Z01@Z 0000000180091304     bindings.obj
 0002:00021304       $unwind$synth_stereo_wrap  0000000180091304     libmpg123:optimize.obj
 0002:00021304       $unwind$_DllMainCRTStartup 0000000180091304     LIBCMT:dll_dllmain.obj
 0002:00021304       $unwind$__acrt_LocaleNameToLCID 0000000180091304     libucrt:winapi_thunks.obj
 0002:00021304       $unwind$?advance@?$format_string_parser@D@__crt_stdio_input@@QEAA_NXZ 0000000180091304     libucrt:input.obj
 0002:00021304       $unwind$?scan_scanset_range@?$format_string_parser@D@__crt_stdio_input@@AEAA_NXZ 0000000180091304     libucrt:input.obj
 0002:00021304       $unwind$INT123_synth_ntom_m2s 0000000180091304     libmpg123:synth.obj
 0002:00021304       $unwind$?process@?$input_processor@DV?$string_input_adapter@D@__crt_stdio_input@@@__crt_stdio_input@@QEAAHXZ 0000000180091304     libucrt:input.obj
 0002:00021304       $unwind$_RTC_Initialize    0000000180091304     LIBCMT:_initsect_.obj
 0002:00021304       $unwind$__vcrt_FlsSetValue 0000000180091304     libvcruntime:winapi_downlevel.obj
 0002:00021314       $chain$0$??_EExternalOneByteStringResource@String@v8@@UEAAPEAXI@Z 0000000180091314     bindings.obj
 0002:00021314       $chain$0$??_EExternalStringResourceBase@String@v8@@UEAAPEAXI@Z 0000000180091314     bindings.obj
 0002:00021314       $chain$0$??_EExternalStringResource@String@v8@@UEAAPEAXI@Z 0000000180091314     bindings.obj
 0002:00021328       $chain$1$??_EExternalStringResource@String@v8@@UEAAPEAXI@Z 0000000180091328     bindings.obj
 0002:00021328       $chain$1$??_EExternalStringResourceBase@String@v8@@UEAAPEAXI@Z 0000000180091328     bindings.obj
 0002:00021328       $chain$1$??_EExternalOneByteStringResource@String@v8@@UEAAPEAXI@Z 0000000180091328     bindings.obj
 0002:00021338       $chain$0$??_EAllocator@ArrayBuffer@v8@@UEAAPEAXI@Z 0000000180091338     bindings.obj
 0002:0002134c       $chain$1$??_EAllocator@ArrayBuffer@v8@@UEAAPEAXI@Z 000000018009134c     bindings.obj
 0002:0002135c       $chain$0$??_EExternalOneByteStringResourceImpl@v8@@UEAAPEAXI@Z 000000018009135c     bindings.obj
 0002:00021370       $chain$1$??_EExternalOneByteStringResourceImpl@v8@@UEAAPEAXI@Z 0000000180091370     bindings.obj
 0002:00021380       $chain$0$??_EExtension@v8@@UEAAPEAXI@Z 0000000180091380     bindings.obj
 0002:00021394       $chain$1$??_EExtension@v8@@UEAAPEAXI@Z 0000000180091394     bindings.obj
 0002:000213a4       $chain$0$??_EPersistentHandleVisitor@v8@@UEAAPEAXI@Z 00000001800913a4     bindings.obj
 0002:000213a4       $chain$0$??_EExternalResourceVisitor@v8@@UEAAPEAXI@Z 00000001800913a4     bindings.obj
 0002:000213b8       $chain$1$??_EExternalResourceVisitor@v8@@UEAAPEAXI@Z 00000001800913b8     bindings.obj
 0002:000213b8       $chain$1$??_EPersistentHandleVisitor@v8@@UEAAPEAXI@Z 00000001800913b8     bindings.obj
 0002:000213c8       $unwind$?Initialize@nodelame@@YAXV?$Local@VObject@v8@@@v8@@@Z 00000001800913c8     bindings.obj
 0002:000213d0       $unwind$?FunctionCallbackWrapper@imp@Nan@@YAXAEBV?$FunctionCallbackInfo@VValue@v8@@@v8@@@Z 00000001800913d0     node_lame.obj
 0002:000213e0       $unwind$?New@?$Factory@VFunctionTemplate@v8@@@imp@Nan@@SA?AV?$Local@VFunctionTemplate@v8@@@v8@@P6AXAEBV?$FunctionCallbackInfo@VValue@v8@@@3@@ZV?$Local@VValue@v8@@@5@V?$Local@VSignature@v8@@@5@@Z 00000001800913e0     node_lame.obj
 0002:000213ec       $chain$0$?New@?$Factory@VFunctionTemplate@v8@@@imp@Nan@@SA?AV?$Local@VFunctionTemplate@v8@@@v8@@P6AXAEBV?$FunctionCallbackInfo@VValue@v8@@@3@@ZV?$Local@VValue@v8@@@5@V?$Local@VSignature@v8@@@5@@Z 00000001800913ec     node_lame.obj
 0002:00021400       $chain$1$?New@?$Factory@VFunctionTemplate@v8@@@imp@Nan@@SA?AV?$Local@VFunctionTemplate@v8@@@v8@@P6AXAEBV?$FunctionCallbackInfo@VValue@v8@@@3@@ZV?$Local@VValue@v8@@@5@V?$Local@VSignature@v8@@@5@@Z 0000000180091400     node_lame.obj
 0002:00021410       $unwind$?node_lame_close@nodelame@@YAXAEBV?$FunctionCallbackInfo@VValue@v8@@@Nan@@@Z 0000000180091410     node_lame.obj
 0002:00021410       $unwind$isspace            0000000180091410     libucrt:_ctype.obj
 0002:00021410       $unwind$?getSystemCP@@YAHH@Z 0000000180091410     libucrt:mbctype.obj
 0002:00021410       $unwind$isdigit            0000000180091410     libucrt:_ctype.obj
 0002:00021410       $unwind$?node_lame_print_internals@nodelame@@YAXAEBV?$FunctionCallbackInfo@VValue@v8@@@Nan@@@Z 0000000180091410     node_lame.obj
 0002:00021410       $unwind$?node_lame_print_config@nodelame@@YAXAEBV?$FunctionCallbackInfo@VValue@v8@@@Nan@@@Z 0000000180091410     node_lame.obj
 0002:00021410       $unwind$?_TlgWrite@__vcrt_trace_logging_provider@@YAJPEBU_TlgProvider_t@1@PEFBXPEBU_GUID@@2IPEAU_EVENT_DATA_DESCRIPTOR@@@Z 0000000180091410     libvcruntime:telemetry.obj
 0002:00021410       $unwind$_isleadbyte_l      0000000180091410     libucrt:_wctype.obj
 0002:00021418       $unwind$?node_lame_init@nodelame@@YAXAEBV?$FunctionCallbackInfo@VValue@v8@@@Nan@@@Z 0000000180091418     node_lame.obj
 0002:00021418       $unwind$?convert_hexadecimal_string_to_floating_type_common@__crt_strtox@@YA?AW4SLD_STATUS@@AEBUfloating_point_string@1@AEBVfloating_point_value@1@@Z 0000000180091418     libucrt:atof.obj
 0002:00021418       $unwind$INT123_frame_outbuffer 0000000180091418     libmpg123:frame.obj
 0002:00021424       $unwind$?node_lame_encode_buffer@nodelame@@YAXAEBV?$FunctionCallbackInfo@VValue@v8@@@Nan@@@Z 0000000180091424     node_lame.obj
 0002:0002143c       $unwind$?node_lame_encode_buffer_async@nodelame@@YAXPEAUuv_work_s@@@Z 000000018009143c     node_lame.obj
 0002:00021454       $unwind$?node_lame_encode_buffer_after@nodelame@@YAXPEAUuv_work_s@@@Z 0000000180091454     node_lame.obj
 0002:00021454       $unwind$?node_mpg123_feed_after@nodelame@@YAXPEAUuv_work_s@@@Z 0000000180091454     node_mpg123.obj
 0002:00021460       $unwind$?node_mpg123_feed@nodelame@@YAXAEBV?$FunctionCallbackInfo@VValue@v8@@@Nan@@@Z 0000000180091460     node_mpg123.obj
 0002:00021460       $unwind$?node_mpg123_read@nodelame@@YAXAEBV?$FunctionCallbackInfo@VValue@v8@@@Nan@@@Z 0000000180091460     node_mpg123.obj
 0002:00021460       $unwind$?node_lame_encode_flush_nogap@nodelame@@YAXAEBV?$FunctionCallbackInfo@VValue@v8@@@Nan@@@Z 0000000180091460     node_lame.obj
 0002:00021474       $unwind$?node_lame_get_id3v1_tag@nodelame@@YAXAEBV?$FunctionCallbackInfo@VValue@v8@@@Nan@@@Z 0000000180091474     node_lame.obj
 0002:00021474       $unwind$?node_lame_get_id3v2_tag@nodelame@@YAXAEBV?$FunctionCallbackInfo@VValue@v8@@@Nan@@@Z 0000000180091474     node_lame.obj
 0002:00021484       $unwind$?node_lame_get_error_protection@nodelame@@YAXAEBV?$FunctionCallbackInfo@VValue@v8@@@Nan@@@Z 0000000180091484     node_lame.obj
 0002:00021484       $unwind$?node_lame_get_highpassfreq@nodelame@@YAXAEBV?$FunctionCallbackInfo@VValue@v8@@@Nan@@@Z 0000000180091484     node_lame.obj
 0002:00021484       $unwind$?node_lame_get_mode@nodelame@@YAXAEBV?$FunctionCallbackInfo@VValue@v8@@@Nan@@@Z 0000000180091484     node_lame.obj
 0002:00021484       $unwind$?node_lame_get_brate@nodelame@@YAXAEBV?$FunctionCallbackInfo@VValue@v8@@@Nan@@@Z 0000000180091484     node_lame.obj
 0002:00021484       $unwind$?node_lame_get_scale@nodelame@@YAXAEBV?$FunctionCallbackInfo@VValue@v8@@@Nan@@@Z 0000000180091484     node_lame.obj
 0002:00021484       $unwind$?node_lame_get_highpasswidth@nodelame@@YAXAEBV?$FunctionCallbackInfo@VValue@v8@@@Nan@@@Z 0000000180091484     node_lame.obj
 0002:00021484       $unwind$?node_lame_get_lowpasswidth@nodelame@@YAXAEBV?$FunctionCallbackInfo@VValue@v8@@@Nan@@@Z 0000000180091484     node_lame.obj
 0002:00021484       $unwind$?node_lame_get_bWriteVbrTag@nodelame@@YAXAEBV?$FunctionCallbackInfo@VValue@v8@@@Nan@@@Z 0000000180091484     node_lame.obj
 0002:00021484       $unwind$?node_lame_get_scale_left@nodelame@@YAXAEBV?$FunctionCallbackInfo@VValue@v8@@@Nan@@@Z 0000000180091484     node_lame.obj
 0002:00021484       $unwind$?node_lame_get_compression_ratio@nodelame@@YAXAEBV?$FunctionCallbackInfo@VValue@v8@@@Nan@@@Z 0000000180091484     node_lame.obj
 0002:00021484       $unwind$?node_lame_get_copyright@nodelame@@YAXAEBV?$FunctionCallbackInfo@VValue@v8@@@Nan@@@Z 0000000180091484     node_lame.obj
 0002:00021484       $unwind$?node_lame_get_quality@nodelame@@YAXAEBV?$FunctionCallbackInfo@VValue@v8@@@Nan@@@Z 0000000180091484     node_lame.obj
 0002:00021484       $unwind$?node_lame_get_disable_reservoir@nodelame@@YAXAEBV?$FunctionCallbackInfo@VValue@v8@@@Nan@@@Z 0000000180091484     node_lame.obj
 0002:00021484       $unwind$?node_lame_get_analysis@nodelame@@YAXAEBV?$FunctionCallbackInfo@VValue@v8@@@Nan@@@Z 0000000180091484     node_lame.obj
 0002:00021484       $unwind$?node_lame_init_params@nodelame@@YAXAEBV?$FunctionCallbackInfo@VValue@v8@@@Nan@@@Z 0000000180091484     node_lame.obj
 0002:00021484       $unwind$?node_lame_get_num_samples@nodelame@@YAXAEBV?$FunctionCallbackInfo@VValue@v8@@@Nan@@@Z 0000000180091484     node_lame.obj
 0002:00021484       $unwind$?node_lame_get_VBR_hard_min@nodelame@@YAXAEBV?$FunctionCallbackInfo@VValue@v8@@@Nan@@@Z 0000000180091484     node_lame.obj
 0002:00021484       $unwind$?node_lame_get_extension@nodelame@@YAXAEBV?$FunctionCallbackInfo@VValue@v8@@@Nan@@@Z 0000000180091484     node_lame.obj
 0002:00021484       $unwind$?node_lame_get_in_samplerate@nodelame@@YAXAEBV?$FunctionCallbackInfo@VValue@v8@@@Nan@@@Z 0000000180091484     node_lame.obj
 0002:00021484       $unwind$?node_mpg123_outblock@nodelame@@YAXAEBV?$FunctionCallbackInfo@VValue@v8@@@Nan@@@Z 0000000180091484     node_mpg123.obj
 0002:00021484       $unwind$?node_lame_get_VBR_max_bitrate_kbps@nodelame@@YAXAEBV?$FunctionCallbackInfo@VValue@v8@@@Nan@@@Z 0000000180091484     node_lame.obj
 0002:00021484       $unwind$?node_mpg123_framepos@nodelame@@YAXAEBV?$FunctionCallbackInfo@VValue@v8@@@Nan@@@Z 0000000180091484     node_mpg123.obj
 0002:00021484       $unwind$?node_mpg123_tell@nodelame@@YAXAEBV?$FunctionCallbackInfo@VValue@v8@@@Nan@@@Z 0000000180091484     node_mpg123.obj
 0002:00021484       $unwind$?node_lame_get_VBR_min_bitrate_kbps@nodelame@@YAXAEBV?$FunctionCallbackInfo@VValue@v8@@@Nan@@@Z 0000000180091484     node_lame.obj
 0002:00021484       $unwind$?node_mpg123_tellframe@nodelame@@YAXAEBV?$FunctionCallbackInfo@VValue@v8@@@Nan@@@Z 0000000180091484     node_mpg123.obj
 0002:00021484       $unwind$?node_mpg123_tell_stream@nodelame@@YAXAEBV?$FunctionCallbackInfo@VValue@v8@@@Nan@@@Z 0000000180091484     node_mpg123.obj
 0002:00021484       $unwind$?node_lame_get_out_samplerate@nodelame@@YAXAEBV?$FunctionCallbackInfo@VValue@v8@@@Nan@@@Z 0000000180091484     node_lame.obj
 0002:00021484       $unwind$?node_lame_get_quant_comp@nodelame@@YAXAEBV?$FunctionCallbackInfo@VValue@v8@@@Nan@@@Z 0000000180091484     node_lame.obj
 0002:00021484       $unwind$?node_lame_get_strict_ISO@nodelame@@YAXAEBV?$FunctionCallbackInfo@VValue@v8@@@Nan@@@Z 0000000180091484     node_lame.obj
 0002:00021484       $unwind$?node_lame_get_VBR_mean_bitrate_kbps@nodelame@@YAXAEBV?$FunctionCallbackInfo@VValue@v8@@@Nan@@@Z 0000000180091484     node_lame.obj
 0002:00021484       $unwind$?node_lame_get_num_channels@nodelame@@YAXAEBV?$FunctionCallbackInfo@VValue@v8@@@Nan@@@Z 0000000180091484     node_lame.obj
 0002:00021484       $unwind$?node_lame_get_lowpassfreq@nodelame@@YAXAEBV?$FunctionCallbackInfo@VValue@v8@@@Nan@@@Z 0000000180091484     node_lame.obj
 0002:00021484       $unwind$?node_lame_get_VBR_quality@nodelame@@YAXAEBV?$FunctionCallbackInfo@VValue@v8@@@Nan@@@Z 0000000180091484     node_lame.obj
 0002:00021484       $unwind$?node_lame_set_VBR_q@nodelame@@YAXAEBV?$FunctionCallbackInfo@VValue@v8@@@Nan@@@Z 0000000180091484     node_lame.obj
 0002:00021484       $unwind$?node_lame_get_VBR_q@nodelame@@YAXAEBV?$FunctionCallbackInfo@VValue@v8@@@Nan@@@Z 0000000180091484     node_lame.obj
 0002:00021484       $unwind$?node_lame_get_scale_right@nodelame@@YAXAEBV?$FunctionCallbackInfo@VValue@v8@@@Nan@@@Z 0000000180091484     node_lame.obj
 0002:00021484       $unwind$?node_lame_get_quant_comp_short@nodelame@@YAXAEBV?$FunctionCallbackInfo@VValue@v8@@@Nan@@@Z 0000000180091484     node_lame.obj
 0002:00021484       $unwind$?node_lame_get_VBR@nodelame@@YAXAEBV?$FunctionCallbackInfo@VValue@v8@@@Nan@@@Z 0000000180091484     node_lame.obj
 0002:00021484       $unwind$?node_lame_get_exp_nspsytune@nodelame@@YAXAEBV?$FunctionCallbackInfo@VValue@v8@@@Nan@@@Z 0000000180091484     node_lame.obj
 0002:00021484       $unwind$?node_lame_get_original@nodelame@@YAXAEBV?$FunctionCallbackInfo@VValue@v8@@@Nan@@@Z 0000000180091484     node_lame.obj
 0002:00021494       $unwind$?node_lame_bitrates@nodelame@@YAXAEBV?$FunctionCallbackInfo@VValue@v8@@@Nan@@@Z 0000000180091494     node_lame.obj
 0002:00021494       $unwind$?node_lame_samplerates@nodelame@@YAXAEBV?$FunctionCallbackInfo@VValue@v8@@@Nan@@@Z 0000000180091494     node_lame.obj
 0002:000214ac       $unwind$?node_lame_set_quant_comp_short@nodelame@@YAXAEBV?$FunctionCallbackInfo@VValue@v8@@@Nan@@@Z 00000001800914ac     node_lame.obj
 0002:000214ac       $unwind$?node_lame_set_scale_right@nodelame@@YAXAEBV?$FunctionCallbackInfo@VValue@v8@@@Nan@@@Z 00000001800914ac     node_lame.obj
 0002:000214ac       $unwind$?node_lame_set_VBR@nodelame@@YAXAEBV?$FunctionCallbackInfo@VValue@v8@@@Nan@@@Z 00000001800914ac     node_lame.obj
 0002:000214ac       $unwind$?node_lame_set_scale@nodelame@@YAXAEBV?$FunctionCallbackInfo@VValue@v8@@@Nan@@@Z 00000001800914ac     node_lame.obj
 0002:000214ac       $unwind$?node_lame_set_out_samplerate@nodelame@@YAXAEBV?$FunctionCallbackInfo@VValue@v8@@@Nan@@@Z 00000001800914ac     node_lame.obj
 0002:000214ac       $unwind$?node_lame_set_VBR_quality@nodelame@@YAXAEBV?$FunctionCallbackInfo@VValue@v8@@@Nan@@@Z 00000001800914ac     node_lame.obj
 0002:000214ac       $unwind$?node_lame_set_scale_left@nodelame@@YAXAEBV?$FunctionCallbackInfo@VValue@v8@@@Nan@@@Z 00000001800914ac     node_lame.obj
 0002:000214ac       $unwind$?node_lame_set_analysis@nodelame@@YAXAEBV?$FunctionCallbackInfo@VValue@v8@@@Nan@@@Z 00000001800914ac     node_lame.obj
 0002:000214ac       $unwind$?node_lame_set_VBR_mean_bitrate_kbps@nodelame@@YAXAEBV?$FunctionCallbackInfo@VValue@v8@@@Nan@@@Z 00000001800914ac     node_lame.obj
 0002:000214ac       $unwind$?node_lame_set_VBR_min_bitrate_kbps@nodelame@@YAXAEBV?$FunctionCallbackInfo@VValue@v8@@@Nan@@@Z 00000001800914ac     node_lame.obj
 0002:000214ac       $unwind$?node_lame_set_VBR_max_bitrate_kbps@nodelame@@YAXAEBV?$FunctionCallbackInfo@VValue@v8@@@Nan@@@Z 00000001800914ac     node_lame.obj
 0002:000214ac       $unwind$?node_lame_set_disable_reservoir@nodelame@@YAXAEBV?$FunctionCallbackInfo@VValue@v8@@@Nan@@@Z 00000001800914ac     node_lame.obj
 0002:000214ac       $unwind$?node_lame_set_num_samples@nodelame@@YAXAEBV?$FunctionCallbackInfo@VValue@v8@@@Nan@@@Z 00000001800914ac     node_lame.obj
 0002:000214ac       $unwind$?node_lame_set_in_samplerate@nodelame@@YAXAEBV?$FunctionCallbackInfo@VValue@v8@@@Nan@@@Z 00000001800914ac     node_lame.obj
 0002:000214ac       $unwind$?node_lame_set_exp_nspsytune@nodelame@@YAXAEBV?$FunctionCallbackInfo@VValue@v8@@@Nan@@@Z 00000001800914ac     node_lame.obj
 0002:000214ac       $unwind$?node_lame_set_VBR_hard_min@nodelame@@YAXAEBV?$FunctionCallbackInfo@VValue@v8@@@Nan@@@Z 00000001800914ac     node_lame.obj
 0002:000214ac       $unwind$?node_lame_set_lowpassfreq@nodelame@@YAXAEBV?$FunctionCallbackInfo@VValue@v8@@@Nan@@@Z 00000001800914ac     node_lame.obj
 0002:000214ac       $unwind$?node_lame_set_lowpasswidth@nodelame@@YAXAEBV?$FunctionCallbackInfo@VValue@v8@@@Nan@@@Z 00000001800914ac     node_lame.obj
 0002:000214ac       $unwind$?node_lame_set_highpassfreq@nodelame@@YAXAEBV?$FunctionCallbackInfo@VValue@v8@@@Nan@@@Z 00000001800914ac     node_lame.obj
 0002:000214ac       $unwind$?node_lame_set_strict_ISO@nodelame@@YAXAEBV?$FunctionCallbackInfo@VValue@v8@@@Nan@@@Z 00000001800914ac     node_lame.obj
 0002:000214ac       $unwind$?node_lame_set_bWriteVbrTag@nodelame@@YAXAEBV?$FunctionCallbackInfo@VValue@v8@@@Nan@@@Z 00000001800914ac     node_lame.obj
 0002:000214ac       $unwind$?node_lame_set_highpasswidth@nodelame@@YAXAEBV?$FunctionCallbackInfo@VValue@v8@@@Nan@@@Z 00000001800914ac     node_lame.obj
 0002:000214ac       $unwind$?node_lame_set_quality@nodelame@@YAXAEBV?$FunctionCallbackInfo@VValue@v8@@@Nan@@@Z 00000001800914ac     node_lame.obj
 0002:000214ac       $unwind$?node_lame_set_extension@nodelame@@YAXAEBV?$FunctionCallbackInfo@VValue@v8@@@Nan@@@Z 00000001800914ac     node_lame.obj
 0002:000214ac       $unwind$?node_lame_set_mode@nodelame@@YAXAEBV?$FunctionCallbackInfo@VValue@v8@@@Nan@@@Z 00000001800914ac     node_lame.obj
 0002:000214ac       $unwind$?node_lame_set_error_protection@nodelame@@YAXAEBV?$FunctionCallbackInfo@VValue@v8@@@Nan@@@Z 00000001800914ac     node_lame.obj
 0002:000214ac       $unwind$?node_lame_set_brate@nodelame@@YAXAEBV?$FunctionCallbackInfo@VValue@v8@@@Nan@@@Z 00000001800914ac     node_lame.obj
 0002:000214ac       $unwind$?node_lame_set_num_channels@nodelame@@YAXAEBV?$FunctionCallbackInfo@VValue@v8@@@Nan@@@Z 00000001800914ac     node_lame.obj
 0002:000214ac       $unwind$?node_lame_set_original@nodelame@@YAXAEBV?$FunctionCallbackInfo@VValue@v8@@@Nan@@@Z 00000001800914ac     node_lame.obj
 0002:000214ac       $unwind$?node_lame_set_compression_ratio@nodelame@@YAXAEBV?$FunctionCallbackInfo@VValue@v8@@@Nan@@@Z 00000001800914ac     node_lame.obj
 0002:000214ac       $unwind$?node_lame_set_quant_comp@nodelame@@YAXAEBV?$FunctionCallbackInfo@VValue@v8@@@Nan@@@Z 00000001800914ac     node_lame.obj
 0002:000214ac       $unwind$?node_lame_set_copyright@nodelame@@YAXAEBV?$FunctionCallbackInfo@VValue@v8@@@Nan@@@Z 00000001800914ac     node_lame.obj
 0002:000214c0       $unwind$?InitLame@nodelame@@YAXV?$Local@VObject@v8@@@v8@@@Z 00000001800914c0     node_lame.obj
 0002:000214d0       $unwind$?New@?$IntegerFactory@VInteger@v8@@@imp@Nan@@SA?AV?$Local@VInteger@v8@@@v8@@H@Z 00000001800914d0     node_lame.obj
 0002:000214d0       $unwind$__acrt_is_packaged_app 00000001800914d0     libucrt:winapi_thunks.obj
 0002:000214d0       $unwind$get_fileinfo       00000001800914d0     libmpg123:readers.obj
 0002:000214dc       $unwind$?node_mpg123_init@nodelame@@YAXAEBV?$FunctionCallbackInfo@VValue@v8@@@Nan@@@Z 00000001800914dc     node_mpg123.obj
 0002:000214e8       $unwind$?node_mpg123_new@nodelame@@YAXAEBV?$FunctionCallbackInfo@VValue@v8@@@Nan@@@Z 00000001800914e8     node_mpg123.obj
 0002:000214f4       $unwind$?type_case_a@?$output_processor@DV?$string_output_adapter@D@__crt_stdio_output@@V?$standard_base@DV?$string_output_adapter@D@__crt_stdio_output@@@2@@__crt_stdio_output@@AEAA_NXZ 00000001800914f4     libucrt:output.obj
 0002:000214f4       $unwind$?type_case_a@?$output_processor@DV?$stream_output_adapter@D@__crt_stdio_output@@V?$standard_base@DV?$stream_output_adapter@D@__crt_stdio_output@@@2@@__crt_stdio_output@@AEAA_NXZ 00000001800914f4     libucrt:output.obj
 0002:000214f4       $unwind$?node_mpg123_current_decoder@nodelame@@YAXAEBV?$FunctionCallbackInfo@VValue@v8@@@Nan@@@Z 00000001800914f4     node_mpg123.obj
 0002:00021500       $unwind$?node_mpg123_decoders@nodelame@@YAXAEBV?$FunctionCallbackInfo@VValue@v8@@@Nan@@@Z 0000000180091500     node_mpg123.obj
 0002:00021500       $unwind$_sincos_special    0000000180091500     libucrt:sincos_special.obj
 0002:00021500       $unwind$?node_mpg123_supported_decoders@nodelame@@YAXAEBV?$FunctionCallbackInfo@VValue@v8@@@Nan@@@Z 0000000180091500     node_mpg123.obj
 0002:00021508       $chain$2$?node_mpg123_decoders@nodelame@@YAXAEBV?$FunctionCallbackInfo@VValue@v8@@@Nan@@@Z 0000000180091508     node_mpg123.obj
 0002:00021508       $chain$2$?node_mpg123_supported_decoders@nodelame@@YAXAEBV?$FunctionCallbackInfo@VValue@v8@@@Nan@@@Z 0000000180091508     node_mpg123.obj
 0002:00021524       $chain$4$?node_mpg123_decoders@nodelame@@YAXAEBV?$FunctionCallbackInfo@VValue@v8@@@Nan@@@Z 0000000180091524     node_mpg123.obj
 0002:00021524       $chain$4$?node_mpg123_supported_decoders@nodelame@@YAXAEBV?$FunctionCallbackInfo@VValue@v8@@@Nan@@@Z 0000000180091524     node_mpg123.obj
 0002:0002153c       $chain$5$?node_mpg123_decoders@nodelame@@YAXAEBV?$FunctionCallbackInfo@VValue@v8@@@Nan@@@Z 000000018009153c     node_mpg123.obj
 0002:0002153c       $chain$5$?node_mpg123_supported_decoders@nodelame@@YAXAEBV?$FunctionCallbackInfo@VValue@v8@@@Nan@@@Z 000000018009153c     node_mpg123.obj
 0002:0002154c       $chain$6$?node_mpg123_supported_decoders@nodelame@@YAXAEBV?$FunctionCallbackInfo@VValue@v8@@@Nan@@@Z 000000018009154c     node_mpg123.obj
 0002:0002154c       $chain$6$?node_mpg123_decoders@nodelame@@YAXAEBV?$FunctionCallbackInfo@VValue@v8@@@Nan@@@Z 000000018009154c     node_mpg123.obj
 0002:0002155c       $unwind$?node_mpg123_open_feed@nodelame@@YAXAEBV?$FunctionCallbackInfo@VValue@v8@@@Nan@@@Z 000000018009155c     node_mpg123.obj
 0002:0002155c       $unwind$capture_current_context 000000018009155c     LIBCMT:gs_report.obj
 0002:00021568       $unwind$?node_mpg123_getformat@nodelame@@YAXAEBV?$FunctionCallbackInfo@VValue@v8@@@Nan@@@Z 0000000180091568     node_mpg123.obj
 0002:00021574       $chain$1$?node_mpg123_getformat@nodelame@@YAXAEBV?$FunctionCallbackInfo@VValue@v8@@@Nan@@@Z 0000000180091574     node_mpg123.obj
 0002:0002158c       $chain$3$?node_mpg123_getformat@nodelame@@YAXAEBV?$FunctionCallbackInfo@VValue@v8@@@Nan@@@Z 000000018009158c     node_mpg123.obj
 0002:000215a4       $chain$7$?node_mpg123_getformat@nodelame@@YAXAEBV?$FunctionCallbackInfo@VValue@v8@@@Nan@@@Z 00000001800915a4     node_mpg123.obj
 0002:000215c4       $chain$8$?node_mpg123_getformat@nodelame@@YAXAEBV?$FunctionCallbackInfo@VValue@v8@@@Nan@@@Z 00000001800915c4     node_mpg123.obj
 0002:000215e0       $chain$9$?node_mpg123_getformat@nodelame@@YAXAEBV?$FunctionCallbackInfo@VValue@v8@@@Nan@@@Z 00000001800915e0     node_mpg123.obj
 0002:000215f4       $chain$10$?node_mpg123_getformat@nodelame@@YAXAEBV?$FunctionCallbackInfo@VValue@v8@@@Nan@@@Z 00000001800915f4     node_mpg123.obj
 0002:00021604       $chain$11$?node_mpg123_getformat@nodelame@@YAXAEBV?$FunctionCallbackInfo@VValue@v8@@@Nan@@@Z 0000000180091604     node_mpg123.obj
 0002:00021614       $unwind$?node_mpg123_safe_buffer@nodelame@@YAXAEBV?$FunctionCallbackInfo@VValue@v8@@@Nan@@@Z 0000000180091614     node_mpg123.obj
 0002:00021620       $unwind$?node_mpg123_read_after@nodelame@@YAXPEAUuv_work_s@@@Z 0000000180091620     node_mpg123.obj
 0002:00021640       $unwind$_stricmp_l         0000000180091640     libucrt:stricmp.obj
 0002:00021640       $unwind$?node_mpg123_id3@nodelame@@YAXAEBV?$FunctionCallbackInfo@VValue@v8@@@Nan@@@Z 0000000180091640     node_mpg123.obj
 0002:00021650       $unwind$?node_mpg123_id3_after@nodelame@@YAXPEAUuv_work_s@@@Z 0000000180091650     node_mpg123.obj
 0002:0002165c       $chain$0$?node_mpg123_id3_after@nodelame@@YAXPEAUuv_work_s@@@Z 000000018009165c     node_mpg123.obj
 0002:00021670       $chain$3$?node_mpg123_id3_after@nodelame@@YAXPEAUuv_work_s@@@Z 0000000180091670     node_mpg123.obj
 0002:0002168c       $chain$5$?node_mpg123_id3_after@nodelame@@YAXPEAUuv_work_s@@@Z 000000018009168c     node_mpg123.obj
 0002:000216a4       $chain$6$?node_mpg123_id3_after@nodelame@@YAXPEAUuv_work_s@@@Z 00000001800916a4     node_mpg123.obj
 0002:000216b8       $chain$7$?node_mpg123_id3_after@nodelame@@YAXPEAUuv_work_s@@@Z 00000001800916b8     node_mpg123.obj
 0002:000216c8       $chain$8$?node_mpg123_id3_after@nodelame@@YAXPEAUuv_work_s@@@Z 00000001800916c8     node_mpg123.obj
 0002:000216d8       $chain$9$?node_mpg123_id3_after@nodelame@@YAXPEAUuv_work_s@@@Z 00000001800916d8     node_mpg123.obj
 0002:000216f0       $chain$10$?node_mpg123_id3_after@nodelame@@YAXPEAUuv_work_s@@@Z 00000001800916f0     node_mpg123.obj
 0002:00021708       $chain$11$?node_mpg123_id3_after@nodelame@@YAXPEAUuv_work_s@@@Z 0000000180091708     node_mpg123.obj
 0002:00021718       $unwind$?InitMPG123@nodelame@@YAXV?$Local@VObject@v8@@@v8@@@Z 0000000180091718     node_mpg123.obj
 0002:00021728       $unwind$lame_init_params_ppflt 0000000180091728     libmp3lame:lame.obj
 0002:00021758       $unwind$optimum_samplefreq 0000000180091758     libmp3lame:lame.obj
 0002:0002176c       $unwind$lame_init_params   000000018009176c     libmp3lame:lame.obj
 0002:00021788       $chain$4$lame_init_params  0000000180091788     libmp3lame:lame.obj
 0002:000217ac       $chain$5$lame_init_params  00000001800917ac     libmp3lame:lame.obj
 0002:000217bc       $unwind$lame_print_config  00000001800917bc     libmp3lame:lame.obj
 0002:000217dc       $unwind$lame_print_internals 00000001800917dc     libmp3lame:lame.obj
 0002:000217f8       $unwind$update_inbuffer_size 00000001800917f8     libmp3lame:lame.obj
 0002:000217f8       $unwind$mpg123_tell        00000001800917f8     libmpg123:libmpg123.obj
 0002:000217f8       $unwind$id3v2_add_latin1   00000001800917f8     libmp3lame:id3tag.obj
 0002:00021800       $chain$0$update_inbuffer_size 0000000180091800     libmp3lame:lame.obj
 0002:00021814       $chain$1$update_inbuffer_size 0000000180091814     libmp3lame:lame.obj
 0002:00021828       $chain$2$update_inbuffer_size 0000000180091828     libmp3lame:lame.obj
 0002:00021838       $chain$3$update_inbuffer_size 0000000180091838     libmp3lame:lame.obj
 0002:00021848       $unwind$lame_encode_buffer_sample_t 0000000180091848     libmp3lame:lame.obj
 0002:00021858       $chain$1$lame_encode_buffer_sample_t 0000000180091858     libmp3lame:lame.obj
 0002:00021870       $chain$6$lame_encode_buffer_sample_t 0000000180091870     libmp3lame:lame.obj
 0002:00021894       $chain$7$lame_encode_buffer_sample_t 0000000180091894     libmp3lame:lame.obj
 0002:000218a4       $chain$9$lame_encode_buffer_sample_t 00000001800918a4     libmp3lame:lame.obj
 0002:000218d0       $unwind$lame_copy_inbuffer 00000001800918d0     libmp3lame:lame.obj
 0002:000218f0       $unwind$lame_encode_buffer_template 00000001800918f0     libmp3lame:lame.obj
 0002:000218f0       $unwind$_strnicmp_l        00000001800918f0     libucrt:strnicmp.obj
 0002:00021904       $unwind$lame_encode_flush_nogap 0000000180091904     libmp3lame:lame.obj
 0002:00021910       $chain$0$lame_encode_flush_nogap 0000000180091910     libmp3lame:lame.obj
 0002:00021924       $chain$2$lame_encode_flush_nogap 0000000180091924     libmp3lame:lame.obj
 0002:00021938       $chain$3$lame_encode_flush_nogap 0000000180091938     libmp3lame:lame.obj
 0002:00021948       $unwind$fprintf            0000000180091948     libmpg123:libmpg123.obj
 0002:00021948       $unwind$sscanf             0000000180091948     libmpg123:parse.obj
 0002:00021948       $unwind$sprintf            0000000180091948     libmp3lame:id3tag.obj
 0002:00021954       $unwind$id3v2AddAudioDuration 0000000180091954     libmp3lame:id3tag.obj
 0002:00021968       $chain$0$id3v2AddAudioDuration 0000000180091968     libmp3lame:id3tag.obj
 0002:0002197c       $chain$1$id3v2AddAudioDuration 000000018009197c     libmp3lame:id3tag.obj
 0002:00021990       $chain$2$id3v2AddAudioDuration 0000000180091990     libmp3lame:id3tag.obj
 0002:000219a0       $chain$3$id3v2AddAudioDuration 00000001800919a0     libmp3lame:id3tag.obj
 0002:000219b0       $unwind$local_strdup       00000001800919b0     libmp3lame:id3tag.obj
 0002:000219bc       $chain$0$local_strdup      00000001800919bc     libmp3lame:id3tag.obj
 0002:000219d0       $chain$2$local_strdup      00000001800919d0     libmp3lame:id3tag.obj
 0002:000219e4       $chain$0$id3v2_add_latin1  00000001800919e4     libmp3lame:id3tag.obj
 0002:000219f8       $chain$2$id3v2_add_latin1  00000001800919f8     libmp3lame:id3tag.obj
 0002:00021a0c       $chain$3$id3v2_add_latin1  0000000180091a0c     libmp3lame:id3tag.obj
 0002:00021a1c       $unwind$set_frame_comment  0000000180091a1c     libmp3lame:id3tag.obj
 0002:00021a1c       $unwind$writeLoBytes       0000000180091a1c     libmp3lame:id3tag.obj
 0002:00021a1c       $unwind$set_frame_custom2  0000000180091a1c     libmp3lame:id3tag.obj
 0002:00021a1c       $unwind$INT123_ntom_val    0000000180091a1c     libmpg123:ntom.obj
 0002:00021a1c       $unwind$updateStats        0000000180091a1c     libmp3lame:encoder.obj
 0002:00021a1c       $unwind$vbrpsy_skip_masking_s 0000000180091a1c     libmp3lame:psymodel.obj
 0002:00021a1c       $unwind$get_framebits      0000000180091a1c     libmp3lame:quantize.obj
 0002:00021a24       $chain$0$writeLoBytes      0000000180091a24     libmp3lame:id3tag.obj
 0002:00021a38       $chain$1$writeLoBytes      0000000180091a38     libmp3lame:id3tag.obj
 0002:00021a48       $chain$0$set_frame_comment 0000000180091a48     libmp3lame:id3tag.obj
 0002:00021a5c       $chain$2$set_frame_comment 0000000180091a5c     libmp3lame:id3tag.obj
 0002:00021a70       $chain$3$set_frame_comment 0000000180091a70     libmp3lame:id3tag.obj
 0002:00021a80       $chain$0$set_frame_custom2 0000000180091a80     libmp3lame:id3tag.obj
 0002:00021a94       $chain$2$set_frame_custom2 0000000180091a94     libmp3lame:id3tag.obj
 0002:00021aa8       $chain$3$set_frame_custom2 0000000180091aa8     libmp3lame:id3tag.obj
 0002:00021ab8       $chain$0$set_frame_wxxx    0000000180091ab8     libmp3lame:id3tag.obj
 0002:00021acc       $chain$1$set_frame_wxxx    0000000180091acc     libmp3lame:id3tag.obj
 0002:00021adc       $unwind$lame_get_id3v2_tag 0000000180091adc     libmp3lame:id3tag.obj
 0002:00021ae8       $chain$0$lame_get_id3v2_tag 0000000180091ae8     libmp3lame:id3tag.obj
 0002:00021afc       $chain$4$lame_get_id3v2_tag 0000000180091afc     libmp3lame:id3tag.obj
 0002:00021b18       $chain$5$lame_get_id3v2_tag 0000000180091b18     libmp3lame:id3tag.obj
 0002:00021b2c       $chain$6$lame_get_id3v2_tag 0000000180091b2c     libmp3lame:id3tag.obj
 0002:00021b3c       $unwind$id3tag_write_v2    0000000180091b3c     libmp3lame:id3tag.obj
 0002:00021b50       $unwind$lame_get_id3v1_tag 0000000180091b50     libmp3lame:id3tag.obj
 0002:00021b64       $chain$1$lame_get_id3v1_tag 0000000180091b64     libmp3lame:id3tag.obj
 0002:00021b78       $chain$2$lame_get_id3v1_tag 0000000180091b78     libmp3lame:id3tag.obj
 0002:00021b8c       $chain$3$lame_get_id3v1_tag 0000000180091b8c     libmp3lame:id3tag.obj
 0002:00021ba0       $chain$4$lame_get_id3v1_tag 0000000180091ba0     libmp3lame:id3tag.obj
 0002:00021bb0       $chain$5$lame_get_id3v1_tag 0000000180091bb0     libmp3lame:id3tag.obj
 0002:00021bc0       $chain$6$lame_get_id3v1_tag 0000000180091bc0     libmp3lame:id3tag.obj
 0002:00021bd0       $unwind$putbits2           0000000180091bd0     libmp3lame:bitstream.obj
 0002:00021be0       $unwind$drain_into_ancillary 0000000180091be0     libmp3lame:bitstream.obj
 0002:00021be0       $unwind$bc_forget          0000000180091be0     libmpg123:readers.obj
 0002:00021bec       $chain$1$drain_into_ancillary 0000000180091bec     libmp3lame:bitstream.obj
 0002:00021c04       $chain$2$drain_into_ancillary 0000000180091c04     libmp3lame:bitstream.obj
 0002:00021c14       $unwind$?DloadObtainSection@@YAPEAXPEAK0@Z 0000000180091c14     DelayImp:delayhlp.obj
 0002:00021c14       $unwind$writeheader        0000000180091c14     libmp3lame:bitstream.obj
 0002:00021c14       $unwind$INT123_make_decode_tables 0000000180091c14     libmpg123:tabinit.obj
 0002:00021c14       $unwind$huffman_init       0000000180091c14     libmp3lame:takehiro.obj
 0002:00021c14       $unwind$cap_fit            0000000180091c14     libmpg123:format.obj
 0002:00021c14       $unwind$count_bit_ESC      0000000180091c14     libmp3lame:takehiro.obj
 0002:00021c24       $unwind$encodeSideInfo2    0000000180091c24     libmp3lame:bitstream.obj
 0002:00021c2c       $chain$2$encodeSideInfo2   0000000180091c2c     libmp3lame:bitstream.obj
 0002:00021c48       $chain$3$encodeSideInfo2   0000000180091c48     libmp3lame:bitstream.obj
 0002:00021c5c       $chain$6$encodeSideInfo2   0000000180091c5c     libmp3lame:bitstream.obj
 0002:00021c78       $chain$7$encodeSideInfo2   0000000180091c78     libmp3lame:bitstream.obj
 0002:00021c88       $chain$8$encodeSideInfo2   0000000180091c88     libmp3lame:bitstream.obj
 0002:00021c9c       $chain$9$encodeSideInfo2   0000000180091c9c     libmp3lame:bitstream.obj
 0002:00021cac       $unwind$huffman_coder_count1 0000000180091cac     libmp3lame:bitstream.obj
 0002:00021cc4       $chain$1$huffman_coder_count1 0000000180091cc4     libmp3lame:bitstream.obj
 0002:00021cdc       $chain$2$huffman_coder_count1 0000000180091cdc     libmp3lame:bitstream.obj
 0002:00021cec       $unwind$Huffmancode        0000000180091cec     libmp3lame:bitstream.obj
 0002:00021cf8       $chain$0$Huffmancode       0000000180091cf8     libmp3lame:bitstream.obj
 0002:00021d0c       $chain$5$Huffmancode       0000000180091d0c     libmp3lame:bitstream.obj
 0002:00021d30       $chain$6$Huffmancode       0000000180091d30     libmp3lame:bitstream.obj
 0002:00021d40       $chain$7$Huffmancode       0000000180091d40     libmp3lame:bitstream.obj
 0002:00021d50       $unwind$LongHuffmancodebits 0000000180091d50     libmp3lame:bitstream.obj
 0002:00021d50       $unwind$??$create_environment@D@@YAQEAPEADQEAD@Z 0000000180091d50     libucrt:environment_initialization.obj
 0002:00021d68       $unwind$writeMainData      0000000180091d68     libmp3lame:bitstream.obj
 0002:00021d68       $unwind$??$translate_text_mode_nolock@_W@@YAHHQEA_W_K@Z 0000000180091d68     libucrt:read.obj
 0002:00021d80       $unwind$add_dummy_byte     0000000180091d80     libmp3lame:bitstream.obj
 0002:00021d80       $unwind$count_bit_noESC_from2 0000000180091d80     libmp3lame:takehiro.obj
 0002:00021d80       $unwind$INT123_do_equalizer 0000000180091d80     libmpg123:equalizer.obj
 0002:00021d8c       $unwind$format_bitstream   0000000180091d8c     libmp3lame:bitstream.obj
 0002:00021d9c       $unwind$copy_buffer        0000000180091d9c     libmp3lame:bitstream.obj
 0002:00021d9c       $unwind$vbrpsy_compute_fft_l 0000000180091d9c     libmp3lame:psymodel.obj
 0002:00021db4       $unwind$apply_vbr_preset   0000000180091db4     libmp3lame:presets.obj
 0002:00021dec       $unwind$apply_abr_preset   0000000180091dec     libmp3lame:presets.obj
 0002:00021e10       $unwind$convert_partition2scalefac 0000000180091e10     libmp3lame:psymodel.obj
 0002:00021e2c       $unwind$convert_partition2scalefac_s 0000000180091e2c     libmp3lame:psymodel.obj
 0002:00021e44       $unwind$convert_partition2scalefac_l_to_s 0000000180091e44     libmp3lame:psymodel.obj
 0002:00021e58       $unwind$pecalc_s           0000000180091e58     libmp3lame:psymodel.obj
 0002:00021e74       $unwind$pecalc_l           0000000180091e74     libmp3lame:psymodel.obj
 0002:00021e90       $unwind$calc_energy        0000000180091e90     libmp3lame:psymodel.obj
 0002:00021ea4       $chain$0$calc_energy       0000000180091ea4     libmp3lame:psymodel.obj
 0002:00021eb8       $chain$1$calc_energy       0000000180091eb8     libmp3lame:psymodel.obj
 0002:00021ec8       $unwind$calc_mask_index_l  0000000180091ec8     libmp3lame:psymodel.obj
 0002:00021ed8       $chain$0$calc_mask_index_l 0000000180091ed8     libmp3lame:psymodel.obj
 0002:00021eec       $chain$1$calc_mask_index_l 0000000180091eec     libmp3lame:psymodel.obj
 0002:00021f00       $chain$2$calc_mask_index_l 0000000180091f00     libmp3lame:psymodel.obj
 0002:00021f10       $chain$3$calc_mask_index_l 0000000180091f10     libmp3lame:psymodel.obj
 0002:00021f20       $unwind$vbrpsy_attack_detection 0000000180091f20     libmp3lame:psymodel.obj
 0002:00021f48       $chain$6$vbrpsy_attack_detection 0000000180091f48     libmp3lame:psymodel.obj
 0002:00021f74       $chain$7$vbrpsy_attack_detection 0000000180091f74     libmp3lame:psymodel.obj
 0002:00021f84       $chain$0$vbrpsy_skip_masking_s 0000000180091f84     libmp3lame:psymodel.obj
 0002:00021f98       $chain$1$vbrpsy_skip_masking_s 0000000180091f98     libmp3lame:psymodel.obj
 0002:00021fa8       $unwind$vbrpsy_calc_mask_index_s 0000000180091fa8     libmp3lame:psymodel.obj
 0002:00021fb4       $chain$1$vbrpsy_calc_mask_index_s 0000000180091fb4     libmp3lame:psymodel.obj
 0002:00021fcc       $chain$2$vbrpsy_calc_mask_index_s 0000000180091fcc     libmp3lame:psymodel.obj
 0002:00021fe0       $chain$3$vbrpsy_calc_mask_index_s 0000000180091fe0     libmp3lame:psymodel.obj
 0002:00021ff0       $chain$4$vbrpsy_calc_mask_index_s 0000000180091ff0     libmp3lame:psymodel.obj
 0002:00022000       $unwind$vbrpsy_compute_masking_s 0000000180092000     libmp3lame:psymodel.obj
 0002:00022014       $chain$5$vbrpsy_compute_masking_s 0000000180092014     libmp3lame:psymodel.obj
 0002:0002203c       $chain$6$vbrpsy_compute_masking_s 000000018009203c     libmp3lame:psymodel.obj
 0002:00022050       $chain$7$vbrpsy_compute_masking_s 0000000180092050     libmp3lame:psymodel.obj
 0002:00022060       $chain$8$vbrpsy_compute_masking_s 0000000180092060     libmp3lame:psymodel.obj
 0002:00022074       $chain$9$vbrpsy_compute_masking_s 0000000180092074     libmp3lame:psymodel.obj
 0002:00022084       $unwind$vbrpsy_compute_masking_l 0000000180092084     libmp3lame:psymodel.obj
 0002:0002209c       $chain$3$vbrpsy_compute_masking_l 000000018009209c     libmp3lame:psymodel.obj
 0002:000220bc       $chain$9$vbrpsy_compute_masking_l 00000001800920bc     libmp3lame:psymodel.obj
 0002:000220e4       $chain$10$vbrpsy_compute_masking_l 00000001800920e4     libmp3lame:psymodel.obj
 0002:000220f4       $chain$11$vbrpsy_compute_masking_l 00000001800920f4     libmp3lame:psymodel.obj
 0002:00022108       $chain$12$vbrpsy_compute_masking_l 0000000180092108     libmp3lame:psymodel.obj
 0002:00022118       $unwind$vbrpsy_compute_MS_thresholds 0000000180092118     libmp3lame:psymodel.obj
 0002:00022128       $chain$4$vbrpsy_compute_MS_thresholds 0000000180092128     libmp3lame:psymodel.obj
 0002:0002214c       $chain$5$vbrpsy_compute_MS_thresholds 000000018009214c     libmp3lame:psymodel.obj
 0002:0002215c       $unwind$L3psycho_anal_vbr  000000018009215c     libmp3lame:psymodel.obj
 0002:0002217c       $chain$1$L3psycho_anal_vbr 000000018009217c     libmp3lame:psymodel.obj
 0002:00022194       $chain$2$L3psycho_anal_vbr 0000000180092194     libmp3lame:psymodel.obj
 0002:000221a8       $chain$7$L3psycho_anal_vbr 00000001800921a8     libmp3lame:psymodel.obj
 0002:000221cc       $chain$8$L3psycho_anal_vbr 00000001800921cc     libmp3lame:psymodel.obj
 0002:000221dc       $chain$9$L3psycho_anal_vbr 00000001800921dc     libmp3lame:psymodel.obj
 0002:000221ec       $unwind$s3_func            00000001800921ec     libmp3lame:psymodel.obj
 0002:000221f8       $chain$1$s3_func           00000001800921f8     libmp3lame:psymodel.obj
 0002:00022210       $chain$2$s3_func           0000000180092210     libmp3lame:psymodel.obj
 0002:00022224       $unwind$init_numline       0000000180092224     libmp3lame:psymodel.obj
 0002:00022274       $unwind$compute_bark_values 0000000180092274     libmp3lame:psymodel.obj
 0002:0002228c       $chain$10$compute_bark_values 000000018009228c     libmp3lame:psymodel.obj
 0002:000222c8       $chain$11$compute_bark_values 00000001800922c8     libmp3lame:psymodel.obj
 0002:000222d8       $unwind$init_s3_values     00000001800922d8     libmp3lame:psymodel.obj
 0002:000222f0       $chain$4$init_s3_values    00000001800922f0     libmp3lame:psymodel.obj
 0002:00022314       $chain$6$init_s3_values    0000000180092314     libmp3lame:psymodel.obj
 0002:0002232c       $chain$7$init_s3_values    000000018009232c     libmp3lame:psymodel.obj
 0002:0002233c       $chain$8$init_s3_values    000000018009233c     libmp3lame:psymodel.obj
 0002:0002234c       $unwind$psymodel_init      000000018009234c     libmp3lame:psymodel.obj
 0002:0002236c       $chain$6$psymodel_init     000000018009236c     libmp3lame:psymodel.obj
 0002:00022398       $chain$12$psymodel_init    0000000180092398     libmp3lame:psymodel.obj
 0002:000223c0       $chain$13$psymodel_init    00000001800923c0     libmp3lame:psymodel.obj
 0002:000223dc       $chain$14$psymodel_init    00000001800923dc     libmp3lame:psymodel.obj
 0002:000223ec       $chain$15$psymodel_init    00000001800923ec     libmp3lame:psymodel.obj
 0002:000223fc       $unwind$free_id3tag        00000001800923fc     libmp3lame:util.obj
 0002:0002240c       $chain$1$free_id3tag       000000018009240c     libmp3lame:util.obj
 0002:00022424       $chain$2$free_id3tag       0000000180092424     libmp3lame:util.obj
 0002:00022434       $unwind$?dllmain_raw@@YAHQEAUHINSTANCE__@@KQEAX@Z 0000000180092434     LIBCMT:dll_dllmain.obj
 0002:00022434       $unwind$?setSBCS@@YAXPEAU__crt_multibyte_data@@@Z 0000000180092434     libucrt:mbctype.obj
 0002:00022434       $unwind$??$ensure_buffer_is_big_enough@D@formatting_buffer@__crt_stdio_output@@QEAA_N_K@Z 0000000180092434     libucrt:output.obj
 0002:00022434       $unwind$??$skip_whitespace@Vstring_input_adapter@__crt_stdio_input@@D@__crt_stdio_input@@YAHAEAV?$string_input_adapter@D@0@QEAU__crt_locale_pointers@@@Z 0000000180092434     libucrt:input.obj
 0002:00022434       $unwind$plain_fullread     0000000180092434     libmpg123:readers.obj
 0002:00022434       $unwind$__vcrt_InitializeCriticalSectionEx 0000000180092434     libvcruntime:winapi_downlevel.obj
 0002:00022434       $unwind$freegfc            0000000180092434     libmp3lame:util.obj
 0002:00022434       $unwind$__scrt_dllmain_exception_filter 0000000180092434     LIBCMT:utility.obj
 0002:00022434       $unwind$_recalloc_base     0000000180092434     libucrt:recalloc.obj
 0002:00022434       $unwind$__acrt_free_locale 0000000180092434     libucrt:locale_refcounting.obj
 0002:00022434       $unwind$get_next_frame     0000000180092434     libmpg123:libmpg123.obj
 0002:00022434       $unwind$__acrt_execute_initializers 0000000180092434     libucrt:shared_initialization.obj
 0002:00022434       $unwind$__acrt_lowio_create_handle_array 0000000180092434     libucrt:osfinfo.obj
 0002:00022434       $unwind$convert_utf8       0000000180092434     libmpg123:id3.obj
 0002:00022434       $unwind$__acrt_InitializeCriticalSectionEx 0000000180092434     libucrt:winapi_thunks.obj
 0002:00022434       $unwind$_seh_filter_exe    0000000180092434     libucrt:exception_filter.obj
 0002:00022448       $unwind$ATHformula_GB      0000000180092448     libmp3lame:util.obj
 0002:0002245c       $unwind$setLameTagFrameHeader 000000018009245c     libmp3lame:VbrTag.obj
 0002:0002245c       $unwind$??$parse_floating_point_possible_nan_is_ind@DV?$input_adapter_character_source@V?$string_input_adapter@D@__crt_stdio_input@@@__crt_strtox@@@__crt_strtox@@YA_NAEADAEAV?$input_adapter_character_source@V?$string_input_adapter@D@__crt_stdio_input@@@0@@Z 000000018009245c     libucrt:input.obj
 0002:0002245c       $unwind$frame_fuzzy_find   000000018009245c     libmpg123:frame.obj
 0002:0002245c       $unwind$ResvFrameBegin     000000018009245c     libmp3lame:reservoir.obj
 0002:0002245c       $unwind$??$write_multiple_characters@V?$string_output_adapter@D@__crt_stdio_output@@D@__crt_stdio_output@@YAXAEBV?$string_output_adapter@D@0@DHQEAH@Z 000000018009245c     libucrt:output.obj
 0002:0002245c       $unwind$FindNearestBitrate 000000018009245c     libmp3lame:util.obj
 0002:0002245c       $unwind$??$parse_floating_point_possible_nan_is_snan@DV?$input_adapter_character_source@V?$string_input_adapter@D@__crt_stdio_input@@@__crt_strtox@@@__crt_strtox@@YA_NAEADAEAV?$input_adapter_character_source@V?$string_input_adapter@D@__crt_stdio_input@@@0@@Z 000000018009245c     libucrt:input.obj
 0002:0002245c       $unwind$??$type_case_integer_parse_into_buffer@_K@?$output_processor@DV?$stream_output_adapter@D@__crt_stdio_output@@V?$standard_base@DV?$stream_output_adapter@D@__crt_stdio_output@@@2@@__crt_stdio_output@@AEAAX_KI_N@Z 000000018009245c     libucrt:output.obj
 0002:0002245c       $unwind$reduce_side        000000018009245c     libmp3lame:quantize_pvt.obj
 0002:0002245c       $unwind$??$type_case_integer_parse_into_buffer@I@?$output_processor@DV?$string_output_adapter@D@__crt_stdio_output@@V?$standard_base@DV?$string_output_adapter@D@__crt_stdio_output@@@2@@__crt_stdio_output@@AEAAXII_N@Z 000000018009245c     libucrt:output.obj
 0002:0002245c       $unwind$??$type_case_integer_parse_into_buffer@I@?$output_processor@DV?$stream_output_adapter@D@__crt_stdio_output@@V?$standard_base@DV?$stream_output_adapter@D@__crt_stdio_output@@@2@@__crt_stdio_output@@AEAAXII_N@Z 000000018009245c     libucrt:output.obj
 0002:0002245c       $unwind$??$type_case_integer_parse_into_buffer@_K@?$output_processor@DV?$string_output_adapter@D@__crt_stdio_output@@V?$standard_base@DV?$string_output_adapter@D@__crt_stdio_output@@@2@@__crt_stdio_output@@AEAAX_KI_N@Z 000000018009245c     libucrt:output.obj
 0002:00022464       $unwind$nearestBitrateFullIndex 0000000180092464     libmp3lame:util.obj
 0002:00022474       $unwind$blackman           0000000180092474     libmp3lame:util.obj
 0002:00022494       $unwind$fill_buffer_resample 0000000180092494     libmp3lame:util.obj
 0002:000224a8       $chain$1$fill_buffer_resample 00000001800924a8     libmp3lame:util.obj
 0002:000224c0       $chain$6$fill_buffer_resample 00000001800924c0     libmp3lame:util.obj
 0002:000224e4       $chain$7$fill_buffer_resample 00000001800924e4     libmp3lame:util.obj
 0002:000224f8       $chain$8$fill_buffer_resample 00000001800924f8     libmp3lame:util.obj
 0002:00022508       $chain$9$fill_buffer_resample 0000000180092508     libmp3lame:util.obj
 0002:00022528       $chain$10$fill_buffer_resample 0000000180092528     libmp3lame:util.obj
 0002:00022538       $unwind$INT123_synth_ntom_set_step 0000000180092538     libmpg123:ntom.obj
 0002:00022538       $unwind$lame_report_def    0000000180092538     libmp3lame:util.obj
 0002:00022538       $unwind$choose_table_nonMMX 0000000180092538     libmp3lame:takehiro.obj
 0002:00022548       $unwind$lame_msgf          0000000180092548     libmp3lame:util.obj
 0002:00022548       $unwind$lame_errorf        0000000180092548     libmp3lame:util.obj
 0002:00022550       $chain$5$init_log_table    0000000180092550     libmp3lame:util.obj
 0002:00022578       $chain$6$init_log_table    0000000180092578     libmp3lame:util.obj
 0002:0002258c       $chain$7$init_log_table    000000018009258c     libmp3lame:util.obj
 0002:0002259c       $chain$8$init_log_table    000000018009259c     libmp3lame:util.obj
 0002:000225ac       $unwind$compute_ath        00000001800925ac     libmp3lame:quantize_pvt.obj
 0002:000225e4       $unwind$iteration_init     00000001800925e4     libmp3lame:quantize_pvt.obj
 0002:000225ec       $chain$0$iteration_init    00000001800925ec     libmp3lame:quantize_pvt.obj
 0002:00022600       $chain$9$iteration_init    0000000180092600     libmp3lame:quantize_pvt.obj
 0002:00022634       $chain$10$iteration_init   0000000180092634     libmp3lame:quantize_pvt.obj
 0002:00022664       $chain$11$iteration_init   0000000180092664     libmp3lame:quantize_pvt.obj
 0002:0002268c       $chain$12$iteration_init   000000018009268c     libmp3lame:quantize_pvt.obj
 0002:000226a8       $chain$13$iteration_init   00000001800926a8     libmp3lame:quantize_pvt.obj
 0002:000226b8       $unwind$on_pe              00000001800926b8     libmp3lame:quantize_pvt.obj
 0002:000226d0       $unwind$athAdjust          00000001800926d0     libmp3lame:quantize_pvt.obj
 0002:000226e4       $unwind$calc_xmin          00000001800926e4     libmp3lame:quantize_pvt.obj
 0002:0002270c       $chain$0$calc_xmin         000000018009270c     libmp3lame:quantize_pvt.obj
 0002:00022720       $chain$1$calc_xmin         0000000180092720     libmp3lame:quantize_pvt.obj
 0002:00022730       $unwind$calc_noise         0000000180092730     libmp3lame:quantize_pvt.obj
 0002:00022754       $chain$8$calc_noise        0000000180092754     libmp3lame:quantize_pvt.obj
 0002:00022788       $chain$9$calc_noise        0000000180092788     libmp3lame:quantize_pvt.obj
 0002:00022798       $unwind$set_pinfo          0000000180092798     libmp3lame:quantize_pvt.obj
 0002:000227c0       $chain$0$set_pinfo         00000001800927c0     libmp3lame:quantize_pvt.obj
 0002:000227d4       $chain$1$set_pinfo         00000001800927d4     libmp3lame:quantize_pvt.obj
 0002:000227e4       $unwind$set_frame_pinfo    00000001800927e4     libmp3lame:quantize_pvt.obj
 0002:000227f0       $chain$5$set_frame_pinfo   00000001800927f0     libmp3lame:quantize_pvt.obj
 0002:00022818       $chain$6$set_frame_pinfo   0000000180092818     libmp3lame:quantize_pvt.obj
 0002:00022828       $unwind$InitVbrTag         0000000180092828     libmp3lame:VbrTag.obj
 0002:00022840       $unwind$init_xrpow_core_c  0000000180092840     libmp3lame:quantize.obj
 0002:00022850       $chain$4$init_xrpow_core_c 0000000180092850     libmp3lame:quantize.obj
 0002:00022874       $chain$5$init_xrpow_core_c 0000000180092874     libmp3lame:quantize.obj
 0002:00022884       $unwind$init_xrpow         0000000180092884     libmp3lame:quantize.obj
 0002:00022898       $unwind$psfb21_analogsilence 0000000180092898     libmp3lame:quantize.obj
 0002:000228b8       $unwind$init_outer_loop    00000001800928b8     libmp3lame:quantize.obj
 0002:000228cc       $chain$0$init_outer_loop   00000001800928cc     libmp3lame:quantize.obj
 0002:000228e0       $chain$1$init_outer_loop   00000001800928e0     libmp3lame:quantize.obj
 0002:000228f4       $chain$4$init_outer_loop   00000001800928f4     libmp3lame:quantize.obj
 0002:00022910       $chain$5$init_outer_loop   0000000180092910     libmp3lame:quantize.obj
 0002:00022920       $chain$6$init_outer_loop   0000000180092920     libmp3lame:quantize.obj
 0002:00022930       $chain$7$init_outer_loop   0000000180092930     libmp3lame:quantize.obj
 0002:00022940       $unwind$bin_search_StepSize 0000000180092940     libmp3lame:quantize.obj
 0002:00022958       $unwind$trancate_smallspectrums 0000000180092958     libmp3lame:quantize.obj
 0002:00022970       $chain$10$trancate_smallspectrums 0000000180092970     libmp3lame:quantize.obj
 0002:000229ac       $chain$11$trancate_smallspectrums 00000001800929ac     libmp3lame:quantize.obj
 0002:000229c0       $chain$12$trancate_smallspectrums 00000001800929c0     libmp3lame:quantize.obj
 0002:000229d0       $unwind$??$parse_floating_point_write_result@M@__crt_strtox@@YA?AW4SLD_STATUS@@W4floating_point_parse_result@0@AEBUfloating_point_string@0@QEAM@Z 00000001800929d0     libucrt:atof.obj
 0002:000229d0       $unwind$?as_float@floating_point_value@__crt_strtox@@QEBAAEAMXZ 00000001800929d0     libucrt:atof.obj
 0002:000229d0       $unwind$??$parse_floating_point_write_result@N@__crt_strtox@@YA?AW4SLD_STATUS@@W4floating_point_parse_result@0@AEBUfloating_point_string@0@QEAN@Z 00000001800929d0     libucrt:atof.obj
 0002:000229d0       $unwind$get_klemm_noise    00000001800929d0     libmp3lame:quantize.obj
 0002:000229d0       $unwind$_invalid_parameter_noinfo 00000001800929d0     libucrt:invalid_parameter.obj
 0002:000229d0       $unwind$_log10_special     00000001800929d0     libucrt:log_special.obj
 0002:000229d0       $unwind$wctomb_s           00000001800929d0     libucrt:wctomb.obj
 0002:000229d0       $unwind$_log_special       00000001800929d0     libucrt:log_special.obj
 0002:000229d0       $unwind$?as_double@floating_point_value@__crt_strtox@@QEBAAEANXZ 00000001800929d0     libucrt:atof.obj
 0002:000229d0       $unwind$_log10f_special    00000001800929d0     libucrt:log_special.obj
 0002:000229d8       $chain$3$get_klemm_noise   00000001800929d8     libmp3lame:quantize.obj
 0002:000229f8       $chain$4$get_klemm_noise   00000001800929f8     libmp3lame:quantize.obj
 0002:00022a0c       $chain$5$get_klemm_noise   0000000180092a0c     libmp3lame:quantize.obj
 0002:00022a1c       $chain$6$get_klemm_noise   0000000180092a1c     libmp3lame:quantize.obj
 0002:00022a2c       $unwind$amp_scalefac_bands 0000000180092a2c     libmp3lame:quantize.obj
 0002:00022a48       $unwind$inc_scalefac_scale 0000000180092a48     libmp3lame:quantize.obj
 0002:00022a58       $chain$0$inc_scalefac_scale 0000000180092a58     libmp3lame:quantize.obj
 0002:00022a6c       $chain$1$inc_scalefac_scale 0000000180092a6c     libmp3lame:quantize.obj
 0002:00022a7c       $unwind$inc_subblock_gain  0000000180092a7c     libmp3lame:quantize.obj
 0002:00022a88       $chain$4$inc_subblock_gain 0000000180092a88     libmp3lame:quantize.obj
 0002:00022aac       $chain$5$inc_subblock_gain 0000000180092aac     libmp3lame:quantize.obj
 0002:00022abc       $chain$6$inc_subblock_gain 0000000180092abc     libmp3lame:quantize.obj
 0002:00022ae0       $unwind$balance_noise      0000000180092ae0     libmp3lame:quantize.obj
 0002:00022af4       $chain$0$balance_noise     0000000180092af4     libmp3lame:quantize.obj
 0002:00022b08       $chain$1$balance_noise     0000000180092b08     libmp3lame:quantize.obj
 0002:00022b18       $chain$2$balance_noise     0000000180092b18     libmp3lame:quantize.obj
 0002:00022b2c       $unwind$outer_loop         0000000180092b2c     libmp3lame:quantize.obj
 0002:00022b48       $chain$2$outer_loop        0000000180092b48     libmp3lame:quantize.obj
 0002:00022b64       $chain$3$outer_loop        0000000180092b64     libmp3lame:quantize.obj
 0002:00022b78       $chain$4$outer_loop        0000000180092b78     libmp3lame:quantize.obj
 0002:00022b88       $unwind$VBR_encode_granule 0000000180092b88     libmp3lame:quantize.obj
 0002:00022ba8       $chain$3$get_framebits     0000000180092ba8     libmp3lame:quantize.obj
 0002:00022bc8       $chain$4$get_framebits     0000000180092bc8     libmp3lame:quantize.obj
 0002:00022bd8       $unwind$VBR_old_prepare    0000000180092bd8     libmp3lame:quantize.obj
 0002:00022be8       $chain$2$VBR_old_prepare   0000000180092be8     libmp3lame:quantize.obj
 0002:00022c04       $chain$12$VBR_old_prepare  0000000180092c04     libmp3lame:quantize.obj
 0002:00022c3c       $chain$13$VBR_old_prepare  0000000180092c3c     libmp3lame:quantize.obj
 0002:00022c4c       $chain$14$VBR_old_prepare  0000000180092c4c     libmp3lame:quantize.obj
 0002:00022c5c       $unwind$bitpressure_strategy 0000000180092c5c     libmp3lame:quantize.obj
 0002:00022c6c       $chain$5$bitpressure_strategy 0000000180092c6c     libmp3lame:quantize.obj
 0002:00022c94       $chain$6$bitpressure_strategy 0000000180092c94     libmp3lame:quantize.obj
 0002:00022ca4       $unwind$VBR_old_iteration_loop 0000000180092ca4     libmp3lame:quantize.obj
 0002:00022cc8       $unwind$VBR_new_prepare    0000000180092cc8     libmp3lame:quantize.obj
 0002:00022cd4       $chain$6$VBR_new_prepare   0000000180092cd4     libmp3lame:quantize.obj
 0002:00022d00       $chain$8$VBR_new_prepare   0000000180092d00     libmp3lame:quantize.obj
 0002:00022d18       $chain$9$VBR_new_prepare   0000000180092d18     libmp3lame:quantize.obj
 0002:00022d28       $chain$10$VBR_new_prepare  0000000180092d28     libmp3lame:quantize.obj
 0002:00022d48       $chain$11$VBR_new_prepare  0000000180092d48     libmp3lame:quantize.obj
 0002:00022d58       $unwind$VBR_new_iteration_loop 0000000180092d58     libmp3lame:quantize.obj
 0002:00022d70       $chain$2$VBR_new_iteration_loop 0000000180092d70     libmp3lame:quantize.obj
 0002:00022d8c       $chain$4$VBR_new_iteration_loop 0000000180092d8c     libmp3lame:quantize.obj
 0002:00022da4       $chain$5$VBR_new_iteration_loop 0000000180092da4     libmp3lame:quantize.obj
 0002:00022db4       $chain$6$VBR_new_iteration_loop 0000000180092db4     libmp3lame:quantize.obj
 0002:00022dc8       $chain$7$VBR_new_iteration_loop 0000000180092dc8     libmp3lame:quantize.obj
 0002:00022dd8       $unwind$calc_target_bits   0000000180092dd8     libmp3lame:quantize.obj
 0002:00022df0       $unwind$ABR_iteration_loop 0000000180092df0     libmp3lame:quantize.obj
 0002:00022e08       $chain$8$ABR_iteration_loop 0000000180092e08     libmp3lame:quantize.obj
 0002:00022e3c       $chain$9$ABR_iteration_loop 0000000180092e3c     libmp3lame:quantize.obj
 0002:00022e4c       $unwind$CBR_iteration_loop 0000000180092e4c     libmp3lame:quantize.obj
 0002:00022e64       $chain$3$CBR_iteration_loop 0000000180092e64     libmp3lame:quantize.obj
 0002:00022e84       $chain$8$CBR_iteration_loop 0000000180092e84     libmp3lame:quantize.obj
 0002:00022ea8       $chain$9$CBR_iteration_loop 0000000180092ea8     libmp3lame:quantize.obj
 0002:00022eb8       $chain$10$CBR_iteration_loop 0000000180092eb8     libmp3lame:quantize.obj
 0002:00022ec8       $unwind$AnalyzeSamples     0000000180092ec8     libmp3lame:gain_analysis.obj
 0002:00022ee0       $chain$12$AnalyzeSamples   0000000180092ee0     libmp3lame:gain_analysis.obj
 0002:00022f1c       $chain$13$AnalyzeSamples   0000000180092f1c     libmp3lame:gain_analysis.obj
 0002:00022f2c       $chain$1$updateStats       0000000180092f2c     libmp3lame:encoder.obj
 0002:00022f44       $chain$2$updateStats       0000000180092f44     libmp3lame:encoder.obj
 0002:00022f54       $unwind$lame_encode_frame_init 0000000180092f54     libmp3lame:encoder.obj
 0002:00022f68       $chain$0$lame_encode_frame_init 0000000180092f68     libmp3lame:encoder.obj
 0002:00022f7c       $chain$2$lame_encode_frame_init 0000000180092f7c     libmp3lame:encoder.obj
 0002:00022f94       $chain$3$lame_encode_frame_init 0000000180092f94     libmp3lame:encoder.obj
 0002:00022fa4       $chain$4$lame_encode_frame_init 0000000180092fa4     libmp3lame:encoder.obj
 0002:00022fb4       $unwind$lame_encode_mp3_frame 0000000180092fb4     libmp3lame:encoder.obj
 0002:00022fe0       $unwind$quantize_lines_xrpow 0000000180092fe0     libmp3lame:takehiro.obj
 0002:00022ff0       $unwind$quantize_xrpow     0000000180092ff0     libmp3lame:takehiro.obj
 0002:0002300c       $chain$0$quantize_xrpow    000000018009300c     libmp3lame:takehiro.obj
 0002:00023020       $chain$1$quantize_xrpow    0000000180093020     libmp3lame:takehiro.obj
 0002:00023030       $unwind$count_bit_noESC_from3 0000000180093030     libmp3lame:takehiro.obj
 0002:00023048       $unwind$noquant_count_bits 0000000180093048     libmp3lame:takehiro.obj
 0002:00023060       $unwind$count_bits         0000000180093060     libmp3lame:takehiro.obj
 0002:00023070       $chain$0$count_bits        0000000180093070     libmp3lame:takehiro.obj
 0002:00023084       $chain$2$count_bits        0000000180093084     libmp3lame:takehiro.obj
 0002:0002309c       $chain$3$count_bits        000000018009309c     libmp3lame:takehiro.obj
 0002:000230ac       $chain$4$count_bits        00000001800930ac     libmp3lame:takehiro.obj
 0002:000230bc       $unwind$best_huffman_divide 00000001800930bc     libmp3lame:takehiro.obj
 0002:000230d4       $chain$4$best_huffman_divide 00000001800930d4     libmp3lame:takehiro.obj
 0002:000230f8       $chain$5$best_huffman_divide 00000001800930f8     libmp3lame:takehiro.obj
 0002:00023108       $unwind$scfsi_calc         0000000180093108     libmp3lame:takehiro.obj
 0002:00023124       $unwind$?try_get_function@@YAPEAXW4function_id@?A0x61ce2399@@QEBDQEBW4module_id@2@2@Z 0000000180093124     libvcruntime:winapi_downlevel.obj
 0002:00023124       $unwind$best_scalefac_store 0000000180093124     libmp3lame:takehiro.obj
 0002:00023124       $unwind$?try_get_function@@YAPEAXW4function_id@?A0x63058377@@QEBDQEBW4module_id@2@2@Z 0000000180093124     libucrt:winapi_thunks.obj
 0002:00023124       $unwind$INT123_synth_ntom_real 0000000180093124     libmpg123:synth_real.obj
 0002:00023124       $unwind$INT123_frame_cpu_opt 0000000180093124     libmpg123:optimize.obj
 0002:00023140       $unwind$mpeg1_scale_bitcount 0000000180093140     libmp3lame:takehiro.obj
 0002:0002314c       $chain$0$mpeg1_scale_bitcount 000000018009314c     libmp3lame:takehiro.obj
 0002:00023160       $chain$1$mpeg1_scale_bitcount 0000000180093160     libmp3lame:takehiro.obj
 0002:00023174       $chain$2$mpeg1_scale_bitcount 0000000180093174     libmp3lame:takehiro.obj
 0002:00023184       $chain$3$mpeg1_scale_bitcount 0000000180093184     libmp3lame:takehiro.obj
 0002:00023194       $unwind$mpeg2_scale_bitcount 0000000180093194     libmp3lame:takehiro.obj
 0002:000231b0       $chain$0$mpeg2_scale_bitcount 00000001800931b0     libmp3lame:takehiro.obj
 0002:000231c4       $chain$1$mpeg2_scale_bitcount 00000001800931c4     libmp3lame:takehiro.obj
 0002:000231d4       $unwind$fht                00000001800931d4     libmp3lame:fft.obj
 0002:00023214       $unwind$fft_short          0000000180093214     libmp3lame:fft.obj
 0002:00023214       $unwind$INT123_synth_2to1_8bit 0000000180093214     libmpg123:synth_8bit.obj
 0002:00023214       $unwind$INT123_synth_1to1_8bit 0000000180093214     libmpg123:synth_8bit.obj
 0002:00023214       $unwind$INT123_synth_4to1_8bit 0000000180093214     libmpg123:synth_8bit.obj
 0002:00023230       $unwind$init_fft           0000000180093230     libmp3lame:fft.obj
 0002:0002326c       $unwind$strrchr            000000018009326c     libvcruntime:strrchr.obj
 0002:0002326c       $unwind$k_34_4             000000018009326c     libmp3lame:vbrquantize.obj
 0002:00023274       $unwind$calc_sfb_noise_x34 0000000180093274     libmp3lame:vbrquantize.obj
 0002:00023298       $chain$0$calc_sfb_noise_x34 0000000180093298     libmp3lame:vbrquantize.obj
 0002:000232ac       $chain$2$calc_sfb_noise_x34 00000001800932ac     libmp3lame:vbrquantize.obj
 0002:000232c4       $chain$3$calc_sfb_noise_x34 00000001800932c4     libmp3lame:vbrquantize.obj
 0002:000232d4       $chain$4$calc_sfb_noise_x34 00000001800932d4     libmp3lame:vbrquantize.obj
 0002:000232e4       $unwind$find_scalefac_x34  00000001800932e4     libmp3lame:vbrquantize.obj
 0002:0002330c       $unwind$block_sf           000000018009330c     libmp3lame:vbrquantize.obj
 0002:00023328       $unwind$quantize_x34       0000000180093328     libmp3lame:vbrquantize.obj
 0002:00023344       $unwind$set_subblock_gain  0000000180093344     libmp3lame:vbrquantize.obj
 0002:0002335c       $unwind$set_scalefacs      000000018009335c     libmp3lame:vbrquantize.obj
 0002:00023374       $unwind$short_block_constrain 0000000180093374     libmp3lame:vbrquantize.obj
 0002:0002339c       $unwind$long_block_constrain 000000018009339c     libmp3lame:vbrquantize.obj
 0002:000233c4       $unwind$tryGlobalStepsize  00000001800933c4     libmp3lame:vbrquantize.obj
 0002:000233e0       $unwind$searchGlobalStepsizeMax 00000001800933e0     libmp3lame:vbrquantize.obj
 0002:00023408       $unwind$flattenDistribution 0000000180093408     libmp3lame:vbrquantize.obj
 0002:00023418       $chain$2$flattenDistribution 0000000180093418     libmp3lame:vbrquantize.obj
 0002:00023434       $chain$3$flattenDistribution 0000000180093434     libmp3lame:vbrquantize.obj
 0002:00023444       $unwind$outOfBitsStrategy  0000000180093444     libmp3lame:vbrquantize.obj
 0002:0002346c       $unwind$VBR_encode_frame   000000018009346c     libmp3lame:vbrquantize.obj
 0002:00023490       $chain$1$VBR_encode_frame  0000000180093490     libmp3lame:vbrquantize.obj
 0002:000234a8       $chain$2$VBR_encode_frame  00000001800934a8     libmp3lame:vbrquantize.obj
 0002:000234bc       $chain$3$VBR_encode_frame  00000001800934bc     libmp3lame:vbrquantize.obj
 0002:000234cc       $chain$4$VBR_encode_frame  00000001800934cc     libmp3lame:vbrquantize.obj
 0002:000234dc       $unwind$window_subband     00000001800934dc     libmp3lame:newmdct.obj
 0002:00023510       $unwind$mdct_short         0000000180093510     libmp3lame:newmdct.obj
 0002:00023540       $unwind$mdct_long          0000000180093540     libmp3lame:newmdct.obj
 0002:00023570       $unwind$mdct_sub48         0000000180093570     libmp3lame:newmdct.obj
 0002:00023588       $chain$14$mdct_sub48       0000000180093588     libmp3lame:newmdct.obj
 0002:000235d4       $chain$15$mdct_sub48       00000001800935d4     libmp3lame:newmdct.obj
 0002:000235e4       $chain$0$frame_buffercheck 00000001800935e4     libmpg123:libmpg123.obj
 0002:000235f8       $chain$1$frame_buffercheck 00000001800935f8     libmpg123:libmpg123.obj
 0002:0002360c       $chain$2$frame_buffercheck 000000018009360c     libmpg123:libmpg123.obj
 0002:0002361c       $chain$3$frame_buffercheck 000000018009361c     libmpg123:libmpg123.obj
 0002:0002362c       $chain$1$INT123_decode_update 000000018009362c     libmpg123:libmpg123.obj
 0002:00023644       $chain$4$INT123_decode_update 0000000180093644     libmpg123:libmpg123.obj
 0002:00023660       $unwind$decode_the_frame   0000000180093660     libmpg123:libmpg123.obj
 0002:0002366c       $chain$1$decode_the_frame  000000018009366c     libmpg123:libmpg123.obj
 0002:00023684       $chain$2$decode_the_frame  0000000180093684     libmpg123:libmpg123.obj
 0002:00023694       $unwind$mpg123_decode      0000000180093694     libmpg123:libmpg123.obj
 0002:000236a8       $chain$1$mpg123_decode     00000001800936a8     libmpg123:libmpg123.obj
 0002:000236c0       $chain$2$mpg123_decode     00000001800936c0     libmpg123:libmpg123.obj
 0002:000236d0       $chain$3$mpg123_decode     00000001800936d0     libmpg123:libmpg123.obj
 0002:000236e8       $chain$0$mpg123_tell       00000001800936e8     libmpg123:libmpg123.obj
 0002:000236fc       $chain$1$mpg123_tell       00000001800936fc     libmpg123:libmpg123.obj
 0002:0002370c       $unwind$mpg123_close       000000018009370c     libmpg123:libmpg123.obj
 0002:00023718       $unwind$INT123_set_synth_functions 0000000180093718     libmpg123:optimize.obj
 0002:00023728       $chain$0$INT123_set_synth_functions 0000000180093728     libmpg123:optimize.obj
 0002:0002373c       $chain$1$INT123_set_synth_functions 000000018009373c     libmpg123:optimize.obj
 0002:0002374c       $unwind$INT123_frame_exit  000000018009374c     libmpg123:frame.obj
 0002:0002375c       $chain$0$INT123_frame_exit 000000018009375c     libmpg123:frame.obj
 0002:00023770       $chain$1$INT123_frame_exit 0000000180093770     libmpg123:frame.obj
 0002:00023780       $unwind$INT123_frame_set_frameseek 0000000180093780     libmpg123:frame.obj
 0002:0002378c       $unwind$INT123_do_rva      000000018009378c     libmpg123:frame.obj
 0002:0002379c       $unwind$INT123_fi_add      000000018009379c     libmpg123:index.obj
 0002:000237a8       $chain$0$INT123_fi_add     00000001800937a8     libmpg123:index.obj
 0002:000237bc       $chain$1$INT123_fi_add     00000001800937bc     libmpg123:index.obj
 0002:000237cc       $unwind$free_id3_text      00000001800937cc     libmpg123:id3.obj
 0002:000237dc       $chain$1$free_id3_text     00000001800937dc     libmpg123:id3.obj
 0002:000237f4       $chain$2$free_id3_text     00000001800937f4     libmpg123:id3.obj
 0002:00023804       $unwind$pop_id3_text       0000000180093804     libmpg123:id3.obj
 0002:00023810       $chain$1$pop_id3_text      0000000180093810     libmpg123:id3.obj
 0002:00023828       $chain$2$pop_id3_text      0000000180093828     libmpg123:id3.obj
 0002:00023828       $chain$4$pop_id3_text      0000000180093828     libmpg123:id3.obj
 0002:0002383c       $chain$5$pop_id3_text      000000018009383c     libmpg123:id3.obj
 0002:0002384c       $unwind$INT123_reset_id3   000000018009384c     libmpg123:id3.obj
 0002:00023868       $chain$0$INT123_id3_link   0000000180093868     libmpg123:id3.obj
 0002:0002387c       $chain$3$INT123_id3_link   000000018009387c     libmpg123:id3.obj
 0002:00023898       $chain$4$INT123_id3_link   0000000180093898     libmpg123:id3.obj
 0002:000238a8       $chain$5$INT123_id3_link   00000001800938a8     libmpg123:id3.obj
 0002:000238b8       $unwind$store_id3_text     00000001800938b8     libmpg123:id3.obj
 0002:000238cc       $unwind$INT123_id3_to_utf8 00000001800938cc     libmpg123:id3.obj
 0002:000238e8       $unwind$process_text       00000001800938e8     libmpg123:id3.obj
 0002:00023900       $chain$0$process_text      0000000180093900     libmpg123:id3.obj
 0002:00023914       $chain$1$process_text      0000000180093914     libmpg123:id3.obj
 0002:00023924       $unwind$process_comment    0000000180093924     libmpg123:id3.obj
 0002:00023940       $chain$0$process_comment   0000000180093940     libmpg123:id3.obj
 0002:00023954       $chain$1$process_comment   0000000180093954     libmpg123:id3.obj
 0002:00023968       $chain$2$process_comment   0000000180093968     libmpg123:id3.obj
 0002:0002397c       $chain$3$process_comment   000000018009397c     libmpg123:id3.obj
 0002:0002398c       $chain$4$process_comment   000000018009398c     libmpg123:id3.obj
 0002:0002399c       $chain$5$process_comment   000000018009399c     libmpg123:id3.obj
 0002:000239ac       $unwind$process_extra      00000001800939ac     libmpg123:id3.obj
 0002:000239c8       $chain$1$process_extra     00000001800939c8     libmpg123:id3.obj
 0002:000239e0       $chain$2$process_extra     00000001800939e0     libmpg123:id3.obj
 0002:000239f4       $chain$3$process_extra     00000001800939f4     libmpg123:id3.obj
 0002:00023a08       $chain$4$process_extra     0000000180093a08     libmpg123:id3.obj
 0002:00023a18       $chain$5$process_extra     0000000180093a18     libmpg123:id3.obj
 0002:00023a28       $chain$6$process_extra     0000000180093a28     libmpg123:id3.obj
 0002:00023a38       $unwind$promote_framename  0000000180093a38     libmpg123:id3.obj
 0002:00023a54       $chain$0$promote_framename 0000000180093a54     libmpg123:id3.obj
 0002:00023a68       $chain$1$promote_framename 0000000180093a68     libmpg123:id3.obj
 0002:00023a78       $unwind$INT123_parse_new_id3 0000000180093a78     libmpg123:id3.obj
 0002:00023a90       $chain$2$INT123_parse_new_id3 0000000180093a90     libmpg123:id3.obj
 0002:00023aac       $chain$6$INT123_parse_new_id3 0000000180093aac     libmpg123:id3.obj
 0002:00023acc       $chain$7$INT123_parse_new_id3 0000000180093acc     libmpg123:id3.obj
 0002:00023adc       $chain$8$INT123_parse_new_id3 0000000180093adc     libmpg123:id3.obj
 0002:00023aec       $chain$9$INT123_parse_new_id3 0000000180093aec     libmpg123:id3.obj
 0002:00023b08       $chain$10$INT123_parse_new_id3 0000000180093b08     libmpg123:id3.obj
 0002:00023b34       $unwind$INT123_synth_1to1_real 0000000180093b34     libmpg123:synth_real.obj
 0002:00023b34       $unwind$?write_string@?$stream_output_adapter@D@__crt_stdio_output@@QEBAXQEBDHQEAH1@Z 0000000180093b34     libucrt:output.obj
 0002:00023b34       $unwind$convert_latin1     0000000180093b34     libmpg123:id3.obj
 0002:00023b34       $unwind$INT123_synth_4to1_real 0000000180093b34     libmpg123:synth_real.obj
 0002:00023b34       $unwind$INT123_synth_2to1_real 0000000180093b34     libmpg123:synth_real.obj
 0002:00023b4c       $unwind$convert_utf16bom   0000000180093b4c     libmpg123:id3.obj
 0002:00023b64       $unwind$freq_fit           0000000180093b64     libmpg123:format.obj
 0002:00023b78       $chain$0$freq_fit          0000000180093b78     libmpg123:format.obj
 0002:00023b8c       $chain$1$freq_fit          0000000180093b8c     libmpg123:format.obj
 0002:00023ba0       $chain$2$freq_fit          0000000180093ba0     libmpg123:format.obj
 0002:00023bb0       $chain$4$freq_fit          0000000180093bb0     libmpg123:format.obj
 0002:00023bc8       $unwind$INT123_frame_output_format 0000000180093bc8     libmpg123:format.obj
 0002:00023be4       $unwind$mpg123_fmt_all     0000000180093be4     libmpg123:format.obj
 0002:00023bf0       $unwind$icy_fullread       0000000180093bf0     libmpg123:readers.obj
 0002:00023c00       $chain$3$icy_fullread      0000000180093c00     libmpg123:readers.obj
 0002:00023c20       $chain$5$icy_fullread      0000000180093c20     libmpg123:readers.obj
 0002:00023c40       $unwind$stream_seek_frame  0000000180093c40     libmpg123:readers.obj
 0002:00023c54       $unwind$stream_skip_bytes  0000000180093c54     libmpg123:readers.obj
 0002:00023c70       $chain$0$get_fileinfo      0000000180093c70     libmpg123:readers.obj
 0002:00023c84       $chain$2$get_fileinfo      0000000180093c84     libmpg123:readers.obj
 0002:00023c98       $unwind$bc_fill_pool       0000000180093c98     libmpg123:readers.obj
 0002:00023cac       $chain$0$bc_reset          0000000180093cac     libmpg123:readers.obj
 0002:00023cc0       $chain$1$bc_reset          0000000180093cc0     libmpg123:readers.obj
 0002:00023cd0       $unwind$bc_add             0000000180093cd0     libmpg123:readers.obj
 0002:00023ce4       $chain$0$bc_add            0000000180093ce4     libmpg123:readers.obj
 0002:00023cf8       $chain$3$bc_add            0000000180093cf8     libmpg123:readers.obj
 0002:00023cf8       $chain$1$bc_add            0000000180093cf8     libmpg123:readers.obj
 0002:00023d08       $chain$2$bc_add            0000000180093d08     libmpg123:readers.obj
 0002:00023d1c       $unwind$bc_give            0000000180093d1c     libmpg123:readers.obj
 0002:00023d34       $chain$0$bc_give           0000000180093d34     libmpg123:readers.obj
 0002:00023d48       $chain$1$bc_give           0000000180093d48     libmpg123:readers.obj
 0002:00023d58       $chain$1$bc_forget         0000000180093d58     libmpg123:readers.obj
 0002:00023d70       $chain$2$bc_forget         0000000180093d70     libmpg123:readers.obj
 0002:00023d80       $unwind$buffered_fullread  0000000180093d80     libmpg123:readers.obj
 0002:00023da0       $unwind$INT123_open_feed   0000000180093da0     libmpg123:readers.obj
 0002:00023dac       $unwind$INT123_init_layer12 0000000180093dac     libmpg123:layer2.obj
 0002:00023dd0       $unwind$INT123_init_layer12_table 0000000180093dd0     libmpg123:layer2.obj
 0002:00023dec       $unwind$II_step_one        0000000180093dec     libmpg123:layer2.obj
 0002:00023e04       $chain$4$II_step_one       0000000180093e04     libmpg123:layer2.obj
 0002:00023e28       $chain$5$II_step_one       0000000180093e28     libmpg123:layer2.obj
 0002:00023e38       $unwind$II_step_two        0000000180093e38     libmpg123:layer2.obj
 0002:00023e4c       $chain$6$II_step_two       0000000180093e4c     libmpg123:layer2.obj
 0002:00023e78       $chain$7$II_step_two       0000000180093e78     libmpg123:layer2.obj
 0002:00023e88       $unwind$II_select_table    0000000180093e88     libmpg123:layer2.obj
 0002:00023e9c       $unwind$INT123_do_layer2   0000000180093e9c     libmpg123:layer2.obj
 0002:00023ec4       $chain$0$INT123_ntom_val   0000000180093ec4     libmpg123:ntom.obj
 0002:00023ed8       $chain$1$INT123_ntom_val   0000000180093ed8     libmpg123:ntom.obj
 0002:00023ee8       $unwind$INT123_ntom_frmouts 0000000180093ee8     libmpg123:ntom.obj
 0002:00023ef8       $unwind$INT123_ntom_ins2outs 0000000180093ef8     libmpg123:ntom.obj
 0002:00023f04       $unwind$INT123_ntom_frameoff 0000000180093f04     libmpg123:ntom.obj
 0002:00023f14       $unwind$INT123_init_layer3 0000000180093f14     libmpg123:layer3.obj
 0002:00023f64       $unwind$INT123_init_layer3_stuff 0000000180093f64     libmpg123:layer3.obj
 0002:00023f80       $unwind$III_get_side_info  0000000180093f80     libmpg123:layer3.obj
 0002:00023f9c       $chain$0$III_get_side_info 0000000180093f9c     libmpg123:layer3.obj
 0002:00023fb0       $unwind$III_get_scale_factors_1 0000000180093fb0     libmpg123:layer3.obj
 0002:00023fcc       $chain$0$III_get_scale_factors_1 0000000180093fcc     libmpg123:layer3.obj
 0002:00023fe0       $chain$1$III_get_scale_factors_1 0000000180093fe0     libmpg123:layer3.obj
 0002:00023ff4       $chain$2$III_get_scale_factors_1 0000000180093ff4     libmpg123:layer3.obj
 0002:00024004       $chain$3$III_get_scale_factors_1 0000000180094004     libmpg123:layer3.obj
 0002:00024014       $unwind$III_get_scale_factors_2 0000000180094014     libmpg123:layer3.obj
 0002:00024034       $unwind$III_dequantize_sample 0000000180094034     libmpg123:layer3.obj
 0002:00024050       $chain$1$III_dequantize_sample 0000000180094050     libmpg123:layer3.obj
 0002:00024068       $unwind$III_i_stereo       0000000180094068     libmpg123:layer3.obj
 0002:00024084       $chain$2$III_i_stereo      0000000180094084     libmpg123:layer3.obj
 0002:000240a0       $chain$3$III_i_stereo      00000001800940a0     libmpg123:layer3.obj
 0002:000240b0       $unwind$INT123_dct36       00000001800940b0     libmpg123:layer3.obj
 0002:000240e0       $unwind$dct12              00000001800940e0     libmpg123:layer3.obj
 0002:000240fc       $unwind$?assemble_floating_point_value_from_big_integer@__crt_strtox@@YA?AW4SLD_STATUS@@AEBUbig_integer@1@I_N1AEBVfloating_point_value@1@@Z 00000001800940fc     libucrt:atof.obj
 0002:000240fc       $unwind$III_hybrid         00000001800940fc     libmpg123:layer3.obj
 0002:00024118       $unwind$INT123_do_layer3   0000000180094118     libmpg123:layer3.obj
 0002:0002413c       $chain$1$INT123_do_layer3  000000018009413c     libmpg123:layer3.obj
 0002:00024150       $chain$2$INT123_do_layer3  0000000180094150     libmpg123:layer3.obj
 0002:00024160       $unwind$check_lame_tag     0000000180094160     libmpg123:parse.obj
 0002:00024174       $chain$2$check_lame_tag    0000000180094174     libmpg123:parse.obj
 0002:00024190       $chain$4$check_lame_tag    0000000180094190     libmpg123:parse.obj
 0002:000241a8       $chain$5$check_lame_tag    00000001800941a8     libmpg123:parse.obj
 0002:000241b8       $unwind$INT123_read_frame  00000001800941b8     libmpg123:parse.obj
 0002:000241c8       $chain$2$INT123_read_frame 00000001800941c8     libmpg123:parse.obj
 0002:000241e4       $chain$4$INT123_read_frame 00000001800941e4     libmpg123:parse.obj
 0002:00024200       $chain$0$guess_freeformat_framesize 0000000180094200     libmpg123:parse.obj
 0002:00024214       $chain$2$guess_freeformat_framesize 0000000180094214     libmpg123:parse.obj
 0002:00024228       $chain$3$guess_freeformat_framesize 0000000180094228     libmpg123:parse.obj
 0002:00024238       $unwind$decode_header      0000000180094238     libmpg123:parse.obj
 0002:00024244       $unwind$do_readahead       0000000180094244     libmpg123:parse.obj
 0002:00024250       $chain$1$do_readahead      0000000180094250     libmpg123:parse.obj
 0002:00024268       $chain$4$do_readahead      0000000180094268     libmpg123:parse.obj
 0002:00024284       $chain$6$do_readahead      0000000180094284     libmpg123:parse.obj
 0002:000242a0       $chain$7$do_readahead      00000001800942a0     libmpg123:parse.obj
 0002:000242b0       $unwind$skip_junk          00000001800942b0     libmpg123:parse.obj
 0002:000242c0       $chain$0$skip_junk         00000001800942c0     libmpg123:parse.obj
 0002:000242d4       $chain$2$skip_junk         00000001800942d4     libmpg123:parse.obj
 0002:000242d4       $chain$4$skip_junk         00000001800942d4     libmpg123:parse.obj
 0002:000242e8       $chain$5$skip_junk         00000001800942e8     libmpg123:parse.obj
 0002:000242f8       $unwind$wetwork            00000001800942f8     libmpg123:parse.obj
 0002:00024304       $chain$3$wetwork           0000000180094304     libmpg123:parse.obj
 0002:00024324       $chain$4$wetwork           0000000180094324     libmpg123:parse.obj
 0002:00024334       $chain$5$wetwork           0000000180094334     libmpg123:parse.obj
 0002:00024354       $chain$6$wetwork           0000000180094354     libmpg123:parse.obj
 0002:00024368       $unwind$INT123_prepare_decode_tables 0000000180094368     libmpg123:tabinit.obj
 0002:000243a8       $unwind$INT123_make_conv16to8_table 00000001800943a8     libmpg123:tabinit.obj
 0002:000243b8       $chain$6$INT123_make_conv16to8_table 00000001800943b8     libmpg123:tabinit.obj
 0002:000243e4       $chain$7$INT123_make_conv16to8_table 00000001800943e4     libmpg123:tabinit.obj
 0002:000243f4       $unwind$INT123_synth_4to1_s32 00000001800943f4     libmpg123:synth_s32.obj
 0002:000243f4       $unwind$INT123_synth_1to1_s32 00000001800943f4     libmpg123:synth_s32.obj
 0002:000243f4       $unwind$INT123_synth_2to1_s32 00000001800943f4     libmpg123:synth_s32.obj
 0002:00024414       $unwind$INT123_synth_1to1_s32_mono 0000000180094414     libmpg123:synth_s32.obj
 0002:00024430       $unwind$INT123_synth_4to1_s32_i386 0000000180094430     libmpg123:synth_s32.obj
 0002:00024430       $unwind$INT123_synth_2to1_s32_i386 0000000180094430     libmpg123:synth_s32.obj
 0002:00024430       $unwind$INT123_synth_1to1_s32_i386 0000000180094430     libmpg123:synth_s32.obj
 0002:00024450       $unwind$INT123_synth_2to1_s32_mono 0000000180094450     libmpg123:synth_s32.obj
 0002:00024450       $unwind$INT123_synth_1to1_8bit_wrap_m2s 0000000180094450     libmpg123:synth_8bit.obj
 0002:00024450       $unwind$INT123_synth_1to1_mono 0000000180094450     libmpg123:synth.obj
 0002:0002446c       $unwind$INT123_synth_4to1_real_mono 000000018009446c     libmpg123:synth_real.obj
 0002:0002446c       $unwind$INT123_synth_4to1_s32_mono 000000018009446c     libmpg123:synth_s32.obj
 0002:00024484       $unwind$INT123_synth_ntom_s32_mono 0000000180094484     libmpg123:synth_s32.obj
 0002:00024484       $unwind$INT123_synth_ntom_real_mono 0000000180094484     libmpg123:synth_real.obj
 0002:000244a4       $unwind$INT123_synth_ntom_s32 00000001800944a4     libmpg123:synth_s32.obj
 0002:000244c4       $unwind$INT123_synth_1to1  00000001800944c4     libmpg123:synth.obj
 0002:000244c4       $unwind$INT123_synth_2to1  00000001800944c4     libmpg123:synth.obj
 0002:000244c4       $unwind$INT123_synth_4to1  00000001800944c4     libmpg123:synth.obj
 0002:000244dc       $unwind$INT123_synth_4to1_i386 00000001800944dc     libmpg123:synth.obj
 0002:000244dc       $unwind$INT123_synth_1to1_i386 00000001800944dc     libmpg123:synth.obj
 0002:000244dc       $unwind$INT123_synth_2to1_i386 00000001800944dc     libmpg123:synth.obj
 0002:000244f8       $unwind$INT123_synth_2to1_mono 00000001800944f8     libmpg123:synth.obj
 0002:000244f8       $unwind$INT123_synth_1to1_8bit_mono 00000001800944f8     libmpg123:synth_8bit.obj
 0002:00024510       $unwind$INT123_synth_4to1_mono 0000000180094510     libmpg123:synth.obj
 0002:00024528       $unwind$INT123_synth_ntom_mono 0000000180094528     libmpg123:synth.obj
 0002:00024548       $unwind$INT123_synth_ntom  0000000180094548     libmpg123:synth.obj
 0002:00024560       $unwind$INT123_synth_1to1_real_mono 0000000180094560     libmpg123:synth_real.obj
 0002:0002457c       $unwind$INT123_synth_2to1_real_i386 000000018009457c     libmpg123:synth_real.obj
 0002:0002457c       $unwind$INT123_synth_1to1_real_i386 000000018009457c     libmpg123:synth_real.obj
 0002:0002457c       $unwind$INT123_synth_4to1_real_i386 000000018009457c     libmpg123:synth_real.obj
 0002:0002457c       $unwind$INT123_synth_4to1_8bit_i386 000000018009457c     libmpg123:synth_8bit.obj
 0002:0002457c       $unwind$INT123_synth_1to1_8bit_i386 000000018009457c     libmpg123:synth_8bit.obj
 0002:0002457c       $unwind$INT123_synth_2to1_8bit_i386 000000018009457c     libmpg123:synth_8bit.obj
 0002:00024598       $unwind$INT123_synth_1to1_8bit_wrap_mono 0000000180094598     libmpg123:synth_8bit.obj
 0002:00024598       $unwind$INT123_synth_2to1_real_mono 0000000180094598     libmpg123:synth_real.obj
 0002:000245b4       $unwind$INT123_synth_1to1_8bit_wrap 00000001800945b4     libmpg123:synth_8bit.obj
 0002:000245d4       $unwind$INT123_synth_2to1_8bit_mono 00000001800945d4     libmpg123:synth_8bit.obj
 0002:000245ec       $unwind$INT123_synth_4to1_8bit_mono 00000001800945ec     libmpg123:synth_8bit.obj
 0002:00024604       $unwind$INT123_synth_ntom_8bit_mono 0000000180094604     libmpg123:synth_8bit.obj
 0002:00024624       $unwind$INT123_synth_ntom_8bit 0000000180094624     libmpg123:synth_8bit.obj
 0002:00024640       $unwind$I_step_one         0000000180094640     libmpg123:layer1.obj
 0002:00024650       $chain$0$I_step_one        0000000180094650     libmpg123:layer1.obj
 0002:00024664       $chain$1$I_step_one        0000000180094664     libmpg123:layer1.obj
 0002:00024674       $unwind$I_step_two         0000000180094674     libmpg123:layer1.obj
 0002:00024694       $chain$0$I_step_two        0000000180094694     libmpg123:layer1.obj
 0002:000246a8       $chain$1$I_step_two        00000001800946a8     libmpg123:layer1.obj
 0002:000246b8       $unwind$INT123_do_layer1   00000001800946b8     libmpg123:layer1.obj
 0002:000246d8       $unwind$INT123_dct64       00000001800946d8     libmpg123:dct64.obj
 0002:000246f4       $unwind$dct64_1            00000001800946f4     libmpg123:dct64_i386.obj
 0002:00024700       $unwind$init_xrpow_core_sse 0000000180094700     liblamevectorroutines:xmm_quantize_sub.obj
 0002:00024714       xdata                      0000000180094714     node:node.exe
 0002:00024720       $xdatasym                  0000000180094720     LIBCMT:_amdsecgs_.obj
 0002:00024724       $unwind$?dllmain_crt_process_attach@@YAHQEAUHINSTANCE__@@QEAX@Z 0000000180094724     LIBCMT:dll_dllmain.obj
 0002:00024750       $unwind$?dllmain_crt_process_detach@@YAH_N@Z 0000000180094750     LIBCMT:dll_dllmain.obj
 0002:00024778       $unwind$?dllmain_dispatch@@YAHQEAUHINSTANCE__@@KQEAX@Z 0000000180094778     LIBCMT:dll_dllmain.obj
 0002:000247a0       $unwind$?filt$0@?0??dllmain_dispatch@@YAHQEAUHINSTANCE__@@KQEAX@Z@4HA 00000001800947a0     LIBCMT:dll_dllmain.obj
 0002:000247a8       $unwind$__report_securityfailure 00000001800947a8     LIBCMT:gs_report.obj
 0002:000247b0       $unwind$capture_previous_context 00000001800947b0     LIBCMT:gs_report.obj
 0002:000247bc       $unwind$__scrt_is_nonwritable_in_current_image 00000001800947bc     LIBCMT:utility.obj
 0002:000247dc       $unwind$__scrt_is_nonwritable_in_current_image$filt$0 00000001800947dc     LIBCMT:utility.obj
 0002:000247e4       $unwind$__scrt_initialize_onexit_tables 00000001800947e4     LIBCMT:utility.obj
 0002:000247f0       $unwind$__security_init_cookie 00000001800947f0     LIBCMT:gs_support.obj
 0002:000247fc       $unwind$__scrt_fastfail    00000001800947fc     LIBCMT:utility_desktop.obj
 0002:0002480c       $unwind$__isa_available_init 000000018009480c     LIBCMT:_cpu_disp_.obj
 0002:00024818       $xdatasym                  0000000180094818     LIBCMT:_guard_dispatch_.obj
 0002:00024820       $xdatasym                  0000000180094820     libvcruntime:memcpy.obj
 0002:00024824       $unwind$__telemetry_main_return_trigger 0000000180094824     libvcruntime:telemetry.obj
 0002:00024824       $unwind$__telemetry_main_invoke_trigger 0000000180094824     libvcruntime:telemetry.obj
 0002:0002483c       $unwind$?_TlgEnableCallback@__vcrt_trace_logging_provider@@YAXPEBU_GUID@@KE_K1PEAU_EVENT_FILTER_DESCRIPTOR@@PEAX@Z 000000018009483c     libvcruntime:telemetry.obj
 0002:00024858       $unwind$__C_specific_handler 0000000180094858     libvcruntime:_chandler_.obj
 0002:00024874       $unwind$_CxxThrowException 0000000180094874     libvcruntime:throw.obj
 0002:00024888       $xdatasym                  0000000180094888     libvcruntime:memset.obj
 0002:0002488c       $unwind$__acrt_initialize_stdio 000000018009488c     libucrt:_file.obj
 0002:0002488c       $unwind$__vcrt_EventSetInformation 000000018009488c     libvcruntime:winapi_downlevel.obj
 0002:0002488c       $unwind$__vcrt_EventRegister 000000018009488c     libvcruntime:winapi_downlevel.obj
 0002:0002488c       $unwind$_initterm          000000018009488c     libucrt:initterm.obj
 0002:0002488c       $unwind$??$process_string_specifier_tchar@D@?$input_processor@DV?$string_input_adapter@D@__crt_stdio_input@@@__crt_stdio_input@@AEAA_NW4conversion_mode@1@D@Z 000000018009488c     libucrt:input.obj
 0002:000248a4       $unwind$__vcrt_initialize_winapi_thunks 00000001800948a4     libvcruntime:winapi_downlevel.obj
 0002:000248a4       $unwind$__acrt_initialize_winapi_thunks 00000001800948a4     libucrt:winapi_thunks.obj
 0002:000248ac       $unwind$__acrt_stdio_end_temporary_buffering_nolock 00000001800948ac     libucrt:_sftbuf.obj
 0002:000248ac       $unwind$__vcrt_uninitialize_winapi_thunks 00000001800948ac     libvcruntime:winapi_downlevel.obj
 0002:000248b8       $xdatasym                  00000001800948b8     libvcruntime:_jmpuwind_.obj
 0002:000248cc       $unwind$_tolower_l         00000001800948cc     libucrt:tolower_toupper.obj
 0002:000248e0       $xdatasym                  00000001800948e0     libucrt:strncmp.obj
 0002:000248e4       $unwind$__stdio_common_vfprintf 00000001800948e4     libucrt:output.obj
 0002:000248ec       $unwind$__stdio_common_vsprintf 00000001800948ec     libucrt:output.obj
 0002:00024910       $unwind$??R<lambda_0a64b6a4deda75c01876f29c44fc5eb3>@@QEBAHXZ 0000000180094910     libucrt:output.obj
 0002:0002492c       $unwind$?write_string@?$string_output_adapter@D@__crt_stdio_output@@QEBAXQEBDHQEAH1@Z 000000018009492c     libucrt:output.obj
 0002:0002492c       $unwind$??R<lambda_4e60a939b0d047cfe11ddc22648dfba9>@@QEBAHXZ 000000018009492c     libucrt:onexit.obj
 0002:00024948       $unwind$?process@?$output_processor@DV?$string_output_adapter@D@__crt_stdio_output@@V?$standard_base@DV?$string_output_adapter@D@__crt_stdio_output@@@2@@__crt_stdio_output@@QEAAHXZ 0000000180094948     libucrt:output.obj
 0002:00024948       $unwind$?process@?$output_processor@DV?$stream_output_adapter@D@__crt_stdio_output@@V?$standard_base@DV?$stream_output_adapter@D@__crt_stdio_output@@@2@@__crt_stdio_output@@QEAAHXZ 0000000180094948     libucrt:output.obj
 0002:00024958       $unwind$?parse_int_from_format_string@?$output_processor@DV?$stream_output_adapter@D@__crt_stdio_output@@V?$standard_base@DV?$stream_output_adapter@D@__crt_stdio_output@@@2@@__crt_stdio_output@@AEAA_NQEAH@Z 0000000180094958     libucrt:output.obj
 0002:00024958       $unwind$?parse_int_from_format_string@?$output_processor@DV?$string_output_adapter@D@__crt_stdio_output@@V?$standard_base@DV?$string_output_adapter@D@__crt_stdio_output@@@2@@__crt_stdio_output@@AEAA_NQEAH@Z 0000000180094958     libucrt:output.obj
 0002:0002496c       $unwind$?state_case_type@?$output_processor@DV?$stream_output_adapter@D@__crt_stdio_output@@V?$standard_base@DV?$stream_output_adapter@D@__crt_stdio_output@@@2@@__crt_stdio_output@@AEAA_NXZ 000000018009496c     libucrt:output.obj
 0002:0002496c       $unwind$?state_case_type@?$output_processor@DV?$string_output_adapter@D@__crt_stdio_output@@V?$standard_base@DV?$string_output_adapter@D@__crt_stdio_output@@@2@@__crt_stdio_output@@AEAA_NXZ 000000018009496c     libucrt:output.obj
 0002:00024984       $unwind$?write_stored_string_tchar@?$output_processor@DV?$stream_output_adapter@D@__crt_stdio_output@@V?$standard_base@DV?$stream_output_adapter@D@__crt_stdio_output@@@2@@__crt_stdio_output@@AEAA_ND@Z 0000000180094984     libucrt:output.obj
 0002:00024984       $unwind$?write_stored_string_tchar@?$output_processor@DV?$string_output_adapter@D@__crt_stdio_output@@V?$standard_base@DV?$string_output_adapter@D@__crt_stdio_output@@@2@@__crt_stdio_output@@AEAA_ND@Z 0000000180094984     libucrt:output.obj
 0002:0002499c       $unwind$??$write_multiple_characters@V?$stream_output_adapter@D@__crt_stdio_output@@D@__crt_stdio_output@@YAXAEBV?$stream_output_adapter@D@0@DHQEAH@Z 000000018009499c     libucrt:output.obj
 0002:000249b4       $unwind$??$?RV<lambda_aa279a7bcb127014629d5b1d62c7325d>@@AEAV<lambda_0a64b6a4deda75c01876f29c44fc5eb3>@@V<lambda_3323e69fbefe9d1a11713e670d47cdfa>@@@?$__crt_seh_guarded_call@H@@QEAAH$$QEAV<lambda_aa279a7bcb127014629d5b1d62c7325d>@@AEAV<lambda_0a64b6a4deda75c01876f29c44fc5eb3>@@$$QEAV<lambda_3323e69fbefe9d1a11713e670d47cdfa>@@@Z 00000001800949b4     libucrt:output.obj
 0002:000249d8       $unwind$fflush             00000001800949d8     libucrt:fflush.obj
 0002:000249fc       $unwind$common_flush_all   00000001800949fc     libucrt:fflush.obj
 0002:00024a38       $xdatasym                  0000000180094a38     libucrt:strncpy.obj
 0002:00024a3c       $unwind$?common_exit@@YAXHW4_crt_exit_cleanup_mode@@W4_crt_exit_return_mode@@@Z 0000000180094a3c     libucrt:exit.obj
 0002:00024a7c       $unwind$?fin$0@?0???$common_lseek@_J@@YA_JH_JH@Z@4HA 0000000180094a7c     libucrt:lseek.obj
 0002:00024a7c       $unwind$_ctrlfp$filt$0     0000000180094a7c     libucrt:fpctrl.obj
 0002:00024a7c       $unwind$?fin$0@?0???$?RV<lambda_b8c45f8f788dd370798f47cfe8ac3a86>@@AEAV<lambda_4e60a939b0d047cfe11ddc22648dfba9>@@V<lambda_332c3edc96d0294ec56c57d38c1cdfd5>@@@?$__crt_seh_guarded_call@H@@QEAAH$$QEAV<lambda_b8c45f8f788dd370798f47cfe8ac3a86>@@AEAV<lambda_4e60a939b0d047cfe11ddc22648dfba9>@@$$QEAV<lambda_332c3edc96d0294ec56c57d38c1cdfd5>@@@Z@4HA 0000000180094a7c     libucrt:onexit.obj
 0002:00024a7c       $unwind$?fin$0@?0???$?RV<lambda_aa279a7bcb127014629d5b1d62c7325d>@@AEAV<lambda_0a64b6a4deda75c01876f29c44fc5eb3>@@V<lambda_3323e69fbefe9d1a11713e670d47cdfa>@@@?$__crt_seh_guarded_call@H@@QEAAH$$QEAV<lambda_aa279a7bcb127014629d5b1d62c7325d>@@AEAV<lambda_0a64b6a4deda75c01876f29c44fc5eb3>@@$$QEAV<lambda_3323e69fbefe9d1a11713e670d47cdfa>@@@Z@4HA 0000000180094a7c     libucrt:output.obj
 0002:00024a7c       $unwind$__acrt_update_thread_multibyte_data$fin$0 0000000180094a7c     libucrt:mbctype.obj
 0002:00024a7c       $unwind$?fin$0@?0???$?RV<lambda_bfedae4ebbf01fab1bb6dcc6a9e276e0>@@AEAV<lambda_2fe9b910cf3cbf4a0ab98a02ba45b3ec>@@V<lambda_237c231691f317818eb88cc1d5d642d6>@@@?$__crt_seh_guarded_call@H@@QEAAH$$QEAV<lambda_bfedae4ebbf01fab1bb6dcc6a9e276e0>@@AEAV<lambda_2fe9b910cf3cbf4a0ab98a02ba45b3ec>@@$$QEAV<lambda_237c231691f317818eb88cc1d5d642d6>@@@Z@4HA 0000000180094a7c     libucrt:close.obj
 0002:00024a7c       $unwind$?fin$0@?0???$common_lseek@J@@YAJHJH@Z@4HA 0000000180094a7c     libucrt:lseek.obj
 0002:00024a7c       $unwind$?fin$0@?0???$?RV<lambda_e24bbb7b643b32fcea6fa61b31d4c984>@@AEAV<lambda_275893d493268fdec8709772e3fcec0e>@@V<lambda_9d71df4d7cf3f480f8d633942495c3b0>@@@?$__crt_seh_guarded_call@H@@QEAAH$$QEAV<lambda_e24bbb7b643b32fcea6fa61b31d4c984>@@AEAV<lambda_275893d493268fdec8709772e3fcec0e>@@$$QEAV<lambda_9d71df4d7cf3f480f8d633942495c3b0>@@@Z@4HA 0000000180094a7c     libucrt:onexit.obj
 0002:00024a7c       $unwind$?fin$1@?0??common_exit@@YAXHW4_crt_exit_cleanup_mode@@W4_crt_exit_return_mode@@@Z@4HA 0000000180094a7c     libucrt:exit.obj
 0002:00024a7c       $unwind$?fin$0@?0???$?RV<lambda_fb3a7dec4e47f37f22dae91bb15c9095>@@AEAV<lambda_698284760c8add0bfb0756c19673e34b>@@V<lambda_dfb8eca1e75fef3034a8fb18dd509707>@@@?$__crt_seh_guarded_call@X@@QEAAX$$QEAV<lambda_fb3a7dec4e47f37f22dae91bb15c9095>@@AEAV<lambda_698284760c8add0bfb0756c19673e34b>@@$$QEAV<lambda_dfb8eca1e75fef3034a8fb18dd509707>@@@Z@4HA 0000000180094a7c     libucrt:per_thread_data.obj
 0002:00024a7c       $unwind$common_control87$filt$0 0000000180094a7c     libucrt:ieee.obj
 0002:00024a7c       $unwind$__acrt_lowio_ensure_fh_exists$fin$0 0000000180094a7c     libucrt:osfinfo.obj
 0002:00024a7c       $unwind$?fin$0@?0???$?RV<lambda_46352004c1216016012b18bd6f87e700>@@AEAV<lambda_3bd07e1a1191394380780325891bf33f>@@V<lambda_334532d3f185bcaa59b5be82d7d22bff>@@@?$__crt_seh_guarded_call@X@@QEAAX$$QEAV<lambda_46352004c1216016012b18bd6f87e700>@@AEAV<lambda_3bd07e1a1191394380780325891bf33f>@@$$QEAV<lambda_334532d3f185bcaa59b5be82d7d22bff>@@@Z@4HA 0000000180094a7c     libucrt:per_thread_data.obj
 0002:00024a7c       $unwind$fclose$fin$0       0000000180094a7c     libucrt:fclose.obj
 0002:00024a7c       $unwind$common_flush_all$fin$1 0000000180094a7c     libucrt:fflush.obj
 0002:00024a7c       $unwind$?fin$0@?0???$?RV<lambda_5e887d1dcbef67a5eb4283622ba103bf>@@AEAV<lambda_4466841279450cc726390878d4a41900>@@V<lambda_341c25c0346d94847f1f3c463c57e077>@@@?$__crt_seh_guarded_call@X@@QEAAX$$QEAV<lambda_5e887d1dcbef67a5eb4283622ba103bf>@@AEAV<lambda_4466841279450cc726390878d4a41900>@@$$QEAV<lambda_341c25c0346d94847f1f3c463c57e077>@@@Z@4HA 0000000180094a7c     libucrt:per_thread_data.obj
 0002:00024a7c       $unwind$fflush$fin$0       0000000180094a7c     libucrt:fflush.obj
 0002:00024a7c       $unwind$?fin$0@?0???$?RV<lambda_72d1df2b273a38828b1ce30cbf4cdab5>@@AEAV<lambda_876a65b173b8412d3a47c70a915b0cf4>@@V<lambda_41932305e351933ebe8f8be3ed8bb5dc>@@@?$__crt_seh_guarded_call@X@@QEAAX$$QEAV<lambda_72d1df2b273a38828b1ce30cbf4cdab5>@@AEAV<lambda_876a65b173b8412d3a47c70a915b0cf4>@@$$QEAV<lambda_41932305e351933ebe8f8be3ed8bb5dc>@@@Z@4HA 0000000180094a7c     libucrt:per_thread_data.obj
 0002:00024a7c       $unwind$?fin$0@?0??dllmain_crt_process_attach@@YAHQEAUHINSTANCE__@@QEAX@Z@4HA 0000000180094a7c     LIBCMT:dll_dllmain.obj
 0002:00024a7c       $unwind$?filt$0@?0??common_exit@@YAXHW4_crt_exit_cleanup_mode@@W4_crt_exit_return_mode@@@Z@4HA 0000000180094a7c     libucrt:exit.obj
 0002:00024a7c       $unwind$?fin$0@?0???$?RV<lambda_b521505b218e5242e90febf6bfebc422>@@AEAV<lambda_6978c1fb23f02e42e1d9e99668cc68aa>@@V<lambda_314360699dd331753a4119843814e9a7>@@@?$__crt_seh_guarded_call@H@@QEAAH$$QEAV<lambda_b521505b218e5242e90febf6bfebc422>@@AEAV<lambda_6978c1fb23f02e42e1d9e99668cc68aa>@@$$QEAV<lambda_314360699dd331753a4119843814e9a7>@@@Z@4HA 0000000180094a7c     libucrt:commit.obj
 0002:00024a7c       $unwind$_read$fin$0        0000000180094a7c     libucrt:read.obj
 0002:00024a7c       $unwind$?fin$0@?0??dllmain_crt_process_detach@@YAH_N@Z@4HA 0000000180094a7c     LIBCMT:dll_dllmain.obj
 0002:00024a7c       $unwind$raise$fin$0        0000000180094a7c     libucrt:signal.obj
 0002:00024a7c       $unwind$common_flush_all$fin$0 0000000180094a7c     libucrt:fflush.obj
 0002:00024a7c       $unwind$_query_new_handler$fin$0 0000000180094a7c     libucrt:new_handler.obj
 0002:00024a7c       $unwind$__acrt_initialize_lowio$fin$0 0000000180094a7c     libucrt:ioinit.obj
 0002:00024a7c       $unwind$?fin$0@?0???$?RV<lambda_c36588078e9f5dfd39652860aa6b3aaf>@@AEAV<lambda_ec61778202f4f5fc7e7711acc23c3bca>@@V<lambda_dc9d2797ccde5d239b4a0efae8ebd7db>@@@?$__crt_seh_guarded_call@P6AXH@Z@@QEAAP6AXH@Z$$QEAV<lambda_c36588078e9f5dfd39652860aa6b3aaf>@@AEAV<lambda_ec61778202f4f5fc7e7711acc23c3bca>@@$$QEAV<lambda_dc9d2797ccde5d239b4a0efae8ebd7db>@@@Z@4HA 0000000180094a7c     libucrt:signal.obj
 0002:00024a7c       $unwind$_IsNonwritableInCurrentImage$filt$0 0000000180094a7c     LIBCMT:pesect.obj
 0002:00024a7c       $unwind$_fcloseall$fin$0   0000000180094a7c     libucrt:closeall.obj
 0002:00024a7c       $unwind$__acrt_uninitialize_locale$fin$0 0000000180094a7c     libucrt:wsetlocale.obj
 0002:00024a7c       $unwind$?fin$0@?0???$?RV<lambda_99476a1ad63dd22509b5d3e65b0ffc95>@@AEAV<lambda_ad1ced32f4ac17aa236e5ef05d6b3b7c>@@V<lambda_f7424dd8d45958661754dc4f2697e9c3>@@@?$__crt_seh_guarded_call@X@@QEAAX$$QEAV<lambda_99476a1ad63dd22509b5d3e65b0ffc95>@@AEAV<lambda_ad1ced32f4ac17aa236e5ef05d6b3b7c>@@$$QEAV<lambda_f7424dd8d45958661754dc4f2697e9c3>@@@Z@4HA 0000000180094a7c     libucrt:mbctype.obj
 0002:00024a7c       $unwind$_write$fin$0       0000000180094a7c     libucrt:write.obj
 0002:00024a7c       $unwind$__acrt_update_thread_locale_data$fin$0 0000000180094a7c     libucrt:locale_refcounting.obj
 0002:00024a84       $unwind$qsort              0000000180094a84     libucrt:qsort.obj
 0002:00024a9c       $chain$4$qsort             0000000180094a9c     libucrt:qsort.obj
 0002:00024ac0       $chain$5$qsort             0000000180094ac0     libucrt:qsort.obj
 0002:00024ad0       $unwind$?shortsort@@YAXPEAD0_KP6AHPEBX2@Z@Z 0000000180094ad0     libucrt:qsort.obj
 0002:00024ae0       $chain$2$?shortsort@@YAXPEAD0_KP6AHPEBX2@Z@Z 0000000180094ae0     libucrt:qsort.obj
 0002:00024afc       $chain$3$?shortsort@@YAXPEAD0_KP6AHPEBX2@Z@Z 0000000180094afc     libucrt:qsort.obj
 0002:00024b0c       $unwind$?divide@__crt_strtox@@YA_KAEAUbig_integer@1@AEBU21@@Z 0000000180094b0c     libucrt:atof.obj
 0002:00024b2c       $chain$5$?divide@__crt_strtox@@YA_KAEAUbig_integer@1@AEBU21@@Z 0000000180094b2c     libucrt:atof.obj
 0002:00024b40       $chain$6$?divide@__crt_strtox@@YA_KAEAUbig_integer@1@AEBU21@@Z 0000000180094b40     libucrt:atof.obj
 0002:00024b50       $unwind$?assemble_floating_point_value@__crt_strtox@@YA?AW4SLD_STATUS@@_KH_N1AEBVfloating_point_value@1@@Z 0000000180094b50     libucrt:atof.obj
 0002:00024b68       $unwind$?convert_decimal_string_to_floating_type_common@__crt_strtox@@YA?AW4SLD_STATUS@@AEBUfloating_point_string@1@AEBVfloating_point_value@1@@Z 0000000180094b68     libucrt:atof.obj
 0002:00024b8c       $unwind$??$common_atof_l@D@@YANQEBDQEAU__crt_locale_pointers@@@Z 0000000180094b8c     libucrt:atof.obj
 0002:00024b94       $unwind$??$parse_floating_point@V?$c_string_character_source@D@__crt_strtox@@N@__crt_strtox@@YA?AW4SLD_STATUS@@QEAU__crt_locale_pointers@@V?$c_string_character_source@D@0@QEAN@Z 0000000180094b94     libucrt:atof.obj
 0002:00024b94       $unwind$??$parse_floating_point@V?$input_adapter_character_source@V?$string_input_adapter@D@__crt_stdio_input@@@__crt_strtox@@N@__crt_strtox@@YA?AW4SLD_STATUS@@QEAU__crt_locale_pointers@@V?$input_adapter_character_source@V?$string_input_adapter@D@__crt_stdio_input@@@0@QEAN@Z 0000000180094b94     libucrt:input.obj
 0002:00024b94       $unwind$??$parse_floating_point@V?$input_adapter_character_source@V?$string_input_adapter@D@__crt_stdio_input@@@__crt_strtox@@M@__crt_strtox@@YA?AW4SLD_STATUS@@QEAU__crt_locale_pointers@@V?$input_adapter_character_source@V?$string_input_adapter@D@__crt_stdio_input@@@0@QEAM@Z 0000000180094b94     libucrt:input.obj
 0002:00024bac       $unwind$??$parse_floating_point_from_source@V?$c_string_character_source@D@__crt_strtox@@@__crt_strtox@@YA?AW4floating_point_parse_result@0@QEAU__crt_locale_pointers@@AEAV?$c_string_character_source@D@0@AEAUfloating_point_string@0@@Z 0000000180094bac     libucrt:atof.obj
 0002:00024bc4       $unwind$??$parse_floating_point_possible_infinity@DV?$c_string_character_source@D@__crt_strtox@@PEBD@__crt_strtox@@YA?AW4floating_point_parse_result@0@AEADAEAV?$c_string_character_source@D@0@PEBD@Z 0000000180094bc4     libucrt:atof.obj
 0002:00024bd4       $unwind$__stdio_common_vsscanf 0000000180094bd4     libucrt:input.obj
 0002:00024bf8       $unwind$?write_character@?$input_processor@DV?$string_input_adapter@D@__crt_stdio_input@@@__crt_stdio_input@@AEAA_NQEFA_W_KAEAPEFA_WAEA_KD@Z 0000000180094bf8     libucrt:input.obj
 0002:00024c08       $unwind$?process_integer_specifier@?$input_processor@DV?$string_input_adapter@D@__crt_stdio_input@@@__crt_stdio_input@@AEAA_NI_N@Z 0000000180094c08     libucrt:input.obj
 0002:00024c1c       $unwind$??$process_string_specifier_tchar@_W@?$input_processor@DV?$string_input_adapter@D@__crt_stdio_input@@@__crt_stdio_input@@AEAA_NW4conversion_mode@1@_W@Z 0000000180094c1c     libucrt:input.obj
 0002:00024c34       $unwind$??$parse_integer@_KV?$input_adapter_character_source@V?$string_input_adapter@D@__crt_stdio_input@@@__crt_strtox@@@__crt_strtox@@YA_KQEAU__crt_locale_pointers@@V?$input_adapter_character_source@V?$string_input_adapter@D@__crt_stdio_input@@@0@H_N@Z 0000000180094c34     libucrt:input.obj
 0002:00024c34       $unwind$??$parse_integer@_KV?$c_string_character_source@D@__crt_strtox@@@__crt_strtox@@YA_KQEAU__crt_locale_pointers@@V?$c_string_character_source@D@0@H_N@Z 0000000180094c34     libucrt:strtox.obj
 0002:00024c34       $unwind$??$parse_integer@KV?$c_string_character_source@D@__crt_strtox@@@__crt_strtox@@YAKQEAU__crt_locale_pointers@@V?$c_string_character_source@D@0@H_N@Z 0000000180094c34     libucrt:strtox.obj
 0002:00024c50       $unwind$??$process_floating_point_specifier_t@M@?$input_processor@DV?$string_input_adapter@D@__crt_stdio_input@@@__crt_stdio_input@@AEAA_NXZ 0000000180094c50     libucrt:input.obj
 0002:00024c50       $unwind$??$process_floating_point_specifier_t@N@?$input_processor@DV?$string_input_adapter@D@__crt_stdio_input@@@__crt_stdio_input@@AEAA_NXZ 0000000180094c50     libucrt:input.obj
 0002:00024c5c       $unwind$??$parse_floating_point_from_source@V?$input_adapter_character_source@V?$string_input_adapter@D@__crt_stdio_input@@@__crt_strtox@@@__crt_strtox@@YA?AW4floating_point_parse_result@0@QEAU__crt_locale_pointers@@AEAV?$input_adapter_character_source@V?$string_input_adapter@D@__crt_stdio_input@@@0@AEAUfloating_point_string@0@@Z 0000000180094c5c     libucrt:input.obj
 0002:00024c74       $unwind$??$parse_floating_point_possible_infinity@DV?$input_adapter_character_source@V?$string_input_adapter@D@__crt_stdio_input@@@__crt_strtox@@_K@__crt_strtox@@YA?AW4floating_point_parse_result@0@AEADAEAV?$input_adapter_character_source@V?$string_input_adapter@D@__crt_stdio_input@@@0@_K@Z 0000000180094c74     libucrt:input.obj
 0002:00024c7c       $unwind$??$parse_floating_point_possible_nan@DV?$c_string_character_source@D@__crt_strtox@@PEBD@__crt_strtox@@YA?AW4floating_point_parse_result@0@AEADAEAV?$c_string_character_source@D@0@PEBD@Z 0000000180094c7c     libucrt:atof.obj
 0002:00024c7c       $unwind$??$parse_floating_point_possible_nan@DV?$input_adapter_character_source@V?$string_input_adapter@D@__crt_stdio_input@@@__crt_strtox@@_K@__crt_strtox@@YA?AW4floating_point_parse_result@0@AEADAEAV?$input_adapter_character_source@V?$string_input_adapter@D@__crt_stdio_input@@@0@_K@Z 0000000180094c7c     libucrt:input.obj
 0002:00024c88       $unwind$_close             0000000180094c88     libucrt:close.obj
 0002:00024c88       $unwind$_commit            0000000180094c88     libucrt:commit.obj
 0002:00024c90       $unwind$??$?RV<lambda_bfedae4ebbf01fab1bb6dcc6a9e276e0>@@AEAV<lambda_2fe9b910cf3cbf4a0ab98a02ba45b3ec>@@V<lambda_237c231691f317818eb88cc1d5d642d6>@@@?$__crt_seh_guarded_call@H@@QEAAH$$QEAV<lambda_bfedae4ebbf01fab1bb6dcc6a9e276e0>@@AEAV<lambda_2fe9b910cf3cbf4a0ab98a02ba45b3ec>@@$$QEAV<lambda_237c231691f317818eb88cc1d5d642d6>@@@Z 0000000180094c90     libucrt:close.obj
 0002:00024cb4       $unwind$_query_new_handler 0000000180094cb4     libucrt:new_handler.obj
 0002:00024cd4       $unwind$??$free_environment@_W@@YAXQEAPEA_W@Z 0000000180094cd4     libucrt:environment_initialization.obj
 0002:00024cd4       $unwind$??$free_environment@D@@YAXQEAPEAD@Z 0000000180094cd4     libucrt:environment_initialization.obj
 0002:00024ce0       $unwind$_register_onexit_function 0000000180094ce0     libucrt:onexit.obj
 0002:00024ce8       $unwind$_execute_onexit_table 0000000180094ce8     libucrt:onexit.obj
 0002:00024cf0       $unwind$??$?RV<lambda_b8c45f8f788dd370798f47cfe8ac3a86>@@AEAV<lambda_4e60a939b0d047cfe11ddc22648dfba9>@@V<lambda_332c3edc96d0294ec56c57d38c1cdfd5>@@@?$__crt_seh_guarded_call@H@@QEAAH$$QEAV<lambda_b8c45f8f788dd370798f47cfe8ac3a86>@@AEAV<lambda_4e60a939b0d047cfe11ddc22648dfba9>@@$$QEAV<lambda_332c3edc96d0294ec56c57d38c1cdfd5>@@@Z 0000000180094cf0     libucrt:onexit.obj
 0002:00024d14       $unwind$??$?RV<lambda_e24bbb7b643b32fcea6fa61b31d4c984>@@AEAV<lambda_275893d493268fdec8709772e3fcec0e>@@V<lambda_9d71df4d7cf3f480f8d633942495c3b0>@@@?$__crt_seh_guarded_call@H@@QEAAH$$QEAV<lambda_e24bbb7b643b32fcea6fa61b31d4c984>@@AEAV<lambda_275893d493268fdec8709772e3fcec0e>@@$$QEAV<lambda_9d71df4d7cf3f480f8d633942495c3b0>@@@Z 0000000180094d14     libucrt:onexit.obj
 0002:00024d44       $unwind$terminate          0000000180094d44     libucrt:terminate.obj
 0002:00024d64       $unwind$_read              0000000180094d64     libucrt:read.obj
 0002:00024d90       $unwind$_read_nolock       0000000180094d90     libucrt:read.obj
 0002:00024da8       $unwind$?translate_ansi_or_utf8_nolock@@YAHHQEAD_KQEA_W1@Z 0000000180094da8     libucrt:read.obj
 0002:00024dc0       $unwind$?common_lseek_do_seek_nolock@@YAJQEAXJH@Z 0000000180094dc0     libucrt:lseek.obj
 0002:00024dd0       $unwind$??$common_lseek@J@@YAJHJH@Z 0000000180094dd0     libucrt:lseek.obj
 0002:00024e00       $unwind$??$common_lseek@_J@@YA_JH_JH@Z 0000000180094e00     libucrt:lseek.obj
 0002:00024e30       $unwind$__acrt_call_reportfault 0000000180094e30     libucrt:invalid_parameter.obj
 0002:00024e50       $unwind$__vcrt_EventWriteTransfer 0000000180094e50     libvcruntime:winapi_downlevel.obj
 0002:00024e50       $unwind$_invalid_parameter 0000000180094e50     libucrt:invalid_parameter.obj
 0002:00024e68       $unwind$__acrt_get_sigabrt_handler 0000000180094e68     libucrt:signal.obj
 0002:00024e70       $unwind$raise              0000000180094e70     libucrt:signal.obj
 0002:00024e9c       $unwind$??$?RV<lambda_c36588078e9f5dfd39652860aa6b3aaf>@@AEAV<lambda_ec61778202f4f5fc7e7711acc23c3bca>@@V<lambda_dc9d2797ccde5d239b4a0efae8ebd7db>@@@?$__crt_seh_guarded_call@P6AXH@Z@@QEAAP6AXH@Z$$QEAV<lambda_c36588078e9f5dfd39652860aa6b3aaf>@@AEAV<lambda_ec61778202f4f5fc7e7711acc23c3bca>@@$$QEAV<lambda_dc9d2797ccde5d239b4a0efae8ebd7db>@@@Z 0000000180094e9c     libucrt:signal.obj
 0002:00024ec0       $unwind$?construct_ptd_array@@YAXQEAU__acrt_ptd@@@Z 0000000180094ec0     libucrt:per_thread_data.obj
 0002:00024ec8       $unwind$?destroy_ptd_array@@YAXQEAU__acrt_ptd@@@Z 0000000180094ec8     libucrt:per_thread_data.obj
 0002:00024ed0       $unwind$??$?RV<lambda_72d1df2b273a38828b1ce30cbf4cdab5>@@AEAV<lambda_876a65b173b8412d3a47c70a915b0cf4>@@V<lambda_41932305e351933ebe8f8be3ed8bb5dc>@@@?$__crt_seh_guarded_call@X@@QEAAX$$QEAV<lambda_72d1df2b273a38828b1ce30cbf4cdab5>@@AEAV<lambda_876a65b173b8412d3a47c70a915b0cf4>@@$$QEAV<lambda_41932305e351933ebe8f8be3ed8bb5dc>@@@Z 0000000180094ed0     libucrt:per_thread_data.obj
 0002:00024ef4       $unwind$??$?RV<lambda_5e887d1dcbef67a5eb4283622ba103bf>@@AEAV<lambda_4466841279450cc726390878d4a41900>@@V<lambda_341c25c0346d94847f1f3c463c57e077>@@@?$__crt_seh_guarded_call@X@@QEAAX$$QEAV<lambda_5e887d1dcbef67a5eb4283622ba103bf>@@AEAV<lambda_4466841279450cc726390878d4a41900>@@$$QEAV<lambda_341c25c0346d94847f1f3c463c57e077>@@@Z 0000000180094ef4     libucrt:per_thread_data.obj
 0002:00024f18       $unwind$??$?RV<lambda_46352004c1216016012b18bd6f87e700>@@AEAV<lambda_3bd07e1a1191394380780325891bf33f>@@V<lambda_334532d3f185bcaa59b5be82d7d22bff>@@@?$__crt_seh_guarded_call@X@@QEAAX$$QEAV<lambda_46352004c1216016012b18bd6f87e700>@@AEAV<lambda_3bd07e1a1191394380780325891bf33f>@@$$QEAV<lambda_334532d3f185bcaa59b5be82d7d22bff>@@@Z 0000000180094f18     libucrt:per_thread_data.obj
 0002:00024f3c       $unwind$??$?RV<lambda_fb3a7dec4e47f37f22dae91bb15c9095>@@AEAV<lambda_698284760c8add0bfb0756c19673e34b>@@V<lambda_dfb8eca1e75fef3034a8fb18dd509707>@@@?$__crt_seh_guarded_call@X@@QEAAX$$QEAV<lambda_fb3a7dec4e47f37f22dae91bb15c9095>@@AEAV<lambda_698284760c8add0bfb0756c19673e34b>@@$$QEAV<lambda_dfb8eca1e75fef3034a8fb18dd509707>@@@Z 0000000180094f3c     libucrt:per_thread_data.obj
 0002:00024f60       $unwind$__acrt_uninitialize_locale 0000000180094f60     libucrt:wsetlocale.obj
 0002:00024f80       $unwind$__acrt_initialize_lowio 0000000180094f80     libucrt:ioinit.obj
 0002:00024fa0       $unwind$?initialize_inherited_file_handles_nolock@@YAXXZ 0000000180094fa0     libucrt:ioinit.obj
 0002:00024fbc       $unwind$?initialize_stdio_handles_nolock@@YAXXZ 0000000180094fbc     libucrt:ioinit.obj
 0002:00024fbc       $unwind$__std_exception_copy 0000000180094fbc     libvcruntime:std_exception.obj
 0002:00024fbc       $unwind$_free_osfhnd       0000000180094fbc     libucrt:osfinfo.obj
 0002:00024fd0       $unwind$_isctype_l         0000000180094fd0     libucrt:isctype.obj
 0002:00024fec       $unwind$__acrt_LCMapStringA 0000000180094fec     libucrt:lcmapstringa.obj
 0002:00024ffc       $unwind$?__acrt_LCMapStringA_stat@@YAHPEAU__crt_locale_pointers@@PEB_WKPEBDHPEADHHH@Z 0000000180094ffc     libucrt:lcmapstringa.obj
 0002:00025024       $unwind$__acrt_LCMapStringEx 0000000180095024     libucrt:winapi_thunks.obj
 0002:00025024       $unwind$_mbtowc_l          0000000180095024     libucrt:mbtowc.obj
 0002:0002503c       $unwind$_wctomb_s_l        000000018009503c     libucrt:wctomb.obj
 0002:0002504c       $unwind$strnlen            000000018009504c     libucrt:strnlen.obj
 0002:0002504c       $unwind$wcsnlen            000000018009504c     libucrt:strnlen.obj
 0002:00025054       $unwind$__acrt_fp_format   0000000180095054     libucrt:cvt.obj
 0002:00025070       $unwind$?fp_format_nan_or_infinity@@YAHW4__acrt_fp_class@@_NPEAD_K1@Z 0000000180095070     libucrt:cvt.obj
 0002:00025084       $unwind$?fp_format_e_internal@@YAHQEAD_KH_NIQEAU_strflt@@2QEAU__crt_locale_pointers@@@Z 0000000180095084     libucrt:cvt.obj
 0002:0002509c       $unwind$?fp_format_e@@YAHQEBNQEAD_K12H_NIQEAU__crt_locale_pointers@@@Z 000000018009509c     libucrt:cvt.obj
 0002:000250b0       $unwind$?fp_format_a@@YAHQEBNPEAD_KQEAD2H_NIQEAU__crt_locale_pointers@@@Z 00000001800950b0     libucrt:cvt.obj
 0002:000250cc       $unwind$?fp_format_g@@YAHQEBNQEAD_K12H_NIQEAU__crt_locale_pointers@@@Z 00000001800950cc     libucrt:cvt.obj
 0002:000250e0       $unwind$_fcloseall         00000001800950e0     libucrt:closeall.obj
 0002:00025104       $unwind$??$?RV<lambda_b521505b218e5242e90febf6bfebc422>@@AEAV<lambda_6978c1fb23f02e42e1d9e99668cc68aa>@@V<lambda_314360699dd331753a4119843814e9a7>@@@?$__crt_seh_guarded_call@H@@QEAAH$$QEAV<lambda_b521505b218e5242e90febf6bfebc422>@@AEAV<lambda_6978c1fb23f02e42e1d9e99668cc68aa>@@$$QEAV<lambda_314360699dd331753a4119843814e9a7>@@@Z 0000000180095104     libucrt:commit.obj
 0002:00025128       $unwind$_write             0000000180095128     libucrt:write.obj
 0002:00025158       $unwind$_write_nolock      0000000180095158     libucrt:write.obj
 0002:00025170       $unwind$?write_double_translated_ansi_nolock@@YA?AUwrite_result@?A0x9c548279@@HQEBDI@Z 0000000180095170     libucrt:write.obj
 0002:00025190       $unwind$?write_text_ansi_nolock@@YA?AUwrite_result@?A0x9c548279@@HQEBDI@Z 0000000180095190     libucrt:write.obj
 0002:00025190       $unwind$?write_text_utf16le_nolock@@YA?AUwrite_result@?A0x9c548279@@HQEBDI@Z 0000000180095190     libucrt:write.obj
 0002:000251b0       $unwind$?write_text_utf8_nolock@@YA?AUwrite_result@?A0x9c548279@@HQEBDI@Z 00000001800951b0     libucrt:write.obj
 0002:000251d4       $unwind$??$write_buffer_nolock@D@@YA_NDV__crt_stdio_stream@@@Z 00000001800951d4     libucrt:_flsbuf.obj
 0002:000251e4       $unwind$__acrt_lowio_destroy_handle_array 00000001800951e4     libucrt:osfinfo.obj
 0002:000251f4       $unwind$__acrt_lowio_ensure_fh_exists 00000001800951f4     libucrt:osfinfo.obj
 0002:00025220       $unwind$__acrt_update_thread_multibyte_data 0000000180095220     libucrt:mbctype.obj
 0002:00025244       $unwind$_setmbcp_nolock    0000000180095244     libucrt:mbctype.obj
 0002:00025264       $unwind$?setSBUpLow@@YAXPEAU__crt_multibyte_data@@@Z 0000000180095264     libucrt:mbctype.obj
 0002:00025280       $unwind$?setmbcp_internal@@YAHH_N@Z 0000000180095280     libucrt:mbctype.obj
 0002:00025290       $unwind$??$?RV<lambda_99476a1ad63dd22509b5d3e65b0ffc95>@@AEAV<lambda_ad1ced32f4ac17aa236e5ef05d6b3b7c>@@V<lambda_f7424dd8d45958661754dc4f2697e9c3>@@@?$__crt_seh_guarded_call@X@@QEAAX$$QEAV<lambda_99476a1ad63dd22509b5d3e65b0ffc95>@@AEAV<lambda_ad1ced32f4ac17aa236e5ef05d6b3b7c>@@$$QEAV<lambda_f7424dd8d45958661754dc4f2697e9c3>@@@Z 0000000180095290     libucrt:mbctype.obj
 0002:000252b4       $unwind$__dcrt_get_narrow_environment_from_os 00000001800952b4     libucrt:get_environment_from_os.obj
 0002:000252b4       $unwind$?fp_format_f_internal@@YAHQEAD_KHQEAU_strflt@@_NQEAU__crt_locale_pointers@@@Z 00000001800952b4     libucrt:cvt.obj
 0002:000252cc       $unwind$__acrt_update_thread_locale_data 00000001800952cc     libucrt:locale_refcounting.obj
 0002:000252f0       $unwind$__acrt_locale_free_monetary 00000001800952f0     libucrt:initmon.obj
 0002:000252f8       $unwind$__acrt_locale_free_time 00000001800952f8     libucrt:inittime.obj
 0002:00025308       $unwind$__acrt_GetStringTypeA 0000000180095308     libucrt:getstringtypea.obj
 0002:00025330       $unwind$__acrt_fltout      0000000180095330     libucrt:cfout.obj
 0002:00025350       $unwind$?GetTableIndexFromLocaleName@@YAHPEB_W@Z 0000000180095350     libucrt:lcidtoname_downlevel.obj
 0002:00025368       $unwind$fclose             0000000180095368     libucrt:fclose.obj
 0002:0002538c       $unwind$_putwch_nolock     000000018009538c     libucrt:putwch.obj
 0002:0002538c       $unwind$__report_gsfailure 000000018009538c     LIBCMT:gs_report.obj
 0002:00025398       $xdatasym                  0000000180095398     libucrt:log10.obj
 0002:000253a4       $unwind$__dcrt_lowio_initialize_console_output 00000001800953a4     libucrt:initcon.obj
 0002:000253a4       $unwind$_raise_exc         00000001800953a4     libucrt:fpexcept.obj
 0002:000253a4       $unwind$?__scrt_throw_std_bad_alloc@@YAXXZ 00000001800953a4     LIBCMT:throw_bad_alloc.obj
 0002:000253a4       $unwind$_raise_excf        00000001800953a4     libucrt:fpexcept.obj
 0002:000253a4       $unwind$?__scrt_throw_std_bad_array_new_length@@YAXXZ 00000001800953a4     LIBCMT:throw_bad_alloc.obj
 0002:000253ac       $unwind$common_control87   00000001800953ac     libucrt:ieee.obj
 0002:000253e0       $xdatasym                  00000001800953e0     libucrt:fpsr.obj
 0002:000253e8       $unwind$_call_matherr      00000001800953e8     libucrt:libm_error.obj
 0002:000253f0       $unwind$_handle_errorf     00000001800953f0     libucrt:libm_error.obj
 0002:000253f0       $unwind$_handle_error      00000001800953f0     libucrt:libm_error.obj
 0002:00025410       $unwind$__acrt_initialize_fma3 0000000180095410     libucrt:fma3_available.obj
 0002:00025418       $unwind$_logf_special_common 0000000180095418     libucrt:log_special.obj
 0002:00025424       $unwind$_exp_special       0000000180095424     libucrt:exp_special.obj
 0002:00025424       $unwind$_log_special_common 0000000180095424     libucrt:log_special.obj
 0002:00025430       $unwind$_raise_exc_ex      0000000180095430     libucrt:fpexcept.obj
 0002:00025444       $unwind$_ctrlfp            0000000180095444     libucrt:fpctrl.obj
 0002:0002546c       $unwind$?DloadMakePermanentImageCommit@@YAXPEAX_K@Z 000000018009546c     DelayImp:delayhlp.obj
 0002:00025478       $unwind$?DloadProtectSection@@YAXKPEAK@Z 0000000180095478     DelayImp:delayhlp.obj
 0002:00025488       $unwind$__delayLoadHelper2 0000000180095488     DelayImp:delayhlp.obj
 0002:000254a0       $unwind$__GSHandlerCheckCommon 00000001800954a0     LIBCMT:_gshandler_.obj
 0002:000254a8       $unwind$_IsNonwritableInCurrentImage 00000001800954a8     LIBCMT:pesect.obj
 0002:000254d0       $xdatasym                  00000001800954d0     LIBCMT:_chkstk_.obj
 0002:000254d8       $xdatasym                  00000001800954d8     libvcruntime:memcmp.obj
 0002:000254e0       $xdatasym                  00000001800954e0     LIBCMT:_svml_dcos2_sse2_.obj
 0002:00025510       $xdatasym                  0000000180095510     LIBCMT:_svml_dlog2_sse2_.obj
 0002:00025520       $xdatasym                  0000000180095520     LIBCMT:_svml_dpow2_sse2_.obj
 0002:00025564       $unwind$atan               0000000180095564     libucrt:atan.obj
 0002:00025570       $xdatasym                  0000000180095570     libucrt:cos.obj
 0002:00025578       $xdatasym                  0000000180095578     libucrt:exp.obj
 0002:00025580       $xdatasym                  0000000180095580     libucrt:log.obj
 0002:00025590       $xdatasym                  0000000180095590     libucrt:log10f.obj
 0002:00025598       $xdatasym                  0000000180095598     libucrt:pow.obj
 0002:000255a8       $xdatasym                  00000001800955a8     libucrt:powf.obj
 0002:000255b8       $xdatasym                  00000001800955b8     libucrt:sin.obj
 0002:000255c0       $unwind$sqrt               00000001800955c0     libucrt:sqrt.obj
 0002:000255c8       $xdatasym                  00000001800955c8     libucrt:tan.obj
 0002:000255e8       $xdatasym                  00000001800955e8     libucrt:remainder_piby2_forasm.obj
 0002:000255f8       $xdatasym                  00000001800955f8     libucrt:remainder_piby2_forfma3.obj
 0002:00025604       $unwind$_powf_special      0000000180095604     libucrt:pow_special.obj
 0002:00025614       $unwind$_pow_special       0000000180095614     libucrt:pow_special.obj
 0002:00027400       .edata                     0000000180097400     bindings.exp
 0002:00027428       rgpv                       0000000180097428     bindings.exp
 0002:00027914       rgszName                   0000000180097914     bindings.exp
 0002:00027e00       rgwOrd                     0000000180097e00     bindings.exp
 0002:00028076       szName                     0000000180098076     bindings.exp
 0002:00028084       $N00001                    0000000180098084     bindings.exp
 0002:000280b1       $N00002                    00000001800980b1     bindings.exp
 0002:000280d6       $N00003                    00000001800980d6     bindings.exp
 0002:000280ff       $N00004                    00000001800980ff     bindings.exp
 0002:00028123       $N00005                    0000000180098123     bindings.exp
 0002:0002814d       $N00006                    000000018009814d     bindings.exp
 0002:0002817b       $N00007                    000000018009817b     bindings.exp
 0002:000281a1       $N00008                    00000001800981a1     bindings.exp
 0002:000281d5       $N00009                    00000001800981d5     bindings.exp
 0002:0002820c       $N00010                    000000018009820c     bindings.exp
 0002:0002823d       $N00011                    000000018009823d     bindings.exp
 0002:0002826b       $N00012                    000000018009826b     bindings.exp
 0002:00028292       $N00013                    0000000180098292     bindings.exp
 0002:000282cd       $N00014                    00000001800982cd     bindings.exp
 0002:00028300       $N00015                    0000000180098300     bindings.exp
 0002:0002832d       $N00016                    000000018009832d     bindings.exp
 0002:0002835e       $N00017                    000000018009835e     bindings.exp
 0002:00028379       $N00018                    0000000180098379     bindings.exp
 0002:0002839d       $N00019                    000000018009839d     bindings.exp
 0002:000283cb       $N00020                    00000001800983cb     bindings.exp
 0002:000283f2       $N00021                    00000001800983f2     bindings.exp
 0002:00028416       $N00022                    0000000180098416     bindings.exp
 0002:0002843c       $N00023                    000000018009843c     bindings.exp
 0002:00028461       $N00024                    0000000180098461     bindings.exp
 0002:00028485       $N00025                    0000000180098485     bindings.exp
 0002:0002849e       $N00026                    000000018009849e     bindings.exp
 0002:000284d2       $N00027                    00000001800984d2     bindings.exp
 0002:00028503       $N00028                    0000000180098503     bindings.exp
 0002:0002852a       $N00029                    000000018009852a     bindings.exp
 0002:0002855d       $N00030                    000000018009855d     bindings.exp
 0002:0002858a       $N00031                    000000018009858a     bindings.exp
 0002:000285bb       $N00032                    00000001800985bb     bindings.exp
 0002:000285e2       $N00033                    00000001800985e2     bindings.exp
 0002:000285ff       $N00034                    00000001800985ff     bindings.exp
 0002:0002862f       $N00035                    000000018009862f     bindings.exp
 0002:0002865d       $N00036                    000000018009865d     bindings.exp
 0002:00028691       $N00037                    0000000180098691     bindings.exp
 0002:000286b5       $N00038                    00000001800986b5     bindings.exp
 0002:000286d7       $N00039                    00000001800986d7     bindings.exp
 0002:00028701       $N00040                    0000000180098701     bindings.exp
 0002:00028729       $N00041                    0000000180098729     bindings.exp
 0002:00028757       $N00042                    0000000180098757     bindings.exp
 0002:00028783       $N00043                    0000000180098783     bindings.exp
 0002:000287a9       $N00044                    00000001800987a9     bindings.exp
 0002:000287cd       $N00045                    00000001800987cd     bindings.exp
 0002:000287f9       $N00046                    00000001800987f9     bindings.exp
 0002:00028823       $N00047                    0000000180098823     bindings.exp
 0002:00028858       $N00048                    0000000180098858     bindings.exp
 0002:0002888b       $N00049                    000000018009888b     bindings.exp
 0002:000288c6       $N00050                    00000001800988c6     bindings.exp
 0002:000288ff       $N00051                    00000001800988ff     bindings.exp
 0002:00028925       $N00052                    0000000180098925     bindings.exp
 0002:00028949       $N00053                    0000000180098949     bindings.exp
 0002:0002896c       $N00054                    000000018009896c     bindings.exp
 0002:0002898d       $N00055                    000000018009898d     bindings.exp
 0002:000289b4       $N00056                    00000001800989b4     bindings.exp
 0002:000289d9       $N00057                    00000001800989d9     bindings.exp
 0002:000289fc       $N00058                    00000001800989fc     bindings.exp
 0002:00028a1d       $N00059                    0000000180098a1d     bindings.exp
 0002:00028a45       $N00060                    0000000180098a45     bindings.exp
 0002:00028a6b       $N00061                    0000000180098a6b     bindings.exp
 0002:00028a92       $N00062                    0000000180098a92     bindings.exp
 0002:00028ab7       $N00063                    0000000180098ab7     bindings.exp
 0002:00028aeb       $N00064                    0000000180098aeb     bindings.exp
 0002:00028b2d       $N00065                    0000000180098b2d     bindings.exp
 0002:00028b58       $N00066                    0000000180098b58     bindings.exp
 0002:00028b81       $N00067                    0000000180098b81     bindings.exp
 0002:00028bac       $N00068                    0000000180098bac     bindings.exp
 0002:00028bd5       $N00069                    0000000180098bd5     bindings.exp
 0002:00028bfc       $N00070                    0000000180098bfc     bindings.exp
 0002:00028c21       $N00071                    0000000180098c21     bindings.exp
 0002:00028c50       $N00072                    0000000180098c50     bindings.exp
 0002:00028c7d       $N00073                    0000000180098c7d     bindings.exp
 0002:00028cb0       $N00074                    0000000180098cb0     bindings.exp
 0002:00028ce1       $N00075                    0000000180098ce1     bindings.exp
 0002:00028d13       $N00076                    0000000180098d13     bindings.exp
 0002:00028d43       $N00077                    0000000180098d43     bindings.exp
 0002:00028d70       $N00078                    0000000180098d70     bindings.exp
 0002:00028d9b       $N00079                    0000000180098d9b     bindings.exp
 0002:00028dc4       $N00080                    0000000180098dc4     bindings.exp
 0002:00028deb       $N00081                    0000000180098deb     bindings.exp
 0002:00028e0f       $N00082                    0000000180098e0f     bindings.exp
 0002:00028e31       $N00083                    0000000180098e31     bindings.exp
 0002:00028e5a       $N00084                    0000000180098e5a     bindings.exp
 0002:00028e81       $N00085                    0000000180098e81     bindings.exp
 0002:00028ea9       $N00086                    0000000180098ea9     bindings.exp
 0002:00028ecf       $N00087                    0000000180098ecf     bindings.exp
 0002:00028ef5       $N00088                    0000000180098ef5     bindings.exp
 0002:00028f19       $N00089                    0000000180098f19     bindings.exp
 0002:00028f3c       $N00090                    0000000180098f3c     bindings.exp
 0002:00028f5d       $N00091                    0000000180098f5d     bindings.exp
 0002:00028f7f       $N00092                    0000000180098f7f     bindings.exp
 0002:00028f9f       $N00093                    0000000180098f9f     bindings.exp
 0002:00028fc5       $N00094                    0000000180098fc5     bindings.exp
 0002:00028fe9       $N00095                    0000000180098fe9     bindings.exp
 0002:0002900c       $N00096                    000000018009900c     bindings.exp
 0002:0002902d       $N00097                    000000018009902d     bindings.exp
 0002:00029059       $N00098                    0000000180099059     bindings.exp
 0002:00029083       $N00099                    0000000180099083     bindings.exp
 0002:000290a8       $N00100                    00000001800990a8     bindings.exp
 0002:000290cb       $N00101                    00000001800990cb     bindings.exp
 0002:000290f6       $N00102                    00000001800990f6     bindings.exp
 0002:0002911f       $N00103                    000000018009911f     bindings.exp
 0002:00029144       $N00104                    0000000180099144     bindings.exp
 0002:00029167       $N00105                    0000000180099167     bindings.exp
 0002:00029194       $N00106                    0000000180099194     bindings.exp
 0002:000291bf       $N00107                    00000001800991bf     bindings.exp
 0002:000291f3       $N00108                    00000001800991f3     bindings.exp
 0002:0002921b       $N00109                    000000018009921b     bindings.exp
 0002:00029241       $N00110                    0000000180099241     bindings.exp
 0002:00029267       $N00111                    0000000180099267     bindings.exp
 0002:0002928b       $N00112                    000000018009928b     bindings.exp
 0002:000292b0       $N00113                    00000001800992b0     bindings.exp
 0002:000292d3       $N00114                    00000001800992d3     bindings.exp
 0002:00029304       $N00115                    0000000180099304     bindings.exp
 0002:00029333       $N00116                    0000000180099333     bindings.exp
 0002:00029365       $N00117                    0000000180099365     bindings.exp
 0002:00029395       $N00118                    0000000180099395     bindings.exp
 0002:000293ba       $N00119                    00000001800993ba     bindings.exp
 0002:000293dd       $N00120                    00000001800993dd     bindings.exp
 0002:0002940a       $N00121                    000000018009940a     bindings.exp
 0002:00029435       $N00122                    0000000180099435     bindings.exp
 0002:00029457       $N00123                    0000000180099457     bindings.exp
 0002:00029477       $N00124                    0000000180099477     bindings.exp
 0002:000294a7       $N00125                    00000001800994a7     bindings.exp
 0002:000294d5       $N00126                    00000001800994d5     bindings.exp
 0002:000294fd       $N00127                    00000001800994fd     bindings.exp
 0002:00029523       $N00128                    0000000180099523     bindings.exp
 0002:0002954c       $N00129                    000000018009954c     bindings.exp
 0002:00029573       $N00130                    0000000180099573     bindings.exp
 0002:0002959c       $N00131                    000000018009959c     bindings.exp
 0002:000295c3       $N00132                    00000001800995c3     bindings.exp
 0002:000295ed       $N00133                    00000001800995ed     bindings.exp
 0002:00029615       $N00134                    0000000180099615     bindings.exp
 0002:0002963a       $N00135                    000000018009963a     bindings.exp
 0002:0002965d       $N00136                    000000018009965d     bindings.exp
 0002:00029688       $N00137                    0000000180099688     bindings.exp
 0002:000296b1       $N00138                    00000001800996b1     bindings.exp
 0002:000296d6       $N00139                    00000001800996d6     bindings.exp
 0002:000296f9       $N00140                    00000001800996f9     bindings.exp
 0002:00029724       $N00141                    0000000180099724     bindings.exp
 0002:0002974d       $N00142                    000000018009974d     bindings.exp
 0002:00029774       $N00143                    0000000180099774     bindings.exp
 0002:00029799       $N00144                    0000000180099799     bindings.exp
 0002:000297c2       $N00145                    00000001800997c2     bindings.exp
 0002:000297e9       $N00146                    00000001800997e9     bindings.exp
 0002:00029812       $N00147                    0000000180099812     bindings.exp
 0002:00029839       $N00148                    0000000180099839     bindings.exp
 0002:00029863       $N00149                    0000000180099863     bindings.exp
 0002:0002988b       $N00150                    000000018009988b     bindings.exp
 0002:000298b0       $N00151                    00000001800998b0     bindings.exp
 0002:000298d3       $N00152                    00000001800998d3     bindings.exp
 0002:000298fd       $N00153                    00000001800998fd     bindings.exp
 0002:00029925       $N00154                    0000000180099925     bindings.exp
 0002:0002994e       $N00155                    000000018009994e     bindings.exp
 0002:00029975       $N00156                    0000000180099975     bindings.exp
 0002:000299a5       $N00157                    00000001800999a5     bindings.exp
 0002:000299d3       $N00158                    00000001800999d3     bindings.exp
 0002:000299ff       $N00159                    00000001800999ff     bindings.exp
 0002:00029a29       $N00160                    0000000180099a29     bindings.exp
 0002:00029a4e       $N00161                    0000000180099a4e     bindings.exp
 0002:00029a6f       $N00162                    0000000180099a6f     bindings.exp
 0002:00029a8e       $N00163                    0000000180099a8e     bindings.exp
 0002:00029ab2       $N00164                    0000000180099ab2     bindings.exp
 0002:00029ad4       $N00165                    0000000180099ad4     bindings.exp
 0002:00029af7       $N00166                    0000000180099af7     bindings.exp
 0002:00029b1a       $N00167                    0000000180099b1a     bindings.exp
 0002:00029b39       $N00168                    0000000180099b39     bindings.exp
 0002:00029b58       $N00169                    0000000180099b58     bindings.exp
 0002:00029b7a       $N00170                    0000000180099b7a     bindings.exp
 0002:00029b90       $N00171                    0000000180099b90     bindings.exp
 0002:00029bc1       $N00172                    0000000180099bc1     bindings.exp
 0002:00029bef       $N00173                    0000000180099bef     bindings.exp
 0002:00029c13       $N00174                    0000000180099c13     bindings.exp
 0002:00029c43       $N00175                    0000000180099c43     bindings.exp
 0002:00029c6d       $N00176                    0000000180099c6d     bindings.exp
 0002:00029c9b       $N00177                    0000000180099c9b     bindings.exp
 0002:00029cbf       $N00178                    0000000180099cbf     bindings.exp
 0002:00029d17       $N00179                    0000000180099d17     bindings.exp
 0002:00029d70       $N00180                    0000000180099d70     bindings.exp
 0002:00029dae       $N00181                    0000000180099dae     bindings.exp
 0002:00029ddc       $N00182                    0000000180099ddc     bindings.exp
 0002:00029e10       $N00183                    0000000180099e10     bindings.exp
 0002:00029e45       $N00184                    0000000180099e45     bindings.exp
 0002:00029e6d       $N00185                    0000000180099e6d     bindings.exp
 0002:00029e9b       $N00186                    0000000180099e9b     bindings.exp
 0002:00029ecd       $N00187                    0000000180099ecd     bindings.exp
 0002:00029ef7       $N00188                    0000000180099ef7     bindings.exp
 0002:00029f27       $N00189                    0000000180099f27     bindings.exp
 0002:00029f52       $N00190                    0000000180099f52     bindings.exp
 0002:00029f79       $N00191                    0000000180099f79     bindings.exp
 0002:00029fa4       $N00192                    0000000180099fa4     bindings.exp
 0002:00029fd3       $N00193                    0000000180099fd3     bindings.exp
 0002:0002a002       $N00194                    000000018009a002     bindings.exp
 0002:0002a02d       $N00195                    000000018009a02d     bindings.exp
 0002:0002a05a       $N00196                    000000018009a05a     bindings.exp
 0002:0002a082       $N00197                    000000018009a082     bindings.exp
 0002:0002a0af       $N00198                    000000018009a0af     bindings.exp
 0002:0002a0db       $N00199                    000000018009a0db     bindings.exp
 0002:0002a105       $N00200                    000000018009a105     bindings.exp
 0002:0002a12b       $N00201                    000000018009a12b     bindings.exp
 0002:0002a152       $N00202                    000000018009a152     bindings.exp
 0002:0002a17b       $N00203                    000000018009a17b     bindings.exp
 0002:0002a1aa       $N00204                    000000018009a1aa     bindings.exp
 0002:0002a1d3       $N00205                    000000018009a1d3     bindings.exp
 0002:0002a1fd       $N00206                    000000018009a1fd     bindings.exp
 0002:0002a226       $N00207                    000000018009a226     bindings.exp
 0002:0002a25a       $N00208                    000000018009a25a     bindings.exp
 0002:0002a280       $N00209                    000000018009a280     bindings.exp
 0002:0002a2b4       $N00210                    000000018009a2b4     bindings.exp
 0002:0002a2dd       $N00211                    000000018009a2dd     bindings.exp
 0002:0002a30c       $N00212                    000000018009a30c     bindings.exp
 0002:0002a335       $N00213                    000000018009a335     bindings.exp
 0002:0002a364       $N00214                    000000018009a364     bindings.exp
 0002:0002a391       $N00215                    000000018009a391     bindings.exp
 0002:0002a3bf       $N00216                    000000018009a3bf     bindings.exp
 0002:0002a3e8       $N00217                    000000018009a3e8     bindings.exp
 0002:0002a416       $N00218                    000000018009a416     bindings.exp
 0002:0002a443       $N00219                    000000018009a443     bindings.exp
 0002:0002a477       $N00220                    000000018009a477     bindings.exp
 0002:0002a4a1       $N00221                    000000018009a4a1     bindings.exp
 0002:0002a4d1       $N00222                    000000018009a4d1     bindings.exp
 0002:0002a508       $N00223                    000000018009a508     bindings.exp
 0002:0002a547       $N00224                    000000018009a547     bindings.exp
 0002:0002a582       $N00225                    000000018009a582     bindings.exp
 0002:0002a5bd       $N00226                    000000018009a5bd     bindings.exp
 0002:0002a61a       $N00227                    000000018009a61a     bindings.exp
 0002:0002a63b       $N00228                    000000018009a63b     bindings.exp
 0002:0002a679       $N00229                    000000018009a679     bindings.exp
 0002:0002a6c4       $N00230                    000000018009a6c4     bindings.exp
 0002:0002a728       $N00231                    000000018009a728     bindings.exp
 0002:0002a742       $N00232                    000000018009a742     bindings.exp
 0002:0002a780       $N00233                    000000018009a780     bindings.exp
 0002:0002a7b1       $N00234                    000000018009a7b1     bindings.exp
 0002:0002a82b       $N00235                    000000018009a82b     bindings.exp
 0002:0002a853       $N00236                    000000018009a853     bindings.exp
 0002:0002a89c       $N00237                    000000018009a89c     bindings.exp
 0002:0002a8b2       $N00238                    000000018009a8b2     bindings.exp
 0002:0002a8e6       $N00239                    000000018009a8e6     bindings.exp
 0002:0002a901       $N00240                    000000018009a901     bindings.exp
 0002:0002a91e       $N00241                    000000018009a91e     bindings.exp
 0002:0002a93e       $N00242                    000000018009a93e     bindings.exp
 0002:0002a975       $N00243                    000000018009a975     bindings.exp
 0002:0002a9b6       $N00244                    000000018009a9b6     bindings.exp
 0002:0002aa0f       $N00245                    000000018009aa0f     bindings.exp
 0002:0002aa2f       $N00246                    000000018009aa2f     bindings.exp
 0002:0002aa51       $N00247                    000000018009aa51     bindings.exp
 0002:0002aa76       $N00248                    000000018009aa76     bindings.exp
 0002:0002aac2       $N00249                    000000018009aac2     bindings.exp
 0002:0002ab0e       $N00250                    000000018009ab0e     bindings.exp
 0002:0002ab67       $N00251                    000000018009ab67     bindings.exp
 0002:0002abc2       $N00252                    000000018009abc2     bindings.exp
 0002:0002ac04       $N00253                    000000018009ac04     bindings.exp
 0002:0002ac5c       $N00254                    000000018009ac5c     bindings.exp
 0002:0002acb8       $N00255                    000000018009acb8     bindings.exp
 0002:0002acda       $N00256                    000000018009acda     bindings.exp
 0002:0002ad51       $N00257                    000000018009ad51     bindings.exp
 0002:0002ad7f       $N00258                    000000018009ad7f     bindings.exp
 0002:0002ae98       $N00259                    000000018009ae98     bindings.exp
 0002:0002aec7       $N00260                    000000018009aec7     bindings.exp
 0002:0002aefe       $N00261                    000000018009aefe     bindings.exp
 0002:0002af39       $N00262                    000000018009af39     bindings.exp
 0002:0002af6c       $N00263                    000000018009af6c     bindings.exp
 0002:0002afa3       $N00264                    000000018009afa3     bindings.exp
 0002:0002afd8       $N00265                    000000018009afd8     bindings.exp
 0002:0002b00d       $N00266                    000000018009b00d     bindings.exp
 0002:0002b042       $N00267                    000000018009b042     bindings.exp
 0002:0002b077       $N00268                    000000018009b077     bindings.exp
 0002:0002b0ba       $N00269                    000000018009b0ba     bindings.exp
 0002:0002b10b       $N00270                    000000018009b10b     bindings.exp
 0002:0002b166       $N00271                    000000018009b166     bindings.exp
 0002:0002b1b9       $N00272                    000000018009b1b9     bindings.exp
 0002:0002b1fe       $N00273                    000000018009b1fe     bindings.exp
 0002:0002b286       $N00274                    000000018009b286     bindings.exp
 0002:0002b2aa       $N00275                    000000018009b2aa     bindings.exp
 0002:0002b2da       $N00276                    000000018009b2da     bindings.exp
 0002:0002b30c       $N00277                    000000018009b30c     bindings.exp
 0002:0002b343       $N00278                    000000018009b343     bindings.exp
 0002:0002b36d       $N00279                    000000018009b36d     bindings.exp
 0002:0002b395       $N00280                    000000018009b395     bindings.exp
 0002:0002b3c3       $N00281                    000000018009b3c3     bindings.exp
 0002:0002b3f0       $N00282                    000000018009b3f0     bindings.exp
 0002:0002b42f       $N00283                    000000018009b42f     bindings.exp
 0002:0002b466       $N00284                    000000018009b466     bindings.exp
 0002:0002b48b       $N00285                    000000018009b48b     bindings.exp
 0002:0002b4ac       $N00286                    000000018009b4ac     bindings.exp
 0002:0002b4e3       $N00287                    000000018009b4e3     bindings.exp
 0002:0002b518       $N00288                    000000018009b518     bindings.exp
 0002:0002b54c       $N00289                    000000018009b54c     bindings.exp
 0002:0002b581       $N00290                    000000018009b581     bindings.exp
 0002:0002b5a0       $N00291                    000000018009b5a0     bindings.exp
 0002:0002b5d0       $N00292                    000000018009b5d0     bindings.exp
 0002:0002b5ff       $N00293                    000000018009b5ff     bindings.exp
 0002:0002b634       $N00294                    000000018009b634     bindings.exp
 0002:0002b665       $N00295                    000000018009b665     bindings.exp
 0002:0002b69b       $N00296                    000000018009b69b     bindings.exp
 0002:0002b6c4       $N00297                    000000018009b6c4     bindings.exp
 0002:0002b6fb       $N00298                    000000018009b6fb     bindings.exp
 0002:0002b737       $N00299                    000000018009b737     bindings.exp
 0002:0002b771       $N00300                    000000018009b771     bindings.exp
 0002:0002b7aa       $N00301                    000000018009b7aa     bindings.exp
 0002:0002b7e4       $N00302                    000000018009b7e4     bindings.exp
 0002:0002b819       $N00303                    000000018009b819     bindings.exp
 0002:0002b861       $N00304                    000000018009b861     bindings.exp
 0002:0002b887       $N00305                    000000018009b887     bindings.exp
 0002:0002b8be       $N00306                    000000018009b8be     bindings.exp
 0002:0002b8ed       $N00307                    000000018009b8ed     bindings.exp
 0002:0002b91a       $N00308                    000000018009b91a     bindings.exp
 0002:0002b94c       $N00309                    000000018009b94c     bindings.exp
 0002:0002b97c       $N00310                    000000018009b97c     bindings.exp
 0002:0002b9ae       $N00311                    000000018009b9ae     bindings.exp
 0002:0002b9db       $N00312                    000000018009b9db     bindings.exp
 0002:0002ba13       $N00313                    000000018009ba13     bindings.exp
 0002:0002ba44       $N00314                    000000018009ba44     bindings.exp
 0002:0002ba70       $N00315                    000000018009ba70     bindings.exp
 0002:0002bd24       .idata$6                   000000018009bd24     kernel32:KERNEL32.dll
 0002:0002c21a       .idata$6                   000000018009c21a     advapi32:ADVAPI32.dll
 0003:00000030       ?_Tlg_Microsoft_CRTProviderProv@@3U_TlgProvider_t@__vcrt_trace_logging_provider@@A 000000018009d030     libvcruntime:telemetry.obj
 0003:00000080       ?__vcrt_flsindex@@3KA      000000018009d080     libvcruntime:per_thread_data.obj
 0003:000001a0       errno_no_memory            000000018009d1a0     libucrt:errno.obj
 0003:000001a4       doserrno_no_memory         000000018009d1a4     libucrt:errno.obj
 0003:000002b4       __acrt_flsindex            000000018009d2b4     libucrt:per_thread_data.obj
 0003:000006a0       __rgctypeflag              000000018009d6a0     libucrt:mbctype.obj
 0003:000006b0       __rgcode_page_info         000000018009d6b0     libucrt:mbctype.obj
 0003:00000a68       ?dazSupported@?1??common_control87@@9@9 000000018009da68     libucrt:ieee.obj
 0003:00000a70       ?dazSupported@?1??_ctrlfp@@9@9 000000018009da70     libucrt:fpctrl.obj
 0003:00000a90       _module                    000000018009da90     bindings.obj
 0003:00000ae0       mpg123_decoder_list        000000018009dae0     libmpg123:optimize.obj
 0003:00000af0       bad_reader                 000000018009daf0     libmpg123:readers.obj
 0003:00000b50       readers                    000000018009db50     libmpg123:readers.obj
 0003:00000d30       pretab_choice              000000018009dd30     libmpg123:layer3.obj
 0003:000010c8       ?__proc_attached@@3HA      000000018009e0c8     LIBCMT:dll_dllmain.obj
 0003:000010d0       GS_ExceptionRecord         000000018009e0d0     LIBCMT:gs_report.obj
 0003:00001170       GS_ContextRecord           000000018009e170     LIBCMT:gs_report.obj
 0003:00001650       ?module_local_atexit_table@@3U_onexit_table_t@@A 000000018009e650     LIBCMT:utility.obj
 0003:00001668       ?module_local_at_quick_exit_table@@3U_onexit_table_t@@A 000000018009e668     LIBCMT:utility.obj
 0003:00001680       ?is_initialized_as_dll@@3_NA 000000018009e680     LIBCMT:utility.obj
 0003:000016b0       ?module_handles@@3PAPEAUHINSTANCE__@@A 000000018009e6b0     libvcruntime:winapi_downlevel.obj
 0003:000016d0       ?encoded_function_pointers@@3PAPEAXA 000000018009e6d0     libvcruntime:winapi_downlevel.obj
 0003:00001720       ?__vcrt_startup_thread_ptd@@3U__vcrt_ptd@@A 000000018009e720     libvcruntime:per_thread_data.obj
 0003:00001798       __vcrt_lock_table          000000018009e798     libvcruntime:locks.obj
 0003:000017c0       __vcrt_locks_initialized   000000018009e7c0     libvcruntime:locks.obj
 0003:00001810       ?heap@@3V_HeapManager@@A   000000018009e810     libvcruntime:undname.obj
 0003:0000184c       c_termination_complete     000000018009e84c     libucrt:exit.obj
 0003:00001850       thread_local_exit_callback_func 000000018009e850     libucrt:exit.obj
 0003:00001858       ?c_exit_complete@?5??common_exit@@YAXHW4_crt_exit_cleanup_mode@@W4_crt_exit_return_mode@@@Z@4_NA 000000018009e858     libucrt:exit.obj
 0003:00001860       __acrt_new_handler         000000018009e860     libucrt:new_handler.obj
 0003:000018b8       __acrt_invalid_parameter_handler 000000018009e8b8     libucrt:invalid_parameter.obj
 0003:000018c0       __acrt_app_type            000000018009e8c0     libucrt:report_runtime_error.obj
 0003:000018c8       ctrlc_action               000000018009e8c8     libucrt:signal.obj
 0003:000018d0       ctrlbreak_action           000000018009e8d0     libucrt:signal.obj
 0003:000018d8       abort_action               000000018009e8d8     libucrt:signal.obj
 0003:000018e0       term_action                000000018009e8e0     libucrt:signal.obj
 0003:00001d08       enable_percent_n           000000018009ed08     libucrt:printf_count_output.obj
 0003:00001d20       module_handles             000000018009ed20     libucrt:winapi_thunks.obj
 0003:00001dc0       encoded_function_pointers  000000018009edc0     libucrt:winapi_thunks.obj
 0003:00001ec0       ?state_cache@?1??__acrt_is_packaged_app@@9@4JA 000000018009eec0     libucrt:winapi_thunks.obj
 0003:00001ed0       __acrt_lock_table          000000018009eed0     libucrt:locks.obj
 0003:000020d8       __acrt_locks_initialized   000000018009f0d8     libucrt:locks.obj
 0003:000020f4       fSystemSet                 000000018009f0f4     libucrt:mbctype.obj
 0003:00002100       ?initialized@?1??__acrt_initialize_multibyte@@9@4_NA 000000018009f100     libucrt:mbctype.obj
 0003:00002130       user_matherr               000000018009f130     libucrt:matherr.obj
 0003:00002138       __acrt_global_new_mode     000000018009f138     libucrt:new_mode.obj
 0003:00002190       ?init@?1??init_log_table@@9@9 000000018009f190     libmp3lame:util.obj
 0003:00002194       initialized                000000018009f194     libmpg123:libmpg123.obj
 0003:00002198       cos8                       000000018009f198     libmpg123:tabinit.obj
 0003:000021a0       grp_5tab                   000000018009f1a0     libmpg123:layer2.obj
 0003:000027a0       grp_9tab                   000000018009f7a0     libmpg123:layer2.obj
 0003:000057a0       grp_3tab                   00000001800a27a0     libmpg123:layer2.obj
 0003:00005920       cos64                      00000001800a2920     libmpg123:tabinit.obj
 0003:00005960       cos32                      00000001800a2960     libmpg123:tabinit.obj
 0003:00005980       cos16                      00000001800a2980     libmpg123:tabinit.obj
 0003:00005990       cos4                       00000001800a2990     libmpg123:tabinit.obj
 0003:00005994       ma_max_i2                  00000001800a2994     libmp3lame:psymodel.obj
 0003:00005998       ma_max_i1                  00000001800a2998     libmp3lame:psymodel.obj
 0003:0000599c       COS6_1                     00000001800a299c     libmpg123:layer3.obj
 0003:000059a0       log_table                  00000001800a29a0     libmp3lame:util.obj
 0003:000061a4       COS6_2                     00000001800a31a4     libmpg123:layer3.obj
 0003:000061b0       window                     00000001800a31b0     libmp3lame:fft.obj
 0003:000071b0       window_s                   00000001800a41b0     libmp3lame:fft.obj
 0003:000073b0       mapbuf1                    00000001800a43b0     libmpg123:layer3.obj
 0003:000089a0       tan2_1                     00000001800a59a0     libmpg123:layer3.obj
 0003:000089e0       mapbuf0                    00000001800a59e0     libmpg123:layer3.obj
 0003:00009f40       i_slen2                    00000001800a6f40     libmpg123:layer3.obj
 0003:0000a340       tan1_1                     00000001800a7340     libmpg123:layer3.obj
 0003:0000a380       tan1_2                     00000001800a7380     libmpg123:layer3.obj
 0003:0000a3c0       pow1_1                     00000001800a73c0     libmpg123:layer3.obj
 0003:0000a440       pow2_1                     00000001800a7440     libmpg123:layer3.obj
 0003:0000a4c0       cos18                      00000001800a74c0     libmpg123:layer3.obj
 0003:0000a4d0       pow2_2                     00000001800a74d0     libmpg123:layer3.obj
 0003:0000a550       map                        00000001800a7550     libmpg123:layer3.obj
 0003:0000a630       n_slen2                    00000001800a7630     libmpg123:layer3.obj
 0003:0000ae30       win                        00000001800a7e30     libmpg123:layer3.obj
 0003:0000b070       cos9                       00000001800a8070     libmpg123:layer3.obj
 0003:0000b080       tfcos12                    00000001800a8080     libmpg123:layer3.obj
 0003:0000b090       aa_cs                      00000001800a8090     libmpg123:layer3.obj
 0003:0000b0b0       pow1_2                     00000001800a80b0     libmpg123:layer3.obj
 0003:0000b130       tan2_2                     00000001800a8130     libmpg123:layer3.obj
 0003:0000b170       win1                       00000001800a8170     libmpg123:layer3.obj
 0003:0000b3b0       mapbuf2                    00000001800a83b0     libmpg123:layer3.obj
 0003:0000b9e0       mapend                     00000001800a89e0     libmpg123:layer3.obj
 0003:0000bac0       aa_ca                      00000001800a8ac0     libmpg123:layer3.obj
 0003:0000bae0       ispow                      00000001800a8ae0     libmpg123:layer3.obj
 0004:00000000       $pdata$?TraceLoggingRegister@__vcrt_trace_logging_provider@@YAJPEBU_TlgProvider_t@1@PEBU_GUID@@P6AX1KE_K2PEAU_EVENT_FILTER_DESCRIPTOR@@PEAX@Z4@Z 00000001800c2000     libvcruntime:telemetry.obj
 0004:0000000c       $pdata$?_TlgEnableCallback@__vcrt_trace_logging_provider@@YAXPEBU_GUID@@KE_K1PEAU_EVENT_FILTER_DESCRIPTOR@@PEAX@Z 00000001800c200c     libvcruntime:telemetry.obj
 0004:00000018       $pdata$?_TlgWrite@__vcrt_trace_logging_provider@@YAJPEBU_TlgProvider_t@1@PEFBXPEBU_GUID@@2IPEAU_EVENT_DATA_DESCRIPTOR@@@Z 00000001800c2018     libvcruntime:telemetry.obj
 0004:00000024       $pdata$?GetId@Script@v8@@QEAAHXZ 00000001800c2024     bindings.obj
 0004:00000030       $pdata$??_EExternalSourceStream@ScriptCompiler@v8@@UEAAPEAXI@Z 00000001800c2030     bindings.obj
 0004:0000003c       $pdata$0$??_EExternalSourceStream@ScriptCompiler@v8@@UEAAPEAXI@Z 00000001800c203c     bindings.obj
 0004:00000048       $pdata$1$??_EExternalSourceStream@ScriptCompiler@v8@@UEAAPEAXI@Z 00000001800c2048     bindings.obj
 0004:00000054       $pdata$?NewInstance@Function@v8@@QEBA?AV?$MaybeLocal@VObject@v8@@@2@V?$Local@VContext@v8@@@2@@Z 00000001800c2054     bindings.obj
 0004:00000060       $pdata$?SetIndexedPropertyHandler@ObjectTemplate@v8@@QEAAXP6AXIAEBV?$PropertyCallbackInfo@VValue@v8@@@2@@ZP6AXIV?$Local@VValue@v8@@@2@0@ZP6AXIAEBV?$PropertyCallbackInfo@VInteger@v8@@@2@@ZP6AXIAEBV?$PropertyCallbackInfo@VBoolean@v8@@@2@@ZP6AXAEBV?$PropertyCallbackInfo@VArray@v8@@@2@@Z2@Z 00000001800c2060     bindings.obj
 0004:0000006c       $pdata$??0Scope@Isolate@v8@@QEAA@PEAV12@@Z 00000001800c206c     bindings.obj
 0004:00000078       $pdata$??0Unlocker@v8@@QEAA@PEAVIsolate@1@@Z 00000001800c2078     bindings.obj
 0004:00000084       $pdata$??0Locker@v8@@QEAA@PEAVIsolate@1@@Z 00000001800c2084     bindings.obj
 0004:00000090       $pdata$?Set@Template@v8@@QEAAXPEAVIsolate@2@PEBDV?$Local@VData@v8@@@2@@Z 00000001800c2090     bindings.obj
 0004:0000009c       $pdata$?GetInternalField@Object@v8@@QEAA?AV?$Local@VValue@v8@@@2@H@Z 00000001800c209c     bindings.obj
 0004:000000a8       $pdata$?ToBoolean@Value@v8@@QEBA?AV?$Local@VBoolean@v8@@@2@XZ 00000001800c20a8     bindings.obj
 0004:000000b4       $pdata$?ToNumber@Value@v8@@QEBA?AV?$Local@VNumber@v8@@@2@XZ 00000001800c20b4     bindings.obj
 0004:000000c0       $pdata$?ToString@Value@v8@@QEBA?AV?$Local@VString@v8@@@2@XZ 00000001800c20c0     bindings.obj
 0004:000000cc       $pdata$?ToDetailString@Value@v8@@QEBA?AV?$Local@VString@v8@@@2@XZ 00000001800c20cc     bindings.obj
 0004:000000d8       $pdata$?ToObject@Value@v8@@QEBA?AV?$Local@VObject@v8@@@2@XZ 00000001800c20d8     bindings.obj
 0004:000000e4       $pdata$?ToInteger@Value@v8@@QEBA?AV?$Local@VInteger@v8@@@2@XZ 00000001800c20e4     bindings.obj
 0004:000000f0       $pdata$?ToUint32@Value@v8@@QEBA?AV?$Local@VUint32@v8@@@2@XZ 00000001800c20f0     bindings.obj
 0004:000000fc       $pdata$?ToInt32@Value@v8@@QEBA?AV?$Local@VInt32@v8@@@2@XZ 00000001800c20fc     bindings.obj
 0004:00000108       $pdata$?AdjustAmountOfExternalAllocatedMemory@Isolate@v8@@QEAA_J_J@Z 00000001800c2108     bindings.obj
 0004:00000114       $pdata$?GetEmbedderData@Context@v8@@QEAA?AV?$Local@VValue@v8@@@2@H@Z 00000001800c2114     bindings.obj
 0004:00000120       $pdata$?SetAllowCodeGenerationFromStringsCallback@V8@v8@@SAXP6A_NV?$Local@VContext@v8@@@2@@Z@Z 00000001800c2120     bindings.obj
 0004:0000012c       $pdata$?IsDead@V8@v8@@SA_NXZ 00000001800c212c     bindings.obj
 0004:00000138       $pdata$?AddMessageListener@V8@v8@@SA_NP6AXV?$Local@VMessage@v8@@@2@V?$Local@VValue@v8@@@2@@Z1@Z 00000001800c2138     bindings.obj
 0004:00000144       $pdata$?RemoveMessageListeners@V8@v8@@SAXP6AXV?$Local@VMessage@v8@@@2@V?$Local@VValue@v8@@@2@@Z@Z 00000001800c2144     bindings.obj
 0004:00000150       $pdata$?SetFailedAccessCheckCallbackFunction@V8@v8@@SAXP6AXV?$Local@VObject@v8@@@2@W4AccessType@2@V?$Local@VValue@v8@@@2@@Z@Z 00000001800c2150     bindings.obj
 0004:0000015c       $pdata$?SetCaptureStackTraceForUncaughtExceptions@V8@v8@@SAX_NHW4StackTraceOptions@StackTrace@2@@Z 00000001800c215c     bindings.obj
 0004:00000168       $pdata$?SetFatalErrorHandler@V8@v8@@SAXP6AXPEBD0@Z@Z 00000001800c2168     bindings.obj
 0004:00000174       $pdata$?RemoveGCPrologueCallback@V8@v8@@SAXP6AXW4GCType@2@W4GCCallbackFlags@2@@Z@Z 00000001800c2174     bindings.obj
 0004:00000180       $pdata$?RemoveGCEpilogueCallback@V8@v8@@SAXP6AXW4GCType@2@W4GCCallbackFlags@2@@Z@Z 00000001800c2180     bindings.obj
 0004:0000018c       $pdata$?AddMemoryAllocationCallback@V8@v8@@SAXP6AXW4ObjectSpace@2@W4AllocationAction@2@H@Z01@Z 00000001800c218c     bindings.obj
 0004:00000198       $pdata$?RemoveMemoryAllocationCallback@V8@v8@@SAXP6AXW4ObjectSpace@2@W4AllocationAction@2@H@Z@Z 00000001800c2198     bindings.obj
 0004:000001a4       $pdata$?IsExecutionTerminating@V8@v8@@SA_NPEAVIsolate@2@@Z 00000001800c21a4     bindings.obj
 0004:000001b0       $pdata$?VisitExternalResources@V8@v8@@SAXPEAVExternalResourceVisitor@2@@Z 00000001800c21b0     bindings.obj
 0004:000001bc       $pdata$?VisitHandlesWithClassIds@V8@v8@@SAXPEAVPersistentHandleVisitor@2@@Z 00000001800c21bc     bindings.obj
 0004:000001c8       $pdata$??_EExternalOneByteStringResource@String@v8@@UEAAPEAXI@Z 00000001800c21c8     bindings.obj
 0004:000001c8       $pdata$??_EExternalStringResourceBase@String@v8@@UEAAPEAXI@Z 00000001800c21c8     bindings.obj
 0004:000001c8       $pdata$??_EExternalStringResource@String@v8@@UEAAPEAXI@Z 00000001800c21c8     bindings.obj
 0004:000001d4       $pdata$0$??_EExternalOneByteStringResource@String@v8@@UEAAPEAXI@Z 00000001800c21d4     bindings.obj
 0004:000001d4       $pdata$0$??_EExternalStringResourceBase@String@v8@@UEAAPEAXI@Z 00000001800c21d4     bindings.obj
 0004:000001d4       $pdata$0$??_EExternalStringResource@String@v8@@UEAAPEAXI@Z 00000001800c21d4     bindings.obj
 0004:000001e0       $pdata$1$??_EExternalStringResource@String@v8@@UEAAPEAXI@Z 00000001800c21e0     bindings.obj
 0004:000001e0       $pdata$1$??_EExternalOneByteStringResource@String@v8@@UEAAPEAXI@Z 00000001800c21e0     bindings.obj
 0004:000001e0       $pdata$1$??_EExternalStringResourceBase@String@v8@@UEAAPEAXI@Z 00000001800c21e0     bindings.obj
 0004:000001ec       $pdata$??_EAllocator@ArrayBuffer@v8@@UEAAPEAXI@Z 00000001800c21ec     bindings.obj
 0004:000001f8       $pdata$0$??_EAllocator@ArrayBuffer@v8@@UEAAPEAXI@Z 00000001800c21f8     bindings.obj
 0004:00000204       $pdata$1$??_EAllocator@ArrayBuffer@v8@@UEAAPEAXI@Z 00000001800c2204     bindings.obj
 0004:00000210       $pdata$??_EExternalOneByteStringResourceImpl@v8@@UEAAPEAXI@Z 00000001800c2210     bindings.obj
 0004:0000021c       $pdata$0$??_EExternalOneByteStringResourceImpl@v8@@UEAAPEAXI@Z 00000001800c221c     bindings.obj
 0004:00000228       $pdata$1$??_EExternalOneByteStringResourceImpl@v8@@UEAAPEAXI@Z 00000001800c2228     bindings.obj
 0004:00000234       $pdata$??_EExtension@v8@@UEAAPEAXI@Z 00000001800c2234     bindings.obj
 0004:00000240       $pdata$0$??_EExtension@v8@@UEAAPEAXI@Z 00000001800c2240     bindings.obj
 0004:0000024c       $pdata$1$??_EExtension@v8@@UEAAPEAXI@Z 00000001800c224c     bindings.obj
 0004:00000258       $pdata$??_EExternalResourceVisitor@v8@@UEAAPEAXI@Z 00000001800c2258     bindings.obj
 0004:00000258       $pdata$??_EPersistentHandleVisitor@v8@@UEAAPEAXI@Z 00000001800c2258     bindings.obj
 0004:00000264       $pdata$0$??_EPersistentHandleVisitor@v8@@UEAAPEAXI@Z 00000001800c2264     bindings.obj
 0004:00000264       $pdata$0$??_EExternalResourceVisitor@v8@@UEAAPEAXI@Z 00000001800c2264     bindings.obj
 0004:00000270       $pdata$1$??_EPersistentHandleVisitor@v8@@UEAAPEAXI@Z 00000001800c2270     bindings.obj
 0004:00000270       $pdata$1$??_EExternalResourceVisitor@v8@@UEAAPEAXI@Z 00000001800c2270     bindings.obj
 0004:0000027c       $pdata$?Initialize@nodelame@@YAXV?$Local@VObject@v8@@@v8@@@Z 00000001800c227c     bindings.obj
 0004:00000288       $pdata$?FunctionCallbackWrapper@imp@Nan@@YAXAEBV?$FunctionCallbackInfo@VValue@v8@@@v8@@@Z 00000001800c2288     node_lame.obj
 0004:00000294       $pdata$?New@?$Factory@VFunctionTemplate@v8@@@imp@Nan@@SA?AV?$Local@VFunctionTemplate@v8@@@v8@@P6AXAEBV?$FunctionCallbackInfo@VValue@v8@@@3@@ZV?$Local@VValue@v8@@@5@V?$Local@VSignature@v8@@@5@@Z 00000001800c2294     node_lame.obj
 0004:000002a0       $pdata$0$?New@?$Factory@VFunctionTemplate@v8@@@imp@Nan@@SA?AV?$Local@VFunctionTemplate@v8@@@v8@@P6AXAEBV?$FunctionCallbackInfo@VValue@v8@@@3@@ZV?$Local@VValue@v8@@@5@V?$Local@VSignature@v8@@@5@@Z 00000001800c22a0     node_lame.obj
 0004:000002ac       $pdata$1$?New@?$Factory@VFunctionTemplate@v8@@@imp@Nan@@SA?AV?$Local@VFunctionTemplate@v8@@@v8@@P6AXAEBV?$FunctionCallbackInfo@VValue@v8@@@3@@ZV?$Local@VValue@v8@@@5@V?$Local@VSignature@v8@@@5@@Z 00000001800c22ac     node_lame.obj
 0004:000002b8       $pdata$?node_get_lame_version@nodelame@@YAXAEBV?$FunctionCallbackInfo@VValue@v8@@@Nan@@@Z 00000001800c22b8     node_lame.obj
 0004:000002c4       $pdata$?node_get_lame_os_bitness@nodelame@@YAXAEBV?$FunctionCallbackInfo@VValue@v8@@@Nan@@@Z 00000001800c22c4     node_lame.obj
 0004:000002d0       $pdata$?node_lame_close@nodelame@@YAXAEBV?$FunctionCallbackInfo@VValue@v8@@@Nan@@@Z 00000001800c22d0     node_lame.obj
 0004:000002dc       $pdata$?node_lame_init@nodelame@@YAXAEBV?$FunctionCallbackInfo@VValue@v8@@@Nan@@@Z 00000001800c22dc     node_lame.obj
 0004:000002e8       $pdata$?node_lame_encode_buffer@nodelame@@YAXAEBV?$FunctionCallbackInfo@VValue@v8@@@Nan@@@Z 00000001800c22e8     node_lame.obj
 0004:000002f4       $pdata$?node_lame_encode_buffer_async@nodelame@@YAXPEAUuv_work_s@@@Z 00000001800c22f4     node_lame.obj
 0004:00000300       $pdata$?node_lame_encode_buffer_after@nodelame@@YAXPEAUuv_work_s@@@Z 00000001800c2300     node_lame.obj
 0004:0000030c       $pdata$?node_lame_encode_flush_nogap@nodelame@@YAXAEBV?$FunctionCallbackInfo@VValue@v8@@@Nan@@@Z 00000001800c230c     node_lame.obj
 0004:00000318       $pdata$?node_lame_encode_flush_nogap_async@nodelame@@YAXPEAUuv_work_s@@@Z 00000001800c2318     node_lame.obj
 0004:00000324       $pdata$?node_lame_get_id3v1_tag@nodelame@@YAXAEBV?$FunctionCallbackInfo@VValue@v8@@@Nan@@@Z 00000001800c2324     node_lame.obj
 0004:00000330       $pdata$?node_lame_get_id3v2_tag@nodelame@@YAXAEBV?$FunctionCallbackInfo@VValue@v8@@@Nan@@@Z 00000001800c2330     node_lame.obj
 0004:0000033c       $pdata$?node_lame_init_params@nodelame@@YAXAEBV?$FunctionCallbackInfo@VValue@v8@@@Nan@@@Z 00000001800c233c     node_lame.obj
 0004:00000348       $pdata$?node_lame_print_internals@nodelame@@YAXAEBV?$FunctionCallbackInfo@VValue@v8@@@Nan@@@Z 00000001800c2348     node_lame.obj
 0004:00000354       $pdata$?node_lame_print_config@nodelame@@YAXAEBV?$FunctionCallbackInfo@VValue@v8@@@Nan@@@Z 00000001800c2354     node_lame.obj
 0004:00000360       $pdata$?node_lame_bitrates@nodelame@@YAXAEBV?$FunctionCallbackInfo@VValue@v8@@@Nan@@@Z 00000001800c2360     node_lame.obj
 0004:0000036c       $pdata$?node_lame_samplerates@nodelame@@YAXAEBV?$FunctionCallbackInfo@VValue@v8@@@Nan@@@Z 00000001800c236c     node_lame.obj
 0004:00000378       $pdata$?node_lame_get_num_samples@nodelame@@YAXAEBV?$FunctionCallbackInfo@VValue@v8@@@Nan@@@Z 00000001800c2378     node_lame.obj
 0004:00000384       $pdata$?node_lame_set_num_samples@nodelame@@YAXAEBV?$FunctionCallbackInfo@VValue@v8@@@Nan@@@Z 00000001800c2384     node_lame.obj
 0004:00000390       $pdata$?node_lame_get_in_samplerate@nodelame@@YAXAEBV?$FunctionCallbackInfo@VValue@v8@@@Nan@@@Z 00000001800c2390     node_lame.obj
 0004:0000039c       $pdata$?node_lame_set_in_samplerate@nodelame@@YAXAEBV?$FunctionCallbackInfo@VValue@v8@@@Nan@@@Z 00000001800c239c     node_lame.obj
 0004:000003a8       $pdata$?node_lame_get_num_channels@nodelame@@YAXAEBV?$FunctionCallbackInfo@VValue@v8@@@Nan@@@Z 00000001800c23a8     node_lame.obj
 0004:000003b4       $pdata$?node_lame_set_num_channels@nodelame@@YAXAEBV?$FunctionCallbackInfo@VValue@v8@@@Nan@@@Z 00000001800c23b4     node_lame.obj
 0004:000003c0       $pdata$?node_lame_get_scale@nodelame@@YAXAEBV?$FunctionCallbackInfo@VValue@v8@@@Nan@@@Z 00000001800c23c0     node_lame.obj
 0004:000003cc       $pdata$?node_lame_set_scale@nodelame@@YAXAEBV?$FunctionCallbackInfo@VValue@v8@@@Nan@@@Z 00000001800c23cc     node_lame.obj
 0004:000003d8       $pdata$?node_lame_get_scale_left@nodelame@@YAXAEBV?$FunctionCallbackInfo@VValue@v8@@@Nan@@@Z 00000001800c23d8     node_lame.obj
 0004:000003e4       $pdata$?node_lame_set_scale_left@nodelame@@YAXAEBV?$FunctionCallbackInfo@VValue@v8@@@Nan@@@Z 00000001800c23e4     node_lame.obj
 0004:000003f0       $pdata$?node_lame_get_scale_right@nodelame@@YAXAEBV?$FunctionCallbackInfo@VValue@v8@@@Nan@@@Z 00000001800c23f0     node_lame.obj
 0004:000003fc       $pdata$?node_lame_set_scale_right@nodelame@@YAXAEBV?$FunctionCallbackInfo@VValue@v8@@@Nan@@@Z 00000001800c23fc     node_lame.obj
 0004:00000408       $pdata$?node_lame_get_out_samplerate@nodelame@@YAXAEBV?$FunctionCallbackInfo@VValue@v8@@@Nan@@@Z 00000001800c2408     node_lame.obj
 0004:00000414       $pdata$?node_lame_set_out_samplerate@nodelame@@YAXAEBV?$FunctionCallbackInfo@VValue@v8@@@Nan@@@Z 00000001800c2414     node_lame.obj
 0004:00000420       $pdata$?node_lame_get_analysis@nodelame@@YAXAEBV?$FunctionCallbackInfo@VValue@v8@@@Nan@@@Z 00000001800c2420     node_lame.obj
 0004:0000042c       $pdata$?node_lame_set_analysis@nodelame@@YAXAEBV?$FunctionCallbackInfo@VValue@v8@@@Nan@@@Z 00000001800c242c     node_lame.obj
 0004:00000438       $pdata$?node_lame_get_bWriteVbrTag@nodelame@@YAXAEBV?$FunctionCallbackInfo@VValue@v8@@@Nan@@@Z 00000001800c2438     node_lame.obj
 0004:00000444       $pdata$?node_lame_set_bWriteVbrTag@nodelame@@YAXAEBV?$FunctionCallbackInfo@VValue@v8@@@Nan@@@Z 00000001800c2444     node_lame.obj
 0004:00000450       $pdata$?node_lame_get_quality@nodelame@@YAXAEBV?$FunctionCallbackInfo@VValue@v8@@@Nan@@@Z 00000001800c2450     node_lame.obj
 0004:0000045c       $pdata$?node_lame_set_quality@nodelame@@YAXAEBV?$FunctionCallbackInfo@VValue@v8@@@Nan@@@Z 00000001800c245c     node_lame.obj
 0004:00000468       $pdata$?node_lame_get_mode@nodelame@@YAXAEBV?$FunctionCallbackInfo@VValue@v8@@@Nan@@@Z 00000001800c2468     node_lame.obj
 0004:00000474       $pdata$?node_lame_set_mode@nodelame@@YAXAEBV?$FunctionCallbackInfo@VValue@v8@@@Nan@@@Z 00000001800c2474     node_lame.obj
 0004:00000480       $pdata$?node_lame_get_brate@nodelame@@YAXAEBV?$FunctionCallbackInfo@VValue@v8@@@Nan@@@Z 00000001800c2480     node_lame.obj
 0004:0000048c       $pdata$?node_lame_set_brate@nodelame@@YAXAEBV?$FunctionCallbackInfo@VValue@v8@@@Nan@@@Z 00000001800c248c     node_lame.obj
 0004:00000498       $pdata$?node_lame_get_compression_ratio@nodelame@@YAXAEBV?$FunctionCallbackInfo@VValue@v8@@@Nan@@@Z 00000001800c2498     node_lame.obj
 0004:000004a4       $pdata$?node_lame_set_compression_ratio@nodelame@@YAXAEBV?$FunctionCallbackInfo@VValue@v8@@@Nan@@@Z 00000001800c24a4     node_lame.obj
 0004:000004b0       $pdata$?node_lame_get_copyright@nodelame@@YAXAEBV?$FunctionCallbackInfo@VValue@v8@@@Nan@@@Z 00000001800c24b0     node_lame.obj
 0004:000004bc       $pdata$?node_lame_set_copyright@nodelame@@YAXAEBV?$FunctionCallbackInfo@VValue@v8@@@Nan@@@Z 00000001800c24bc     node_lame.obj
 0004:000004c8       $pdata$?node_lame_get_original@nodelame@@YAXAEBV?$FunctionCallbackInfo@VValue@v8@@@Nan@@@Z 00000001800c24c8     node_lame.obj
 0004:000004d4       $pdata$?node_lame_set_original@nodelame@@YAXAEBV?$FunctionCallbackInfo@VValue@v8@@@Nan@@@Z 00000001800c24d4     node_lame.obj
 0004:000004e0       $pdata$?node_lame_get_error_protection@nodelame@@YAXAEBV?$FunctionCallbackInfo@VValue@v8@@@Nan@@@Z 00000001800c24e0     node_lame.obj
 0004:000004ec       $pdata$?node_lame_set_error_protection@nodelame@@YAXAEBV?$FunctionCallbackInfo@VValue@v8@@@Nan@@@Z 00000001800c24ec     node_lame.obj
 0004:000004f8       $pdata$?node_lame_get_extension@nodelame@@YAXAEBV?$FunctionCallbackInfo@VValue@v8@@@Nan@@@Z 00000001800c24f8     node_lame.obj
 0004:00000504       $pdata$?node_lame_set_extension@nodelame@@YAXAEBV?$FunctionCallbackInfo@VValue@v8@@@Nan@@@Z 00000001800c2504     node_lame.obj
 0004:00000510       $pdata$?node_lame_get_strict_ISO@nodelame@@YAXAEBV?$FunctionCallbackInfo@VValue@v8@@@Nan@@@Z 00000001800c2510     node_lame.obj
 0004:0000051c       $pdata$?node_lame_set_strict_ISO@nodelame@@YAXAEBV?$FunctionCallbackInfo@VValue@v8@@@Nan@@@Z 00000001800c251c     node_lame.obj
 0004:00000528       $pdata$?node_lame_get_disable_reservoir@nodelame@@YAXAEBV?$FunctionCallbackInfo@VValue@v8@@@Nan@@@Z 00000001800c2528     node_lame.obj
 0004:00000534       $pdata$?node_lame_set_disable_reservoir@nodelame@@YAXAEBV?$FunctionCallbackInfo@VValue@v8@@@Nan@@@Z 00000001800c2534     node_lame.obj
 0004:00000540       $pdata$?node_lame_get_quant_comp@nodelame@@YAXAEBV?$FunctionCallbackInfo@VValue@v8@@@Nan@@@Z 00000001800c2540     node_lame.obj
 0004:0000054c       $pdata$?node_lame_set_quant_comp@nodelame@@YAXAEBV?$FunctionCallbackInfo@VValue@v8@@@Nan@@@Z 00000001800c254c     node_lame.obj
 0004:00000558       $pdata$?node_lame_get_quant_comp_short@nodelame@@YAXAEBV?$FunctionCallbackInfo@VValue@v8@@@Nan@@@Z 00000001800c2558     node_lame.obj
 0004:00000564       $pdata$?node_lame_set_quant_comp_short@nodelame@@YAXAEBV?$FunctionCallbackInfo@VValue@v8@@@Nan@@@Z 00000001800c2564     node_lame.obj
 0004:00000570       $pdata$?node_lame_get_exp_nspsytune@nodelame@@YAXAEBV?$FunctionCallbackInfo@VValue@v8@@@Nan@@@Z 00000001800c2570     node_lame.obj
 0004:0000057c       $pdata$?node_lame_set_exp_nspsytune@nodelame@@YAXAEBV?$FunctionCallbackInfo@VValue@v8@@@Nan@@@Z 00000001800c257c     node_lame.obj
 0004:00000588       $pdata$?node_lame_get_VBR@nodelame@@YAXAEBV?$FunctionCallbackInfo@VValue@v8@@@Nan@@@Z 00000001800c2588     node_lame.obj
 0004:00000594       $pdata$?node_lame_set_VBR@nodelame@@YAXAEBV?$FunctionCallbackInfo@VValue@v8@@@Nan@@@Z 00000001800c2594     node_lame.obj
 0004:000005a0       $pdata$?node_lame_get_VBR_q@nodelame@@YAXAEBV?$FunctionCallbackInfo@VValue@v8@@@Nan@@@Z 00000001800c25a0     node_lame.obj
 0004:000005ac       $pdata$?node_lame_set_VBR_q@nodelame@@YAXAEBV?$FunctionCallbackInfo@VValue@v8@@@Nan@@@Z 00000001800c25ac     node_lame.obj
 0004:000005b8       $pdata$?node_lame_get_VBR_quality@nodelame@@YAXAEBV?$FunctionCallbackInfo@VValue@v8@@@Nan@@@Z 00000001800c25b8     node_lame.obj
 0004:000005c4       $pdata$?node_lame_set_VBR_quality@nodelame@@YAXAEBV?$FunctionCallbackInfo@VValue@v8@@@Nan@@@Z 00000001800c25c4     node_lame.obj
 0004:000005d0       $pdata$?node_lame_get_VBR_mean_bitrate_kbps@nodelame@@YAXAEBV?$FunctionCallbackInfo@VValue@v8@@@Nan@@@Z 00000001800c25d0     node_lame.obj
 0004:000005dc       $pdata$?node_lame_set_VBR_mean_bitrate_kbps@nodelame@@YAXAEBV?$FunctionCallbackInfo@VValue@v8@@@Nan@@@Z 00000001800c25dc     node_lame.obj
 0004:000005e8       $pdata$?node_lame_get_VBR_min_bitrate_kbps@nodelame@@YAXAEBV?$FunctionCallbackInfo@VValue@v8@@@Nan@@@Z 00000001800c25e8     node_lame.obj
 0004:000005f4       $pdata$?node_lame_set_VBR_min_bitrate_kbps@nodelame@@YAXAEBV?$FunctionCallbackInfo@VValue@v8@@@Nan@@@Z 00000001800c25f4     node_lame.obj
 0004:00000600       $pdata$?node_lame_get_VBR_max_bitrate_kbps@nodelame@@YAXAEBV?$FunctionCallbackInfo@VValue@v8@@@Nan@@@Z 00000001800c2600     node_lame.obj
 0004:0000060c       $pdata$?node_lame_set_VBR_max_bitrate_kbps@nodelame@@YAXAEBV?$FunctionCallbackInfo@VValue@v8@@@Nan@@@Z 00000001800c260c     node_lame.obj
 0004:00000618       $pdata$?node_lame_get_VBR_hard_min@nodelame@@YAXAEBV?$FunctionCallbackInfo@VValue@v8@@@Nan@@@Z 00000001800c2618     node_lame.obj
 0004:00000624       $pdata$?node_lame_set_VBR_hard_min@nodelame@@YAXAEBV?$FunctionCallbackInfo@VValue@v8@@@Nan@@@Z 00000001800c2624     node_lame.obj
 0004:00000630       $pdata$?node_lame_get_lowpassfreq@nodelame@@YAXAEBV?$FunctionCallbackInfo@VValue@v8@@@Nan@@@Z 00000001800c2630     node_lame.obj
 0004:0000063c       $pdata$?node_lame_set_lowpassfreq@nodelame@@YAXAEBV?$FunctionCallbackInfo@VValue@v8@@@Nan@@@Z 00000001800c263c     node_lame.obj
 0004:00000648       $pdata$?node_lame_get_lowpasswidth@nodelame@@YAXAEBV?$FunctionCallbackInfo@VValue@v8@@@Nan@@@Z 00000001800c2648     node_lame.obj
 0004:00000654       $pdata$?node_lame_set_lowpasswidth@nodelame@@YAXAEBV?$FunctionCallbackInfo@VValue@v8@@@Nan@@@Z 00000001800c2654     node_lame.obj
 0004:00000660       $pdata$?node_lame_get_highpassfreq@nodelame@@YAXAEBV?$FunctionCallbackInfo@VValue@v8@@@Nan@@@Z 00000001800c2660     node_lame.obj
 0004:0000066c       $pdata$?node_lame_set_highpassfreq@nodelame@@YAXAEBV?$FunctionCallbackInfo@VValue@v8@@@Nan@@@Z 00000001800c266c     node_lame.obj
 0004:00000678       $pdata$?node_lame_get_highpasswidth@nodelame@@YAXAEBV?$FunctionCallbackInfo@VValue@v8@@@Nan@@@Z 00000001800c2678     node_lame.obj
 0004:00000684       $pdata$?node_lame_set_highpasswidth@nodelame@@YAXAEBV?$FunctionCallbackInfo@VValue@v8@@@Nan@@@Z 00000001800c2684     node_lame.obj
 0004:00000690       $pdata$?InitLame@nodelame@@YAXV?$Local@VObject@v8@@@v8@@@Z 00000001800c2690     node_lame.obj
 0004:0000069c       $pdata$?New@?$IntegerFactory@VInteger@v8@@@imp@Nan@@SA?AV?$Local@VInteger@v8@@@v8@@H@Z 00000001800c269c     node_lame.obj
 0004:000006a8       $pdata$?node_mpg123_init@nodelame@@YAXAEBV?$FunctionCallbackInfo@VValue@v8@@@Nan@@@Z 00000001800c26a8     node_mpg123.obj
 0004:000006b4       $pdata$?node_mpg123_new@nodelame@@YAXAEBV?$FunctionCallbackInfo@VValue@v8@@@Nan@@@Z 00000001800c26b4     node_mpg123.obj
 0004:000006c0       $pdata$?node_mpg123_current_decoder@nodelame@@YAXAEBV?$FunctionCallbackInfo@VValue@v8@@@Nan@@@Z 00000001800c26c0     node_mpg123.obj
 0004:000006cc       $pdata$?node_mpg123_supported_decoders@nodelame@@YAXAEBV?$FunctionCallbackInfo@VValue@v8@@@Nan@@@Z 00000001800c26cc     node_mpg123.obj
 0004:000006cc       $pdata$?node_mpg123_decoders@nodelame@@YAXAEBV?$FunctionCallbackInfo@VValue@v8@@@Nan@@@Z 00000001800c26cc     node_mpg123.obj
 0004:000006d8       $pdata$2$?node_mpg123_supported_decoders@nodelame@@YAXAEBV?$FunctionCallbackInfo@VValue@v8@@@Nan@@@Z 00000001800c26d8     node_mpg123.obj
 0004:000006d8       $pdata$2$?node_mpg123_decoders@nodelame@@YAXAEBV?$FunctionCallbackInfo@VValue@v8@@@Nan@@@Z 00000001800c26d8     node_mpg123.obj
 0004:000006e4       $pdata$4$?node_mpg123_supported_decoders@nodelame@@YAXAEBV?$FunctionCallbackInfo@VValue@v8@@@Nan@@@Z 00000001800c26e4     node_mpg123.obj
 0004:000006e4       $pdata$4$?node_mpg123_decoders@nodelame@@YAXAEBV?$FunctionCallbackInfo@VValue@v8@@@Nan@@@Z 00000001800c26e4     node_mpg123.obj
 0004:000006f0       $pdata$5$?node_mpg123_decoders@nodelame@@YAXAEBV?$FunctionCallbackInfo@VValue@v8@@@Nan@@@Z 00000001800c26f0     node_mpg123.obj
 0004:000006f0       $pdata$5$?node_mpg123_supported_decoders@nodelame@@YAXAEBV?$FunctionCallbackInfo@VValue@v8@@@Nan@@@Z 00000001800c26f0     node_mpg123.obj
 0004:000006fc       $pdata$6$?node_mpg123_decoders@nodelame@@YAXAEBV?$FunctionCallbackInfo@VValue@v8@@@Nan@@@Z 00000001800c26fc     node_mpg123.obj
 0004:000006fc       $pdata$6$?node_mpg123_supported_decoders@nodelame@@YAXAEBV?$FunctionCallbackInfo@VValue@v8@@@Nan@@@Z 00000001800c26fc     node_mpg123.obj
 0004:00000708       $pdata$?node_mpg123_open_feed@nodelame@@YAXAEBV?$FunctionCallbackInfo@VValue@v8@@@Nan@@@Z 00000001800c2708     node_mpg123.obj
 0004:00000714       $pdata$?node_mpg123_getformat@nodelame@@YAXAEBV?$FunctionCallbackInfo@VValue@v8@@@Nan@@@Z 00000001800c2714     node_mpg123.obj
 0004:00000720       $pdata$1$?node_mpg123_getformat@nodelame@@YAXAEBV?$FunctionCallbackInfo@VValue@v8@@@Nan@@@Z 00000001800c2720     node_mpg123.obj
 0004:0000072c       $pdata$3$?node_mpg123_getformat@nodelame@@YAXAEBV?$FunctionCallbackInfo@VValue@v8@@@Nan@@@Z 00000001800c272c     node_mpg123.obj
 0004:00000738       $pdata$7$?node_mpg123_getformat@nodelame@@YAXAEBV?$FunctionCallbackInfo@VValue@v8@@@Nan@@@Z 00000001800c2738     node_mpg123.obj
 0004:00000744       $pdata$8$?node_mpg123_getformat@nodelame@@YAXAEBV?$FunctionCallbackInfo@VValue@v8@@@Nan@@@Z 00000001800c2744     node_mpg123.obj
 0004:00000750       $pdata$9$?node_mpg123_getformat@nodelame@@YAXAEBV?$FunctionCallbackInfo@VValue@v8@@@Nan@@@Z 00000001800c2750     node_mpg123.obj
 0004:0000075c       $pdata$10$?node_mpg123_getformat@nodelame@@YAXAEBV?$FunctionCallbackInfo@VValue@v8@@@Nan@@@Z 00000001800c275c     node_mpg123.obj
 0004:00000768       $pdata$11$?node_mpg123_getformat@nodelame@@YAXAEBV?$FunctionCallbackInfo@VValue@v8@@@Nan@@@Z 00000001800c2768     node_mpg123.obj
 0004:00000774       $pdata$?node_mpg123_safe_buffer@nodelame@@YAXAEBV?$FunctionCallbackInfo@VValue@v8@@@Nan@@@Z 00000001800c2774     node_mpg123.obj
 0004:00000780       $pdata$?node_mpg123_outblock@nodelame@@YAXAEBV?$FunctionCallbackInfo@VValue@v8@@@Nan@@@Z 00000001800c2780     node_mpg123.obj
 0004:0000078c       $pdata$?node_mpg123_framepos@nodelame@@YAXAEBV?$FunctionCallbackInfo@VValue@v8@@@Nan@@@Z 00000001800c278c     node_mpg123.obj
 0004:00000798       $pdata$?node_mpg123_tell@nodelame@@YAXAEBV?$FunctionCallbackInfo@VValue@v8@@@Nan@@@Z 00000001800c2798     node_mpg123.obj
 0004:000007a4       $pdata$?node_mpg123_tellframe@nodelame@@YAXAEBV?$FunctionCallbackInfo@VValue@v8@@@Nan@@@Z 00000001800c27a4     node_mpg123.obj
 0004:000007b0       $pdata$?node_mpg123_tell_stream@nodelame@@YAXAEBV?$FunctionCallbackInfo@VValue@v8@@@Nan@@@Z 00000001800c27b0     node_mpg123.obj
 0004:000007bc       $pdata$?node_mpg123_feed@nodelame@@YAXAEBV?$FunctionCallbackInfo@VValue@v8@@@Nan@@@Z 00000001800c27bc     node_mpg123.obj
 0004:000007c8       $pdata$?node_mpg123_feed_async@nodelame@@YAXPEAUuv_work_s@@@Z 00000001800c27c8     node_mpg123.obj
 0004:000007d4       $pdata$?node_mpg123_feed_after@nodelame@@YAXPEAUuv_work_s@@@Z 00000001800c27d4     node_mpg123.obj
 0004:000007e0       $pdata$?node_mpg123_read@nodelame@@YAXAEBV?$FunctionCallbackInfo@VValue@v8@@@Nan@@@Z 00000001800c27e0     node_mpg123.obj
 0004:000007ec       $pdata$?node_mpg123_read_async@nodelame@@YAXPEAUuv_work_s@@@Z 00000001800c27ec     node_mpg123.obj
 0004:000007f8       $pdata$?node_mpg123_read_after@nodelame@@YAXPEAUuv_work_s@@@Z 00000001800c27f8     node_mpg123.obj
 0004:00000804       $pdata$?node_mpg123_id3@nodelame@@YAXAEBV?$FunctionCallbackInfo@VValue@v8@@@Nan@@@Z 00000001800c2804     node_mpg123.obj
 0004:00000810       $pdata$?node_mpg123_id3_async@nodelame@@YAXPEAUuv_work_s@@@Z 00000001800c2810     node_mpg123.obj
 0004:0000081c       $pdata$?node_mpg123_id3_after@nodelame@@YAXPEAUuv_work_s@@@Z 00000001800c281c     node_mpg123.obj
 0004:00000828       $pdata$0$?node_mpg123_id3_after@nodelame@@YAXPEAUuv_work_s@@@Z 00000001800c2828     node_mpg123.obj
 0004:00000834       $pdata$3$?node_mpg123_id3_after@nodelame@@YAXPEAUuv_work_s@@@Z 00000001800c2834     node_mpg123.obj
 0004:00000840       $pdata$5$?node_mpg123_id3_after@nodelame@@YAXPEAUuv_work_s@@@Z 00000001800c2840     node_mpg123.obj
 0004:0000084c       $pdata$6$?node_mpg123_id3_after@nodelame@@YAXPEAUuv_work_s@@@Z 00000001800c284c     node_mpg123.obj
 0004:00000858       $pdata$7$?node_mpg123_id3_after@nodelame@@YAXPEAUuv_work_s@@@Z 00000001800c2858     node_mpg123.obj
 0004:00000864       $pdata$8$?node_mpg123_id3_after@nodelame@@YAXPEAUuv_work_s@@@Z 00000001800c2864     node_mpg123.obj
 0004:00000870       $pdata$9$?node_mpg123_id3_after@nodelame@@YAXPEAUuv_work_s@@@Z 00000001800c2870     node_mpg123.obj
 0004:0000087c       $pdata$10$?node_mpg123_id3_after@nodelame@@YAXPEAUuv_work_s@@@Z 00000001800c287c     node_mpg123.obj
 0004:00000888       $pdata$11$?node_mpg123_id3_after@nodelame@@YAXPEAUuv_work_s@@@Z 00000001800c2888     node_mpg123.obj
 0004:00000894       $pdata$?InitMPG123@nodelame@@YAXV?$Local@VObject@v8@@@v8@@@Z 00000001800c2894     node_mpg123.obj
 0004:000008a0       $pdata$load_exe_hook       00000001800c28a0     win_delay_load_hook.obj
 0004:000008ac       $pdata$lame_init_params_ppflt 00000001800c28ac     libmp3lame:lame.obj
 0004:000008b8       $pdata$optimum_samplefreq  00000001800c28b8     libmp3lame:lame.obj
 0004:000008c4       $pdata$lame_init_params    00000001800c28c4     libmp3lame:lame.obj
 0004:000008d0       $pdata$4$lame_init_params  00000001800c28d0     libmp3lame:lame.obj
 0004:000008dc       $pdata$5$lame_init_params  00000001800c28dc     libmp3lame:lame.obj
 0004:000008e8       $pdata$lame_print_config   00000001800c28e8     libmp3lame:lame.obj
 0004:000008f4       $pdata$lame_print_internals 00000001800c28f4     libmp3lame:lame.obj
 0004:00000900       $pdata$save_gain_values    00000001800c2900     libmp3lame:lame.obj
 0004:0000090c       $pdata$update_inbuffer_size 00000001800c290c     libmp3lame:lame.obj
 0004:00000918       $pdata$0$update_inbuffer_size 00000001800c2918     libmp3lame:lame.obj
 0004:00000924       $pdata$1$update_inbuffer_size 00000001800c2924     libmp3lame:lame.obj
 0004:00000930       $pdata$2$update_inbuffer_size 00000001800c2930     libmp3lame:lame.obj
 0004:0000093c       $pdata$3$update_inbuffer_size 00000001800c293c     libmp3lame:lame.obj
 0004:00000948       $pdata$lame_encode_buffer_sample_t 00000001800c2948     libmp3lame:lame.obj
 0004:00000954       $pdata$1$lame_encode_buffer_sample_t 00000001800c2954     libmp3lame:lame.obj
 0004:00000960       $pdata$6$lame_encode_buffer_sample_t 00000001800c2960     libmp3lame:lame.obj
 0004:0000096c       $pdata$7$lame_encode_buffer_sample_t 00000001800c296c     libmp3lame:lame.obj
 0004:00000978       $pdata$9$lame_encode_buffer_sample_t 00000001800c2978     libmp3lame:lame.obj
 0004:00000984       $pdata$lame_copy_inbuffer  00000001800c2984     libmp3lame:lame.obj
 0004:00000990       $pdata$lame_encode_buffer_template 00000001800c2990     libmp3lame:lame.obj
 0004:0000099c       $pdata$lame_encode_flush_nogap 00000001800c299c     libmp3lame:lame.obj
 0004:000009a8       $pdata$0$lame_encode_flush_nogap 00000001800c29a8     libmp3lame:lame.obj
 0004:000009b4       $pdata$2$lame_encode_flush_nogap 00000001800c29b4     libmp3lame:lame.obj
 0004:000009c0       $pdata$3$lame_encode_flush_nogap 00000001800c29c0     libmp3lame:lame.obj
 0004:000009cc       $pdata$lame_close          00000001800c29cc     libmp3lame:lame.obj
 0004:000009d8       $pdata$lame_init_old       00000001800c29d8     libmp3lame:lame.obj
 0004:000009e4       $pdata$sprintf             00000001800c29e4     libmp3lame:id3tag.obj
 0004:000009f0       $pdata$id3v2AddAudioDuration 00000001800c29f0     libmp3lame:id3tag.obj
 0004:000009fc       $pdata$0$id3v2AddAudioDuration 00000001800c29fc     libmp3lame:id3tag.obj
 0004:00000a08       $pdata$1$id3v2AddAudioDuration 00000001800c2a08     libmp3lame:id3tag.obj
 0004:00000a14       $pdata$2$id3v2AddAudioDuration 00000001800c2a14     libmp3lame:id3tag.obj
 0004:00000a20       $pdata$3$id3v2AddAudioDuration 00000001800c2a20     libmp3lame:id3tag.obj
 0004:00000a2c       $pdata$local_strdup        00000001800c2a2c     libmp3lame:id3tag.obj
 0004:00000a38       $pdata$0$local_strdup      00000001800c2a38     libmp3lame:id3tag.obj
 0004:00000a44       $pdata$2$local_strdup      00000001800c2a44     libmp3lame:id3tag.obj
 0004:00000a50       $pdata$id3v2_add_latin1    00000001800c2a50     libmp3lame:id3tag.obj
 0004:00000a5c       $pdata$0$id3v2_add_latin1  00000001800c2a5c     libmp3lame:id3tag.obj
 0004:00000a68       $pdata$2$id3v2_add_latin1  00000001800c2a68     libmp3lame:id3tag.obj
 0004:00000a74       $pdata$3$id3v2_add_latin1  00000001800c2a74     libmp3lame:id3tag.obj
 0004:00000a80       $pdata$writeLoBytes        00000001800c2a80     libmp3lame:id3tag.obj
 0004:00000a8c       $pdata$0$writeLoBytes      00000001800c2a8c     libmp3lame:id3tag.obj
 0004:00000a98       $pdata$1$writeLoBytes      00000001800c2a98     libmp3lame:id3tag.obj
 0004:00000aa4       $pdata$set_frame_comment   00000001800c2aa4     libmp3lame:id3tag.obj
 0004:00000ab0       $pdata$0$set_frame_comment 00000001800c2ab0     libmp3lame:id3tag.obj
 0004:00000abc       $pdata$2$set_frame_comment 00000001800c2abc     libmp3lame:id3tag.obj
 0004:00000ac8       $pdata$3$set_frame_comment 00000001800c2ac8     libmp3lame:id3tag.obj
 0004:00000ad4       $pdata$set_frame_custom2   00000001800c2ad4     libmp3lame:id3tag.obj
 0004:00000ae0       $pdata$0$set_frame_custom2 00000001800c2ae0     libmp3lame:id3tag.obj
 0004:00000aec       $pdata$2$set_frame_custom2 00000001800c2aec     libmp3lame:id3tag.obj
 0004:00000af8       $pdata$3$set_frame_custom2 00000001800c2af8     libmp3lame:id3tag.obj
 0004:00000b04       $pdata$set_frame_wxxx      00000001800c2b04     libmp3lame:id3tag.obj
 0004:00000b10       $pdata$0$set_frame_wxxx    00000001800c2b10     libmp3lame:id3tag.obj
 0004:00000b1c       $pdata$1$set_frame_wxxx    00000001800c2b1c     libmp3lame:id3tag.obj
 0004:00000b28       $pdata$lame_get_id3v2_tag  00000001800c2b28     libmp3lame:id3tag.obj
 0004:00000b34       $pdata$0$lame_get_id3v2_tag 00000001800c2b34     libmp3lame:id3tag.obj
 0004:00000b40       $pdata$4$lame_get_id3v2_tag 00000001800c2b40     libmp3lame:id3tag.obj
 0004:00000b4c       $pdata$5$lame_get_id3v2_tag 00000001800c2b4c     libmp3lame:id3tag.obj
 0004:00000b58       $pdata$6$lame_get_id3v2_tag 00000001800c2b58     libmp3lame:id3tag.obj
 0004:00000b64       $pdata$id3tag_write_v2     00000001800c2b64     libmp3lame:id3tag.obj
 0004:00000b70       $pdata$lame_get_id3v1_tag  00000001800c2b70     libmp3lame:id3tag.obj
 0004:00000b7c       $pdata$1$lame_get_id3v1_tag 00000001800c2b7c     libmp3lame:id3tag.obj
 0004:00000b88       $pdata$2$lame_get_id3v1_tag 00000001800c2b88     libmp3lame:id3tag.obj
 0004:00000b94       $pdata$3$lame_get_id3v1_tag 00000001800c2b94     libmp3lame:id3tag.obj
 0004:00000ba0       $pdata$4$lame_get_id3v1_tag 00000001800c2ba0     libmp3lame:id3tag.obj
 0004:00000bac       $pdata$5$lame_get_id3v1_tag 00000001800c2bac     libmp3lame:id3tag.obj
 0004:00000bb8       $pdata$6$lame_get_id3v1_tag 00000001800c2bb8     libmp3lame:id3tag.obj
 0004:00000bc4       $pdata$putbits2            00000001800c2bc4     libmp3lame:bitstream.obj
 0004:00000bd0       $pdata$drain_into_ancillary 00000001800c2bd0     libmp3lame:bitstream.obj
 0004:00000bdc       $pdata$1$drain_into_ancillary 00000001800c2bdc     libmp3lame:bitstream.obj
 0004:00000be8       $pdata$2$drain_into_ancillary 00000001800c2be8     libmp3lame:bitstream.obj
 0004:00000bf4       $pdata$writeheader         00000001800c2bf4     libmp3lame:bitstream.obj
 0004:00000c00       $pdata$CRC_writeheader     00000001800c2c00     libmp3lame:bitstream.obj
 0004:00000c0c       $pdata$encodeSideInfo2     00000001800c2c0c     libmp3lame:bitstream.obj
 0004:00000c18       $pdata$2$encodeSideInfo2   00000001800c2c18     libmp3lame:bitstream.obj
 0004:00000c24       $pdata$3$encodeSideInfo2   00000001800c2c24     libmp3lame:bitstream.obj
 0004:00000c30       $pdata$6$encodeSideInfo2   00000001800c2c30     libmp3lame:bitstream.obj
 0004:00000c3c       $pdata$7$encodeSideInfo2   00000001800c2c3c     libmp3lame:bitstream.obj
 0004:00000c48       $pdata$8$encodeSideInfo2   00000001800c2c48     libmp3lame:bitstream.obj
 0004:00000c54       $pdata$9$encodeSideInfo2   00000001800c2c54     libmp3lame:bitstream.obj
 0004:00000c60       $pdata$huffman_coder_count1 00000001800c2c60     libmp3lame:bitstream.obj
 0004:00000c6c       $pdata$1$huffman_coder_count1 00000001800c2c6c     libmp3lame:bitstream.obj
 0004:00000c78       $pdata$2$huffman_coder_count1 00000001800c2c78     libmp3lame:bitstream.obj
 0004:00000c84       $pdata$Huffmancode         00000001800c2c84     libmp3lame:bitstream.obj
 0004:00000c90       $pdata$0$Huffmancode       00000001800c2c90     libmp3lame:bitstream.obj
 0004:00000c9c       $pdata$5$Huffmancode       00000001800c2c9c     libmp3lame:bitstream.obj
 0004:00000ca8       $pdata$6$Huffmancode       00000001800c2ca8     libmp3lame:bitstream.obj
 0004:00000cb4       $pdata$7$Huffmancode       00000001800c2cb4     libmp3lame:bitstream.obj
 0004:00000cc0       $pdata$LongHuffmancodebits 00000001800c2cc0     libmp3lame:bitstream.obj
 0004:00000ccc       $pdata$writeMainData       00000001800c2ccc     libmp3lame:bitstream.obj
 0004:00000cd8       $pdata$compute_flushbits   00000001800c2cd8     libmp3lame:bitstream.obj
 0004:00000ce4       $pdata$add_dummy_byte      00000001800c2ce4     libmp3lame:bitstream.obj
 0004:00000cf0       $pdata$format_bitstream    00000001800c2cf0     libmp3lame:bitstream.obj
 0004:00000cfc       $pdata$copy_buffer         00000001800c2cfc     libmp3lame:bitstream.obj
 0004:00000d08       $pdata$apply_vbr_preset    00000001800c2d08     libmp3lame:presets.obj
 0004:00000d14       $pdata$apply_abr_preset    00000001800c2d14     libmp3lame:presets.obj
 0004:00000d20       $pdata$apply_preset        00000001800c2d20     libmp3lame:presets.obj
 0004:00000d2c       $pdata$convert_partition2scalefac 00000001800c2d2c     libmp3lame:psymodel.obj
 0004:00000d38       $pdata$convert_partition2scalefac_s 00000001800c2d38     libmp3lame:psymodel.obj
 0004:00000d44       $pdata$convert_partition2scalefac_l_to_s 00000001800c2d44     libmp3lame:psymodel.obj
 0004:00000d50       $pdata$pecalc_s            00000001800c2d50     libmp3lame:psymodel.obj
 0004:00000d5c       $pdata$pecalc_l            00000001800c2d5c     libmp3lame:psymodel.obj
 0004:00000d68       $pdata$calc_energy         00000001800c2d68     libmp3lame:psymodel.obj
 0004:00000d74       $pdata$0$calc_energy       00000001800c2d74     libmp3lame:psymodel.obj
 0004:00000d80       $pdata$1$calc_energy       00000001800c2d80     libmp3lame:psymodel.obj
 0004:00000d8c       $pdata$calc_mask_index_l   00000001800c2d8c     libmp3lame:psymodel.obj
 0004:00000d98       $pdata$0$calc_mask_index_l 00000001800c2d98     libmp3lame:psymodel.obj
 0004:00000da4       $pdata$1$calc_mask_index_l 00000001800c2da4     libmp3lame:psymodel.obj
 0004:00000db0       $pdata$2$calc_mask_index_l 00000001800c2db0     libmp3lame:psymodel.obj
 0004:00000dbc       $pdata$3$calc_mask_index_l 00000001800c2dbc     libmp3lame:psymodel.obj
 0004:00000dc8       $pdata$vbrpsy_compute_fft_l 00000001800c2dc8     libmp3lame:psymodel.obj
 0004:00000dd4       $pdata$vbrpsy_compute_fft_s 00000001800c2dd4     libmp3lame:psymodel.obj
 0004:00000de0       $pdata$vbrpsy_attack_detection 00000001800c2de0     libmp3lame:psymodel.obj
 0004:00000dec       $pdata$6$vbrpsy_attack_detection 00000001800c2dec     libmp3lame:psymodel.obj
 0004:00000df8       $pdata$7$vbrpsy_attack_detection 00000001800c2df8     libmp3lame:psymodel.obj
 0004:00000e04       $pdata$vbrpsy_skip_masking_s 00000001800c2e04     libmp3lame:psymodel.obj
 0004:00000e10       $pdata$0$vbrpsy_skip_masking_s 00000001800c2e10     libmp3lame:psymodel.obj
 0004:00000e1c       $pdata$1$vbrpsy_skip_masking_s 00000001800c2e1c     libmp3lame:psymodel.obj
 0004:00000e28       $pdata$vbrpsy_calc_mask_index_s 00000001800c2e28     libmp3lame:psymodel.obj
 0004:00000e34       $pdata$1$vbrpsy_calc_mask_index_s 00000001800c2e34     libmp3lame:psymodel.obj
 0004:00000e40       $pdata$2$vbrpsy_calc_mask_index_s 00000001800c2e40     libmp3lame:psymodel.obj
 0004:00000e4c       $pdata$3$vbrpsy_calc_mask_index_s 00000001800c2e4c     libmp3lame:psymodel.obj
 0004:00000e58       $pdata$4$vbrpsy_calc_mask_index_s 00000001800c2e58     libmp3lame:psymodel.obj
 0004:00000e64       $pdata$vbrpsy_compute_masking_s 00000001800c2e64     libmp3lame:psymodel.obj
 0004:00000e70       $pdata$5$vbrpsy_compute_masking_s 00000001800c2e70     libmp3lame:psymodel.obj
 0004:00000e7c       $pdata$6$vbrpsy_compute_masking_s 00000001800c2e7c     libmp3lame:psymodel.obj
 0004:00000e88       $pdata$7$vbrpsy_compute_masking_s 00000001800c2e88     libmp3lame:psymodel.obj
 0004:00000e94       $pdata$8$vbrpsy_compute_masking_s 00000001800c2e94     libmp3lame:psymodel.obj
 0004:00000ea0       $pdata$9$vbrpsy_compute_masking_s 00000001800c2ea0     libmp3lame:psymodel.obj
 0004:00000eac       $pdata$vbrpsy_compute_masking_l 00000001800c2eac     libmp3lame:psymodel.obj
 0004:00000eb8       $pdata$3$vbrpsy_compute_masking_l 00000001800c2eb8     libmp3lame:psymodel.obj
 0004:00000ec4       $pdata$9$vbrpsy_compute_masking_l 00000001800c2ec4     libmp3lame:psymodel.obj
 0004:00000ed0       $pdata$10$vbrpsy_compute_masking_l 00000001800c2ed0     libmp3lame:psymodel.obj
 0004:00000edc       $pdata$11$vbrpsy_compute_masking_l 00000001800c2edc     libmp3lame:psymodel.obj
 0004:00000ee8       $pdata$12$vbrpsy_compute_masking_l 00000001800c2ee8     libmp3lame:psymodel.obj
 0004:00000ef4       $pdata$vbrpsy_compute_MS_thresholds 00000001800c2ef4     libmp3lame:psymodel.obj
 0004:00000f00       $pdata$4$vbrpsy_compute_MS_thresholds 00000001800c2f00     libmp3lame:psymodel.obj
 0004:00000f0c       $pdata$5$vbrpsy_compute_MS_thresholds 00000001800c2f0c     libmp3lame:psymodel.obj
 0004:00000f18       $pdata$L3psycho_anal_vbr   00000001800c2f18     libmp3lame:psymodel.obj
 0004:00000f24       $pdata$1$L3psycho_anal_vbr 00000001800c2f24     libmp3lame:psymodel.obj
 0004:00000f30       $pdata$2$L3psycho_anal_vbr 00000001800c2f30     libmp3lame:psymodel.obj
 0004:00000f3c       $pdata$7$L3psycho_anal_vbr 00000001800c2f3c     libmp3lame:psymodel.obj
 0004:00000f48       $pdata$8$L3psycho_anal_vbr 00000001800c2f48     libmp3lame:psymodel.obj
 0004:00000f54       $pdata$9$L3psycho_anal_vbr 00000001800c2f54     libmp3lame:psymodel.obj
 0004:00000f60       $pdata$s3_func             00000001800c2f60     libmp3lame:psymodel.obj
 0004:00000f6c       $pdata$1$s3_func           00000001800c2f6c     libmp3lame:psymodel.obj
 0004:00000f78       $pdata$2$s3_func           00000001800c2f78     libmp3lame:psymodel.obj
 0004:00000f84       $pdata$init_numline        00000001800c2f84     libmp3lame:psymodel.obj
 0004:00000f90       $pdata$compute_bark_values 00000001800c2f90     libmp3lame:psymodel.obj
 0004:00000f9c       $pdata$10$compute_bark_values 00000001800c2f9c     libmp3lame:psymodel.obj
 0004:00000fa8       $pdata$11$compute_bark_values 00000001800c2fa8     libmp3lame:psymodel.obj
 0004:00000fb4       $pdata$init_s3_values      00000001800c2fb4     libmp3lame:psymodel.obj
 0004:00000fc0       $pdata$4$init_s3_values    00000001800c2fc0     libmp3lame:psymodel.obj
 0004:00000fcc       $pdata$6$init_s3_values    00000001800c2fcc     libmp3lame:psymodel.obj
 0004:00000fd8       $pdata$7$init_s3_values    00000001800c2fd8     libmp3lame:psymodel.obj
 0004:00000fe4       $pdata$8$init_s3_values    00000001800c2fe4     libmp3lame:psymodel.obj
 0004:00000ff0       $pdata$psymodel_init       00000001800c2ff0     libmp3lame:psymodel.obj
 0004:00000ffc       $pdata$6$psymodel_init     00000001800c2ffc     libmp3lame:psymodel.obj
 0004:00001008       $pdata$12$psymodel_init    00000001800c3008     libmp3lame:psymodel.obj
 0004:00001014       $pdata$13$psymodel_init    00000001800c3014     libmp3lame:psymodel.obj
 0004:00001020       $pdata$14$psymodel_init    00000001800c3020     libmp3lame:psymodel.obj
 0004:0000102c       $pdata$15$psymodel_init    00000001800c302c     libmp3lame:psymodel.obj
 0004:00001038       $pdata$free_id3tag         00000001800c3038     libmp3lame:util.obj
 0004:00001044       $pdata$1$free_id3tag       00000001800c3044     libmp3lame:util.obj
 0004:00001050       $pdata$2$free_id3tag       00000001800c3050     libmp3lame:util.obj
 0004:0000105c       $pdata$freegfc             00000001800c305c     libmp3lame:util.obj
 0004:00001068       $pdata$ATHformula_GB       00000001800c3068     libmp3lame:util.obj
 0004:00001074       $pdata$ATHformula          00000001800c3074     libmp3lame:util.obj
 0004:00001080       $pdata$FindNearestBitrate  00000001800c3080     libmp3lame:util.obj
 0004:0000108c       $pdata$nearestBitrateFullIndex 00000001800c308c     libmp3lame:util.obj
 0004:00001098       $pdata$blackman            00000001800c3098     libmp3lame:util.obj
 0004:000010a4       $pdata$fill_buffer_resample 00000001800c30a4     libmp3lame:util.obj
 0004:000010b0       $pdata$1$fill_buffer_resample 00000001800c30b0     libmp3lame:util.obj
 0004:000010bc       $pdata$6$fill_buffer_resample 00000001800c30bc     libmp3lame:util.obj
 0004:000010c8       $pdata$7$fill_buffer_resample 00000001800c30c8     libmp3lame:util.obj
 0004:000010d4       $pdata$8$fill_buffer_resample 00000001800c30d4     libmp3lame:util.obj
 0004:000010e0       $pdata$9$fill_buffer_resample 00000001800c30e0     libmp3lame:util.obj
 0004:000010ec       $pdata$10$fill_buffer_resample 00000001800c30ec     libmp3lame:util.obj
 0004:000010f8       $pdata$lame_report_def     00000001800c30f8     libmp3lame:util.obj
 0004:00001104       $pdata$lame_msgf           00000001800c3104     libmp3lame:util.obj
 0004:00001110       $pdata$lame_errorf         00000001800c3110     libmp3lame:util.obj
 0004:0000111c       $pdata$init_log_table      00000001800c311c     libmp3lame:util.obj
 0004:00001128       $pdata$5$init_log_table    00000001800c3128     libmp3lame:util.obj
 0004:00001134       $pdata$6$init_log_table    00000001800c3134     libmp3lame:util.obj
 0004:00001140       $pdata$7$init_log_table    00000001800c3140     libmp3lame:util.obj
 0004:0000114c       $pdata$8$init_log_table    00000001800c314c     libmp3lame:util.obj
 0004:00001158       $pdata$compute_ath         00000001800c3158     libmp3lame:quantize_pvt.obj
 0004:00001164       $pdata$iteration_init      00000001800c3164     libmp3lame:quantize_pvt.obj
 0004:00001170       $pdata$0$iteration_init    00000001800c3170     libmp3lame:quantize_pvt.obj
 0004:0000117c       $pdata$9$iteration_init    00000001800c317c     libmp3lame:quantize_pvt.obj
 0004:00001188       $pdata$10$iteration_init   00000001800c3188     libmp3lame:quantize_pvt.obj
 0004:00001194       $pdata$11$iteration_init   00000001800c3194     libmp3lame:quantize_pvt.obj
 0004:000011a0       $pdata$12$iteration_init   00000001800c31a0     libmp3lame:quantize_pvt.obj
 0004:000011ac       $pdata$13$iteration_init   00000001800c31ac     libmp3lame:quantize_pvt.obj
 0004:000011b8       $pdata$on_pe               00000001800c31b8     libmp3lame:quantize_pvt.obj
 0004:000011c4       $pdata$reduce_side         00000001800c31c4     libmp3lame:quantize_pvt.obj
 0004:000011d0       $pdata$athAdjust           00000001800c31d0     libmp3lame:quantize_pvt.obj
 0004:000011dc       $pdata$calc_xmin           00000001800c31dc     libmp3lame:quantize_pvt.obj
 0004:000011e8       $pdata$0$calc_xmin         00000001800c31e8     libmp3lame:quantize_pvt.obj
 0004:000011f4       $pdata$1$calc_xmin         00000001800c31f4     libmp3lame:quantize_pvt.obj
 0004:00001200       $pdata$calc_noise          00000001800c3200     libmp3lame:quantize_pvt.obj
 0004:0000120c       $pdata$8$calc_noise        00000001800c320c     libmp3lame:quantize_pvt.obj
 0004:00001218       $pdata$9$calc_noise        00000001800c3218     libmp3lame:quantize_pvt.obj
 0004:00001224       $pdata$set_pinfo           00000001800c3224     libmp3lame:quantize_pvt.obj
 0004:00001230       $pdata$0$set_pinfo         00000001800c3230     libmp3lame:quantize_pvt.obj
 0004:0000123c       $pdata$1$set_pinfo         00000001800c323c     libmp3lame:quantize_pvt.obj
 0004:00001248       $pdata$set_frame_pinfo     00000001800c3248     libmp3lame:quantize_pvt.obj
 0004:00001254       $pdata$5$set_frame_pinfo   00000001800c3254     libmp3lame:quantize_pvt.obj
 0004:00001260       $pdata$6$set_frame_pinfo   00000001800c3260     libmp3lame:quantize_pvt.obj
 0004:0000126c       $pdata$setLameTagFrameHeader 00000001800c326c     libmp3lame:VbrTag.obj
 0004:00001278       $pdata$InitVbrTag          00000001800c3278     libmp3lame:VbrTag.obj
 0004:00001284       $pdata$init_xrpow_core_c   00000001800c3284     libmp3lame:quantize.obj
 0004:00001290       $pdata$4$init_xrpow_core_c 00000001800c3290     libmp3lame:quantize.obj
 0004:0000129c       $pdata$5$init_xrpow_core_c 00000001800c329c     libmp3lame:quantize.obj
 0004:000012a8       $pdata$init_xrpow          00000001800c32a8     libmp3lame:quantize.obj
 0004:000012b4       $pdata$psfb21_analogsilence 00000001800c32b4     libmp3lame:quantize.obj
 0004:000012c0       $pdata$init_outer_loop     00000001800c32c0     libmp3lame:quantize.obj
 0004:000012cc       $pdata$0$init_outer_loop   00000001800c32cc     libmp3lame:quantize.obj
 0004:000012d8       $pdata$1$init_outer_loop   00000001800c32d8     libmp3lame:quantize.obj
 0004:000012e4       $pdata$4$init_outer_loop   00000001800c32e4     libmp3lame:quantize.obj
 0004:000012f0       $pdata$5$init_outer_loop   00000001800c32f0     libmp3lame:quantize.obj
 0004:000012fc       $pdata$6$init_outer_loop   00000001800c32fc     libmp3lame:quantize.obj
 0004:00001308       $pdata$7$init_outer_loop   00000001800c3308     libmp3lame:quantize.obj
 0004:00001314       $pdata$bin_search_StepSize 00000001800c3314     libmp3lame:quantize.obj
 0004:00001320       $pdata$trancate_smallspectrums 00000001800c3320     libmp3lame:quantize.obj
 0004:0000132c       $pdata$10$trancate_smallspectrums 00000001800c332c     libmp3lame:quantize.obj
 0004:00001338       $pdata$11$trancate_smallspectrums 00000001800c3338     libmp3lame:quantize.obj
 0004:00001344       $pdata$12$trancate_smallspectrums 00000001800c3344     libmp3lame:quantize.obj
 0004:00001350       $pdata$get_klemm_noise     00000001800c3350     libmp3lame:quantize.obj
 0004:0000135c       $pdata$3$get_klemm_noise   00000001800c335c     libmp3lame:quantize.obj
 0004:00001368       $pdata$4$get_klemm_noise   00000001800c3368     libmp3lame:quantize.obj
 0004:00001374       $pdata$5$get_klemm_noise   00000001800c3374     libmp3lame:quantize.obj
 0004:00001380       $pdata$6$get_klemm_noise   00000001800c3380     libmp3lame:quantize.obj
 0004:0000138c       $pdata$quant_compare       00000001800c338c     libmp3lame:quantize.obj
 0004:00001398       $pdata$amp_scalefac_bands  00000001800c3398     libmp3lame:quantize.obj
 0004:000013a4       $pdata$inc_scalefac_scale  00000001800c33a4     libmp3lame:quantize.obj
 0004:000013b0       $pdata$0$inc_scalefac_scale 00000001800c33b0     libmp3lame:quantize.obj
 0004:000013bc       $pdata$1$inc_scalefac_scale 00000001800c33bc     libmp3lame:quantize.obj
 0004:000013c8       $pdata$inc_subblock_gain   00000001800c33c8     libmp3lame:quantize.obj
 0004:000013d4       $pdata$4$inc_subblock_gain 00000001800c33d4     libmp3lame:quantize.obj
 0004:000013e0       $pdata$5$inc_subblock_gain 00000001800c33e0     libmp3lame:quantize.obj
 0004:000013ec       $pdata$6$inc_subblock_gain 00000001800c33ec     libmp3lame:quantize.obj
 0004:000013f8       $pdata$balance_noise       00000001800c33f8     libmp3lame:quantize.obj
 0004:00001404       $pdata$0$balance_noise     00000001800c3404     libmp3lame:quantize.obj
 0004:00001410       $pdata$1$balance_noise     00000001800c3410     libmp3lame:quantize.obj
 0004:0000141c       $pdata$2$balance_noise     00000001800c341c     libmp3lame:quantize.obj
 0004:00001428       $pdata$outer_loop          00000001800c3428     libmp3lame:quantize.obj
 0004:00001434       $pdata$2$outer_loop        00000001800c3434     libmp3lame:quantize.obj
 0004:00001440       $pdata$3$outer_loop        00000001800c3440     libmp3lame:quantize.obj
 0004:0000144c       $pdata$4$outer_loop        00000001800c344c     libmp3lame:quantize.obj
 0004:00001458       $pdata$VBR_encode_granule  00000001800c3458     libmp3lame:quantize.obj
 0004:00001464       $pdata$get_framebits       00000001800c3464     libmp3lame:quantize.obj
 0004:00001470       $pdata$3$get_framebits     00000001800c3470     libmp3lame:quantize.obj
 0004:0000147c       $pdata$4$get_framebits     00000001800c347c     libmp3lame:quantize.obj
 0004:00001488       $pdata$VBR_old_prepare     00000001800c3488     libmp3lame:quantize.obj
 0004:00001494       $pdata$2$VBR_old_prepare   00000001800c3494     libmp3lame:quantize.obj
 0004:000014a0       $pdata$12$VBR_old_prepare  00000001800c34a0     libmp3lame:quantize.obj
 0004:000014ac       $pdata$13$VBR_old_prepare  00000001800c34ac     libmp3lame:quantize.obj
 0004:000014b8       $pdata$14$VBR_old_prepare  00000001800c34b8     libmp3lame:quantize.obj
 0004:000014c4       $pdata$bitpressure_strategy 00000001800c34c4     libmp3lame:quantize.obj
 0004:000014d0       $pdata$5$bitpressure_strategy 00000001800c34d0     libmp3lame:quantize.obj
 0004:000014dc       $pdata$6$bitpressure_strategy 00000001800c34dc     libmp3lame:quantize.obj
 0004:000014e8       $pdata$VBR_old_iteration_loop 00000001800c34e8     libmp3lame:quantize.obj
 0004:000014f4       $pdata$VBR_new_prepare     00000001800c34f4     libmp3lame:quantize.obj
 0004:00001500       $pdata$6$VBR_new_prepare   00000001800c3500     libmp3lame:quantize.obj
 0004:0000150c       $pdata$8$VBR_new_prepare   00000001800c350c     libmp3lame:quantize.obj
 0004:00001518       $pdata$9$VBR_new_prepare   00000001800c3518     libmp3lame:quantize.obj
 0004:00001524       $pdata$10$VBR_new_prepare  00000001800c3524     libmp3lame:quantize.obj
 0004:00001530       $pdata$11$VBR_new_prepare  00000001800c3530     libmp3lame:quantize.obj
 0004:0000153c       $pdata$VBR_new_iteration_loop 00000001800c353c     libmp3lame:quantize.obj
 0004:00001548       $pdata$2$VBR_new_iteration_loop 00000001800c3548     libmp3lame:quantize.obj
 0004:00001554       $pdata$4$VBR_new_iteration_loop 00000001800c3554     libmp3lame:quantize.obj
 0004:00001560       $pdata$5$VBR_new_iteration_loop 00000001800c3560     libmp3lame:quantize.obj
 0004:0000156c       $pdata$6$VBR_new_iteration_loop 00000001800c356c     libmp3lame:quantize.obj
 0004:00001578       $pdata$7$VBR_new_iteration_loop 00000001800c3578     libmp3lame:quantize.obj
 0004:00001584       $pdata$calc_target_bits    00000001800c3584     libmp3lame:quantize.obj
 0004:00001590       $pdata$ABR_iteration_loop  00000001800c3590     libmp3lame:quantize.obj
 0004:0000159c       $pdata$8$ABR_iteration_loop 00000001800c359c     libmp3lame:quantize.obj
 0004:000015a8       $pdata$9$ABR_iteration_loop 00000001800c35a8     libmp3lame:quantize.obj
 0004:000015b4       $pdata$CBR_iteration_loop  00000001800c35b4     libmp3lame:quantize.obj
 0004:000015c0       $pdata$3$CBR_iteration_loop 00000001800c35c0     libmp3lame:quantize.obj
 0004:000015cc       $pdata$8$CBR_iteration_loop 00000001800c35cc     libmp3lame:quantize.obj
 0004:000015d8       $pdata$9$CBR_iteration_loop 00000001800c35d8     libmp3lame:quantize.obj
 0004:000015e4       $pdata$10$CBR_iteration_loop 00000001800c35e4     libmp3lame:quantize.obj
 0004:000015f0       $pdata$ResetSampleFrequency 00000001800c35f0     libmp3lame:gain_analysis.obj
 0004:000015fc       $pdata$InitGainAnalysis    00000001800c35fc     libmp3lame:gain_analysis.obj
 0004:00001608       $pdata$AnalyzeSamples      00000001800c3608     libmp3lame:gain_analysis.obj
 0004:00001614       $pdata$12$AnalyzeSamples   00000001800c3614     libmp3lame:gain_analysis.obj
 0004:00001620       $pdata$13$AnalyzeSamples   00000001800c3620     libmp3lame:gain_analysis.obj
 0004:0000162c       $pdata$analyzeResult       00000001800c362c     libmp3lame:gain_analysis.obj
 0004:00001638       $pdata$GetTitleGain        00000001800c3638     libmp3lame:gain_analysis.obj
 0004:00001644       $pdata$updateStats         00000001800c3644     libmp3lame:encoder.obj
 0004:00001650       $pdata$1$updateStats       00000001800c3650     libmp3lame:encoder.obj
 0004:0000165c       $pdata$2$updateStats       00000001800c365c     libmp3lame:encoder.obj
 0004:00001668       $pdata$lame_encode_frame_init 00000001800c3668     libmp3lame:encoder.obj
 0004:00001674       $pdata$0$lame_encode_frame_init 00000001800c3674     libmp3lame:encoder.obj
 0004:00001680       $pdata$2$lame_encode_frame_init 00000001800c3680     libmp3lame:encoder.obj
 0004:0000168c       $pdata$3$lame_encode_frame_init 00000001800c368c     libmp3lame:encoder.obj
 0004:00001698       $pdata$4$lame_encode_frame_init 00000001800c3698     libmp3lame:encoder.obj
 0004:000016a4       $pdata$lame_encode_mp3_frame 00000001800c36a4     libmp3lame:encoder.obj
 0004:000016b0       $pdata$quantize_lines_xrpow 00000001800c36b0     libmp3lame:takehiro.obj
 0004:000016bc       $pdata$quantize_xrpow      00000001800c36bc     libmp3lame:takehiro.obj
 0004:000016c8       $pdata$0$quantize_xrpow    00000001800c36c8     libmp3lame:takehiro.obj
 0004:000016d4       $pdata$1$quantize_xrpow    00000001800c36d4     libmp3lame:takehiro.obj
 0004:000016e0       $pdata$count_bit_ESC       00000001800c36e0     libmp3lame:takehiro.obj
 0004:000016ec       $pdata$count_bit_noESC_from2 00000001800c36ec     libmp3lame:takehiro.obj
 0004:000016f8       $pdata$count_bit_noESC_from3 00000001800c36f8     libmp3lame:takehiro.obj
 0004:00001704       $pdata$choose_table_nonMMX 00000001800c3704     libmp3lame:takehiro.obj
 0004:00001710       $pdata$noquant_count_bits  00000001800c3710     libmp3lame:takehiro.obj
 0004:0000171c       $pdata$count_bits          00000001800c371c     libmp3lame:takehiro.obj
 0004:00001728       $pdata$0$count_bits        00000001800c3728     libmp3lame:takehiro.obj
 0004:00001734       $pdata$2$count_bits        00000001800c3734     libmp3lame:takehiro.obj
 0004:00001740       $pdata$3$count_bits        00000001800c3740     libmp3lame:takehiro.obj
 0004:0000174c       $pdata$4$count_bits        00000001800c374c     libmp3lame:takehiro.obj
 0004:00001758       $pdata$best_huffman_divide 00000001800c3758     libmp3lame:takehiro.obj
 0004:00001764       $pdata$4$best_huffman_divide 00000001800c3764     libmp3lame:takehiro.obj
 0004:00001770       $pdata$5$best_huffman_divide 00000001800c3770     libmp3lame:takehiro.obj
 0004:0000177c       $pdata$scfsi_calc          00000001800c377c     libmp3lame:takehiro.obj
 0004:00001788       $pdata$best_scalefac_store 00000001800c3788     libmp3lame:takehiro.obj
 0004:00001794       $pdata$mpeg1_scale_bitcount 00000001800c3794     libmp3lame:takehiro.obj
 0004:000017a0       $pdata$0$mpeg1_scale_bitcount 00000001800c37a0     libmp3lame:takehiro.obj
 0004:000017ac       $pdata$1$mpeg1_scale_bitcount 00000001800c37ac     libmp3lame:takehiro.obj
 0004:000017b8       $pdata$2$mpeg1_scale_bitcount 00000001800c37b8     libmp3lame:takehiro.obj
 0004:000017c4       $pdata$3$mpeg1_scale_bitcount 00000001800c37c4     libmp3lame:takehiro.obj
 0004:000017d0       $pdata$mpeg2_scale_bitcount 00000001800c37d0     libmp3lame:takehiro.obj
 0004:000017dc       $pdata$0$mpeg2_scale_bitcount 00000001800c37dc     libmp3lame:takehiro.obj
 0004:000017e8       $pdata$1$mpeg2_scale_bitcount 00000001800c37e8     libmp3lame:takehiro.obj
 0004:000017f4       $pdata$huffman_init        00000001800c37f4     libmp3lame:takehiro.obj
 0004:00001800       $pdata$fht                 00000001800c3800     libmp3lame:fft.obj
 0004:0000180c       $pdata$fft_short           00000001800c380c     libmp3lame:fft.obj
 0004:00001818       $pdata$init_fft            00000001800c3818     libmp3lame:fft.obj
 0004:00001824       $pdata$ResvFrameBegin      00000001800c3824     libmp3lame:reservoir.obj
 0004:00001830       $pdata$k_34_4              00000001800c3830     libmp3lame:vbrquantize.obj
 0004:0000183c       $pdata$calc_sfb_noise_x34  00000001800c383c     libmp3lame:vbrquantize.obj
 0004:00001848       $pdata$0$calc_sfb_noise_x34 00000001800c3848     libmp3lame:vbrquantize.obj
 0004:00001854       $pdata$2$calc_sfb_noise_x34 00000001800c3854     libmp3lame:vbrquantize.obj
 0004:00001860       $pdata$3$calc_sfb_noise_x34 00000001800c3860     libmp3lame:vbrquantize.obj
 0004:0000186c       $pdata$4$calc_sfb_noise_x34 00000001800c386c     libmp3lame:vbrquantize.obj
 0004:00001878       $pdata$guess_scalefac_x34  00000001800c3878     libmp3lame:vbrquantize.obj
 0004:00001884       $pdata$find_scalefac_x34   00000001800c3884     libmp3lame:vbrquantize.obj
 0004:00001890       $pdata$block_sf            00000001800c3890     libmp3lame:vbrquantize.obj
 0004:0000189c       $pdata$quantize_x34        00000001800c389c     libmp3lame:vbrquantize.obj
 0004:000018a8       $pdata$set_subblock_gain   00000001800c38a8     libmp3lame:vbrquantize.obj
 0004:000018b4       $pdata$set_scalefacs       00000001800c38b4     libmp3lame:vbrquantize.obj
 0004:000018c0       $pdata$short_block_constrain 00000001800c38c0     libmp3lame:vbrquantize.obj
 0004:000018cc       $pdata$long_block_constrain 00000001800c38cc     libmp3lame:vbrquantize.obj
 0004:000018d8       $pdata$tryGlobalStepsize   00000001800c38d8     libmp3lame:vbrquantize.obj
 0004:000018e4       $pdata$searchGlobalStepsizeMax 00000001800c38e4     libmp3lame:vbrquantize.obj
 0004:000018f0       $pdata$flattenDistribution 00000001800c38f0     libmp3lame:vbrquantize.obj
 0004:000018fc       $pdata$2$flattenDistribution 00000001800c38fc     libmp3lame:vbrquantize.obj
 0004:00001908       $pdata$3$flattenDistribution 00000001800c3908     libmp3lame:vbrquantize.obj
 0004:00001914       $pdata$outOfBitsStrategy   00000001800c3914     libmp3lame:vbrquantize.obj
 0004:00001920       $pdata$VBR_encode_frame    00000001800c3920     libmp3lame:vbrquantize.obj
 0004:0000192c       $pdata$1$VBR_encode_frame  00000001800c392c     libmp3lame:vbrquantize.obj
 0004:00001938       $pdata$2$VBR_encode_frame  00000001800c3938     libmp3lame:vbrquantize.obj
 0004:00001944       $pdata$3$VBR_encode_frame  00000001800c3944     libmp3lame:vbrquantize.obj
 0004:00001950       $pdata$4$VBR_encode_frame  00000001800c3950     libmp3lame:vbrquantize.obj
 0004:0000195c       $pdata$window_subband      00000001800c395c     libmp3lame:newmdct.obj
 0004:00001968       $pdata$mdct_short          00000001800c3968     libmp3lame:newmdct.obj
 0004:00001974       $pdata$mdct_long           00000001800c3974     libmp3lame:newmdct.obj
 0004:00001980       $pdata$mdct_sub48          00000001800c3980     libmp3lame:newmdct.obj
 0004:0000198c       $pdata$14$mdct_sub48       00000001800c398c     libmp3lame:newmdct.obj
 0004:00001998       $pdata$15$mdct_sub48       00000001800c3998     libmp3lame:newmdct.obj
 0004:000019a4       $pdata$fprintf             00000001800c39a4     libmpg123:libmpg123.obj
 0004:000019b0       $pdata$frame_buffercheck   00000001800c39b0     libmpg123:libmpg123.obj
 0004:000019bc       $pdata$0$frame_buffercheck 00000001800c39bc     libmpg123:libmpg123.obj
 0004:000019c8       $pdata$1$frame_buffercheck 00000001800c39c8     libmpg123:libmpg123.obj
 0004:000019d4       $pdata$2$frame_buffercheck 00000001800c39d4     libmpg123:libmpg123.obj
 0004:000019e0       $pdata$3$frame_buffercheck 00000001800c39e0     libmpg123:libmpg123.obj
 0004:000019ec       $pdata$INT123_decode_update 00000001800c39ec     libmpg123:libmpg123.obj
 0004:000019f8       $pdata$1$INT123_decode_update 00000001800c39f8     libmpg123:libmpg123.obj
 0004:00001a04       $pdata$4$INT123_decode_update 00000001800c3a04     libmpg123:libmpg123.obj
 0004:00001a10       $pdata$get_next_frame      00000001800c3a10     libmpg123:libmpg123.obj
 0004:00001a1c       $pdata$decode_the_frame    00000001800c3a1c     libmpg123:libmpg123.obj
 0004:00001a28       $pdata$1$decode_the_frame  00000001800c3a28     libmpg123:libmpg123.obj
 0004:00001a34       $pdata$2$decode_the_frame  00000001800c3a34     libmpg123:libmpg123.obj
 0004:00001a40       $pdata$mpg123_feed         00000001800c3a40     libmpg123:libmpg123.obj
 0004:00001a4c       $pdata$mpg123_decode       00000001800c3a4c     libmpg123:libmpg123.obj
 0004:00001a58       $pdata$1$mpg123_decode     00000001800c3a58     libmpg123:libmpg123.obj
 0004:00001a64       $pdata$2$mpg123_decode     00000001800c3a64     libmpg123:libmpg123.obj
 0004:00001a70       $pdata$3$mpg123_decode     00000001800c3a70     libmpg123:libmpg123.obj
 0004:00001a7c       $pdata$mpg123_tell         00000001800c3a7c     libmpg123:libmpg123.obj
 0004:00001a88       $pdata$0$mpg123_tell       00000001800c3a88     libmpg123:libmpg123.obj
 0004:00001a94       $pdata$1$mpg123_tell       00000001800c3a94     libmpg123:libmpg123.obj
 0004:00001aa0       $pdata$mpg123_id3          00000001800c3aa0     libmpg123:libmpg123.obj
 0004:00001aac       $pdata$mpg123_close        00000001800c3aac     libmpg123:libmpg123.obj
 0004:00001ab8       $pdata$mpg123_resize_string 00000001800c3ab8     libmpg123:stringbuf.obj
 0004:00001ac4       $pdata$synth_stereo_wrap   00000001800c3ac4     libmpg123:optimize.obj
 0004:00001ad0       $pdata$find_dectype        00000001800c3ad0     libmpg123:optimize.obj
 0004:00001adc       $pdata$INT123_set_synth_functions 00000001800c3adc     libmpg123:optimize.obj
 0004:00001ae8       $pdata$0$INT123_set_synth_functions 00000001800c3ae8     libmpg123:optimize.obj
 0004:00001af4       $pdata$1$INT123_set_synth_functions 00000001800c3af4     libmpg123:optimize.obj
 0004:00001b00       $pdata$INT123_frame_cpu_opt 00000001800c3b00     libmpg123:optimize.obj
 0004:00001b0c       $pdata$frame_default_pars  00000001800c3b0c     libmpg123:frame.obj
 0004:00001b18       $pdata$INT123_frame_init_par 00000001800c3b18     libmpg123:frame.obj
 0004:00001b24       $pdata$INT123_frame_outbuffer 00000001800c3b24     libmpg123:frame.obj
 0004:00001b30       $pdata$INT123_frame_buffers 00000001800c3b30     libmpg123:frame.obj
 0004:00001b3c       $pdata$INT123_frame_buffers_reset 00000001800c3b3c     libmpg123:frame.obj
 0004:00001b48       $pdata$INT123_frame_fill_toc 00000001800c3b48     libmpg123:frame.obj
 0004:00001b54       $pdata$frame_fixed_reset   00000001800c3b54     libmpg123:frame.obj
 0004:00001b60       $pdata$frame_free_buffers  00000001800c3b60     libmpg123:frame.obj
 0004:00001b6c       $pdata$INT123_frame_exit   00000001800c3b6c     libmpg123:frame.obj
 0004:00001b78       $pdata$0$INT123_frame_exit 00000001800c3b78     libmpg123:frame.obj
 0004:00001b84       $pdata$1$INT123_frame_exit 00000001800c3b84     libmpg123:frame.obj
 0004:00001b90       $pdata$frame_fuzzy_find    00000001800c3b90     libmpg123:frame.obj
 0004:00001b9c       $pdata$INT123_frame_index_find 00000001800c3b9c     libmpg123:frame.obj
 0004:00001ba8       $pdata$INT123_frame_outs   00000001800c3ba8     libmpg123:frame.obj
 0004:00001bb4       $pdata$INT123_frame_expect_outsamples 00000001800c3bb4     libmpg123:frame.obj
 0004:00001bc0       $pdata$INT123_frame_offset 00000001800c3bc0     libmpg123:frame.obj
 0004:00001bcc       $pdata$INT123_frame_gapless_realinit 00000001800c3bcc     libmpg123:frame.obj
 0004:00001bd8       $pdata$INT123_frame_set_frameseek 00000001800c3bd8     libmpg123:frame.obj
 0004:00001be4       $pdata$INT123_do_rva       00000001800c3be4     libmpg123:frame.obj
 0004:00001bf0       $pdata$INT123_fi_resize    00000001800c3bf0     libmpg123:index.obj
 0004:00001bfc       $pdata$INT123_fi_add       00000001800c3bfc     libmpg123:index.obj
 0004:00001c08       $pdata$0$INT123_fi_add     00000001800c3c08     libmpg123:index.obj
 0004:00001c14       $pdata$1$INT123_fi_add     00000001800c3c14     libmpg123:index.obj
 0004:00001c20       $pdata$free_id3_text       00000001800c3c20     libmpg123:id3.obj
 0004:00001c2c       $pdata$1$free_id3_text     00000001800c3c2c     libmpg123:id3.obj
 0004:00001c38       $pdata$2$free_id3_text     00000001800c3c38     libmpg123:id3.obj
 0004:00001c44       $pdata$add_id3_text        00000001800c3c44     libmpg123:id3.obj
 0004:00001c50       $pdata$pop_id3_text        00000001800c3c50     libmpg123:id3.obj
 0004:00001c5c       $pdata$1$pop_id3_text      00000001800c3c5c     libmpg123:id3.obj
 0004:00001c68       $pdata$2$pop_id3_text      00000001800c3c68     libmpg123:id3.obj
 0004:00001c74       $pdata$4$pop_id3_text      00000001800c3c74     libmpg123:id3.obj
 0004:00001c80       $pdata$5$pop_id3_text      00000001800c3c80     libmpg123:id3.obj
 0004:00001c8c       $pdata$INT123_reset_id3    00000001800c3c8c     libmpg123:id3.obj
 0004:00001c98       $pdata$INT123_id3_link     00000001800c3c98     libmpg123:id3.obj
 0004:00001ca4       $pdata$0$INT123_id3_link   00000001800c3ca4     libmpg123:id3.obj
 0004:00001cb0       $pdata$3$INT123_id3_link   00000001800c3cb0     libmpg123:id3.obj
 0004:00001cbc       $pdata$4$INT123_id3_link   00000001800c3cbc     libmpg123:id3.obj
 0004:00001cc8       $pdata$5$INT123_id3_link   00000001800c3cc8     libmpg123:id3.obj
 0004:00001cd4       $pdata$store_id3_text      00000001800c3cd4     libmpg123:id3.obj
 0004:00001ce0       $pdata$INT123_id3_to_utf8  00000001800c3ce0     libmpg123:id3.obj
 0004:00001cec       $pdata$process_text        00000001800c3cec     libmpg123:id3.obj
 0004:00001cf8       $pdata$0$process_text      00000001800c3cf8     libmpg123:id3.obj
 0004:00001d04       $pdata$1$process_text      00000001800c3d04     libmpg123:id3.obj
 0004:00001d10       $pdata$process_comment     00000001800c3d10     libmpg123:id3.obj
 0004:00001d1c       $pdata$0$process_comment   00000001800c3d1c     libmpg123:id3.obj
 0004:00001d28       $pdata$1$process_comment   00000001800c3d28     libmpg123:id3.obj
 0004:00001d34       $pdata$2$process_comment   00000001800c3d34     libmpg123:id3.obj
 0004:00001d40       $pdata$3$process_comment   00000001800c3d40     libmpg123:id3.obj
 0004:00001d4c       $pdata$4$process_comment   00000001800c3d4c     libmpg123:id3.obj
 0004:00001d58       $pdata$5$process_comment   00000001800c3d58     libmpg123:id3.obj
 0004:00001d64       $pdata$process_extra       00000001800c3d64     libmpg123:id3.obj
 0004:00001d70       $pdata$1$process_extra     00000001800c3d70     libmpg123:id3.obj
 0004:00001d7c       $pdata$2$process_extra     00000001800c3d7c     libmpg123:id3.obj
 0004:00001d88       $pdata$3$process_extra     00000001800c3d88     libmpg123:id3.obj
 0004:00001d94       $pdata$4$process_extra     00000001800c3d94     libmpg123:id3.obj
 0004:00001da0       $pdata$5$process_extra     00000001800c3da0     libmpg123:id3.obj
 0004:00001dac       $pdata$6$process_extra     00000001800c3dac     libmpg123:id3.obj
 0004:00001db8       $pdata$promote_framename   00000001800c3db8     libmpg123:id3.obj
 0004:00001dc4       $pdata$0$promote_framename 00000001800c3dc4     libmpg123:id3.obj
 0004:00001dd0       $pdata$1$promote_framename 00000001800c3dd0     libmpg123:id3.obj
 0004:00001ddc       $pdata$INT123_parse_new_id3 00000001800c3ddc     libmpg123:id3.obj
 0004:00001de8       $pdata$2$INT123_parse_new_id3 00000001800c3de8     libmpg123:id3.obj
 0004:00001df4       $pdata$6$INT123_parse_new_id3 00000001800c3df4     libmpg123:id3.obj
 0004:00001e00       $pdata$7$INT123_parse_new_id3 00000001800c3e00     libmpg123:id3.obj
 0004:00001e0c       $pdata$8$INT123_parse_new_id3 00000001800c3e0c     libmpg123:id3.obj
 0004:00001e18       $pdata$9$INT123_parse_new_id3 00000001800c3e18     libmpg123:id3.obj
 0004:00001e24       $pdata$10$INT123_parse_new_id3 00000001800c3e24     libmpg123:id3.obj
 0004:00001e30       $pdata$convert_latin1      00000001800c3e30     libmpg123:id3.obj
 0004:00001e3c       $pdata$check_bom           00000001800c3e3c     libmpg123:id3.obj
 0004:00001e48       $pdata$convert_utf16bom    00000001800c3e48     libmpg123:id3.obj
 0004:00001e54       $pdata$convert_utf8        00000001800c3e54     libmpg123:id3.obj
 0004:00001e60       $pdata$cap_fit             00000001800c3e60     libmpg123:format.obj
 0004:00001e6c       $pdata$freq_fit            00000001800c3e6c     libmpg123:format.obj
 0004:00001e78       $pdata$0$freq_fit          00000001800c3e78     libmpg123:format.obj
 0004:00001e84       $pdata$1$freq_fit          00000001800c3e84     libmpg123:format.obj
 0004:00001e90       $pdata$2$freq_fit          00000001800c3e90     libmpg123:format.obj
 0004:00001e9c       $pdata$4$freq_fit          00000001800c3e9c     libmpg123:format.obj
 0004:00001ea8       $pdata$INT123_frame_output_format 00000001800c3ea8     libmpg123:format.obj
 0004:00001eb4       $pdata$mpg123_fmt_all      00000001800c3eb4     libmpg123:format.obj
 0004:00001ec0       $pdata$postprocess_buffer  00000001800c3ec0     libmpg123:format.obj
 0004:00001ecc       $pdata$posix_read          00000001800c3ecc     libmpg123:readers.obj
 0004:00001ed8       $pdata$icy_fullread        00000001800c3ed8     libmpg123:readers.obj
 0004:00001ee4       $pdata$3$icy_fullread      00000001800c3ee4     libmpg123:readers.obj
 0004:00001ef0       $pdata$5$icy_fullread      00000001800c3ef0     libmpg123:readers.obj
 0004:00001efc       $pdata$plain_fullread      00000001800c3efc     libmpg123:readers.obj
 0004:00001f08       $pdata$stream_close        00000001800c3f08     libmpg123:readers.obj
 0004:00001f14       $pdata$stream_seek_frame   00000001800c3f14     libmpg123:readers.obj
 0004:00001f20       $pdata$generic_head_read   00000001800c3f20     libmpg123:readers.obj
 0004:00001f2c       $pdata$generic_head_shift  00000001800c3f2c     libmpg123:readers.obj
 0004:00001f38       $pdata$stream_skip_bytes   00000001800c3f38     libmpg123:readers.obj
 0004:00001f44       $pdata$stream_back_bytes   00000001800c3f44     libmpg123:readers.obj
 0004:00001f50       $pdata$generic_read_frame_body 00000001800c3f50     libmpg123:readers.obj
 0004:00001f5c       $pdata$stream_rewind       00000001800c3f5c     libmpg123:readers.obj
 0004:00001f68       $pdata$get_fileinfo        00000001800c3f68     libmpg123:readers.obj
 0004:00001f74       $pdata$0$get_fileinfo      00000001800c3f74     libmpg123:readers.obj
 0004:00001f80       $pdata$2$get_fileinfo      00000001800c3f80     libmpg123:readers.obj
 0004:00001f8c       $pdata$buffy_new           00000001800c3f8c     libmpg123:readers.obj
 0004:00001f98       $pdata$bc_fill_pool        00000001800c3f98     libmpg123:readers.obj
 0004:00001fa4       $pdata$bc_reset            00000001800c3fa4     libmpg123:readers.obj
 0004:00001fb0       $pdata$0$bc_reset          00000001800c3fb0     libmpg123:readers.obj
 0004:00001fbc       $pdata$1$bc_reset          00000001800c3fbc     libmpg123:readers.obj
 0004:00001fc8       $pdata$bc_add              00000001800c3fc8     libmpg123:readers.obj
 0004:00001fd4       $pdata$0$bc_add            00000001800c3fd4     libmpg123:readers.obj
 0004:00001fe0       $pdata$1$bc_add            00000001800c3fe0     libmpg123:readers.obj
 0004:00001fec       $pdata$2$bc_add            00000001800c3fec     libmpg123:readers.obj
 0004:00001ff8       $pdata$3$bc_add            00000001800c3ff8     libmpg123:readers.obj
 0004:00002004       $pdata$bc_give             00000001800c4004     libmpg123:readers.obj
 0004:00002010       $pdata$0$bc_give           00000001800c4010     libmpg123:readers.obj
 0004:0000201c       $pdata$1$bc_give           00000001800c401c     libmpg123:readers.obj
 0004:00002028       $pdata$bc_forget           00000001800c4028     libmpg123:readers.obj
 0004:00002034       $pdata$1$bc_forget         00000001800c4034     libmpg123:readers.obj
 0004:00002040       $pdata$2$bc_forget         00000001800c4040     libmpg123:readers.obj
 0004:0000204c       $pdata$feed_init           00000001800c404c     libmpg123:readers.obj
 0004:00002058       $pdata$feed_read           00000001800c4058     libmpg123:readers.obj
 0004:00002064       $pdata$buffered_forget     00000001800c4064     libmpg123:readers.obj
 0004:00002070       $pdata$buffered_fullread   00000001800c4070     libmpg123:readers.obj
 0004:0000207c       $pdata$default_init        00000001800c407c     libmpg123:readers.obj
 0004:00002088       $pdata$INT123_open_bad     00000001800c4088     libmpg123:readers.obj
 0004:00002094       $pdata$INT123_open_feed    00000001800c4094     libmpg123:readers.obj
 0004:000020a0       $pdata$INT123_init_layer12 00000001800c40a0     libmpg123:layer2.obj
 0004:000020ac       $pdata$INT123_init_layer12_table 00000001800c40ac     libmpg123:layer2.obj
 0004:000020b8       $pdata$II_step_one         00000001800c40b8     libmpg123:layer2.obj
 0004:000020c4       $pdata$4$II_step_one       00000001800c40c4     libmpg123:layer2.obj
 0004:000020d0       $pdata$5$II_step_one       00000001800c40d0     libmpg123:layer2.obj
 0004:000020dc       $pdata$II_step_two         00000001800c40dc     libmpg123:layer2.obj
 0004:000020e8       $pdata$6$II_step_two       00000001800c40e8     libmpg123:layer2.obj
 0004:000020f4       $pdata$7$II_step_two       00000001800c40f4     libmpg123:layer2.obj
 0004:00002100       $pdata$II_select_table     00000001800c4100     libmpg123:layer2.obj
 0004:0000210c       $pdata$INT123_do_layer2    00000001800c410c     libmpg123:layer2.obj
 0004:00002118       $pdata$INT123_synth_ntom_set_step 00000001800c4118     libmpg123:ntom.obj
 0004:00002124       $pdata$INT123_ntom_val     00000001800c4124     libmpg123:ntom.obj
 0004:00002130       $pdata$0$INT123_ntom_val   00000001800c4130     libmpg123:ntom.obj
 0004:0000213c       $pdata$1$INT123_ntom_val   00000001800c413c     libmpg123:ntom.obj
 0004:00002148       $pdata$INT123_ntom_frmouts 00000001800c4148     libmpg123:ntom.obj
 0004:00002154       $pdata$INT123_ntom_ins2outs 00000001800c4154     libmpg123:ntom.obj
 0004:00002160       $pdata$INT123_ntom_frameoff 00000001800c4160     libmpg123:ntom.obj
 0004:0000216c       $pdata$INT123_init_layer3  00000001800c416c     libmpg123:layer3.obj
 0004:00002178       $pdata$INT123_init_layer3_stuff 00000001800c4178     libmpg123:layer3.obj
 0004:00002184       $pdata$III_get_side_info   00000001800c4184     libmpg123:layer3.obj
 0004:00002190       $pdata$0$III_get_side_info 00000001800c4190     libmpg123:layer3.obj
 0004:0000219c       $pdata$III_get_scale_factors_1 00000001800c419c     libmpg123:layer3.obj
 0004:000021a8       $pdata$0$III_get_scale_factors_1 00000001800c41a8     libmpg123:layer3.obj
 0004:000021b4       $pdata$1$III_get_scale_factors_1 00000001800c41b4     libmpg123:layer3.obj
 0004:000021c0       $pdata$2$III_get_scale_factors_1 00000001800c41c0     libmpg123:layer3.obj
 0004:000021cc       $pdata$3$III_get_scale_factors_1 00000001800c41cc     libmpg123:layer3.obj
 0004:000021d8       $pdata$III_get_scale_factors_2 00000001800c41d8     libmpg123:layer3.obj
 0004:000021e4       $pdata$III_dequantize_sample 00000001800c41e4     libmpg123:layer3.obj
 0004:000021f0       $pdata$1$III_dequantize_sample 00000001800c41f0     libmpg123:layer3.obj
 0004:000021fc       $pdata$III_i_stereo        00000001800c41fc     libmpg123:layer3.obj
 0004:00002208       $pdata$2$III_i_stereo      00000001800c4208     libmpg123:layer3.obj
 0004:00002214       $pdata$3$III_i_stereo      00000001800c4214     libmpg123:layer3.obj
 0004:00002220       $pdata$INT123_dct36        00000001800c4220     libmpg123:layer3.obj
 0004:0000222c       $pdata$dct12               00000001800c422c     libmpg123:layer3.obj
 0004:00002238       $pdata$III_hybrid          00000001800c4238     libmpg123:layer3.obj
 0004:00002244       $pdata$INT123_do_layer3    00000001800c4244     libmpg123:layer3.obj
 0004:00002250       $pdata$1$INT123_do_layer3  00000001800c4250     libmpg123:layer3.obj
 0004:0000225c       $pdata$2$INT123_do_layer3  00000001800c425c     libmpg123:layer3.obj
 0004:00002268       $pdata$sscanf              00000001800c4268     libmpg123:parse.obj
 0004:00002274       $pdata$check_lame_tag      00000001800c4274     libmpg123:parse.obj
 0004:00002280       $pdata$2$check_lame_tag    00000001800c4280     libmpg123:parse.obj
 0004:0000228c       $pdata$4$check_lame_tag    00000001800c428c     libmpg123:parse.obj
 0004:00002298       $pdata$5$check_lame_tag    00000001800c4298     libmpg123:parse.obj
 0004:000022a4       $pdata$halfspeed_do        00000001800c42a4     libmpg123:parse.obj
 0004:000022b0       $pdata$INT123_read_frame   00000001800c42b0     libmpg123:parse.obj
 0004:000022bc       $pdata$2$INT123_read_frame 00000001800c42bc     libmpg123:parse.obj
 0004:000022c8       $pdata$4$INT123_read_frame 00000001800c42c8     libmpg123:parse.obj
 0004:000022d4       $pdata$guess_freeformat_framesize 00000001800c42d4     libmpg123:parse.obj
 0004:000022e0       $pdata$0$guess_freeformat_framesize 00000001800c42e0     libmpg123:parse.obj
 0004:000022ec       $pdata$2$guess_freeformat_framesize 00000001800c42ec     libmpg123:parse.obj
 0004:000022f8       $pdata$3$guess_freeformat_framesize 00000001800c42f8     libmpg123:parse.obj
 0004:00002304       $pdata$decode_header       00000001800c4304     libmpg123:parse.obj
 0004:00002310       $pdata$do_readahead        00000001800c4310     libmpg123:parse.obj
 0004:0000231c       $pdata$1$do_readahead      00000001800c431c     libmpg123:parse.obj
 0004:00002328       $pdata$4$do_readahead      00000001800c4328     libmpg123:parse.obj
 0004:00002334       $pdata$6$do_readahead      00000001800c4334     libmpg123:parse.obj
 0004:00002340       $pdata$7$do_readahead      00000001800c4340     libmpg123:parse.obj
 0004:0000234c       $pdata$skip_junk           00000001800c434c     libmpg123:parse.obj
 0004:00002358       $pdata$0$skip_junk         00000001800c4358     libmpg123:parse.obj
 0004:00002364       $pdata$2$skip_junk         00000001800c4364     libmpg123:parse.obj
 0004:00002370       $pdata$4$skip_junk         00000001800c4370     libmpg123:parse.obj
 0004:0000237c       $pdata$5$skip_junk         00000001800c437c     libmpg123:parse.obj
 0004:00002388       $pdata$wetwork             00000001800c4388     libmpg123:parse.obj
 0004:00002394       $pdata$3$wetwork           00000001800c4394     libmpg123:parse.obj
 0004:000023a0       $pdata$4$wetwork           00000001800c43a0     libmpg123:parse.obj
 0004:000023ac       $pdata$5$wetwork           00000001800c43ac     libmpg123:parse.obj
 0004:000023b8       $pdata$6$wetwork           00000001800c43b8     libmpg123:parse.obj
 0004:000023c4       $pdata$INT123_prepare_decode_tables 00000001800c43c4     libmpg123:tabinit.obj
 0004:000023d0       $pdata$INT123_make_decode_tables 00000001800c43d0     libmpg123:tabinit.obj
 0004:000023dc       $pdata$INT123_make_conv16to8_table 00000001800c43dc     libmpg123:tabinit.obj
 0004:000023e8       $pdata$6$INT123_make_conv16to8_table 00000001800c43e8     libmpg123:tabinit.obj
 0004:000023f4       $pdata$7$INT123_make_conv16to8_table 00000001800c43f4     libmpg123:tabinit.obj
 0004:00002400       $pdata$INT123_synth_1to1_s32 00000001800c4400     libmpg123:synth_s32.obj
 0004:0000240c       $pdata$INT123_synth_1to1_s32_mono 00000001800c440c     libmpg123:synth_s32.obj
 0004:00002418       $pdata$INT123_synth_1to1_s32_m2s 00000001800c4418     libmpg123:synth_s32.obj
 0004:00002424       $pdata$INT123_synth_1to1_s32_i386 00000001800c4424     libmpg123:synth_s32.obj
 0004:00002430       $pdata$INT123_synth_2to1_s32 00000001800c4430     libmpg123:synth_s32.obj
 0004:0000243c       $pdata$INT123_synth_2to1_s32_mono 00000001800c443c     libmpg123:synth_s32.obj
 0004:00002448       $pdata$INT123_synth_2to1_s32_m2s 00000001800c4448     libmpg123:synth_s32.obj
 0004:00002454       $pdata$INT123_synth_2to1_s32_i386 00000001800c4454     libmpg123:synth_s32.obj
 0004:00002460       $pdata$INT123_synth_4to1_s32 00000001800c4460     libmpg123:synth_s32.obj
 0004:0000246c       $pdata$INT123_synth_4to1_s32_mono 00000001800c446c     libmpg123:synth_s32.obj
 0004:00002478       $pdata$INT123_synth_4to1_s32_m2s 00000001800c4478     libmpg123:synth_s32.obj
 0004:00002484       $pdata$INT123_synth_4to1_s32_i386 00000001800c4484     libmpg123:synth_s32.obj
 0004:00002490       $pdata$INT123_synth_ntom_s32_mono 00000001800c4490     libmpg123:synth_s32.obj
 0004:0000249c       $pdata$INT123_synth_ntom_s32_m2s 00000001800c449c     libmpg123:synth_s32.obj
 0004:000024a8       $pdata$INT123_synth_ntom_s32 00000001800c44a8     libmpg123:synth_s32.obj
 0004:000024b4       $pdata$INT123_synth_1to1   00000001800c44b4     libmpg123:synth.obj
 0004:000024c0       $pdata$INT123_synth_1to1_mono 00000001800c44c0     libmpg123:synth.obj
 0004:000024cc       $pdata$INT123_synth_1to1_m2s 00000001800c44cc     libmpg123:synth.obj
 0004:000024d8       $pdata$INT123_synth_1to1_i386 00000001800c44d8     libmpg123:synth.obj
 0004:000024e4       $pdata$INT123_synth_2to1   00000001800c44e4     libmpg123:synth.obj
 0004:000024f0       $pdata$INT123_synth_2to1_mono 00000001800c44f0     libmpg123:synth.obj
 0004:000024fc       $pdata$INT123_synth_2to1_m2s 00000001800c44fc     libmpg123:synth.obj
 0004:00002508       $pdata$INT123_synth_2to1_i386 00000001800c4508     libmpg123:synth.obj
 0004:00002514       $pdata$INT123_synth_4to1   00000001800c4514     libmpg123:synth.obj
 0004:00002520       $pdata$INT123_synth_4to1_mono 00000001800c4520     libmpg123:synth.obj
 0004:0000252c       $pdata$INT123_synth_4to1_m2s 00000001800c452c     libmpg123:synth.obj
 0004:00002538       $pdata$INT123_synth_4to1_i386 00000001800c4538     libmpg123:synth.obj
 0004:00002544       $pdata$INT123_synth_ntom_mono 00000001800c4544     libmpg123:synth.obj
 0004:00002550       $pdata$INT123_synth_ntom_m2s 00000001800c4550     libmpg123:synth.obj
 0004:0000255c       $pdata$INT123_synth_ntom   00000001800c455c     libmpg123:synth.obj
 0004:00002568       $pdata$INT123_synth_1to1_real 00000001800c4568     libmpg123:synth_real.obj
 0004:00002574       $pdata$INT123_synth_1to1_real_mono 00000001800c4574     libmpg123:synth_real.obj
 0004:00002580       $pdata$INT123_synth_1to1_real_m2s 00000001800c4580     libmpg123:synth_real.obj
 0004:0000258c       $pdata$INT123_synth_1to1_real_i386 00000001800c458c     libmpg123:synth_real.obj
 0004:00002598       $pdata$INT123_synth_2to1_real 00000001800c4598     libmpg123:synth_real.obj
 0004:000025a4       $pdata$INT123_synth_2to1_real_mono 00000001800c45a4     libmpg123:synth_real.obj
 0004:000025b0       $pdata$INT123_synth_2to1_real_m2s 00000001800c45b0     libmpg123:synth_real.obj
 0004:000025bc       $pdata$INT123_synth_2to1_real_i386 00000001800c45bc     libmpg123:synth_real.obj
 0004:000025c8       $pdata$INT123_synth_4to1_real 00000001800c45c8     libmpg123:synth_real.obj
 0004:000025d4       $pdata$INT123_synth_4to1_real_mono 00000001800c45d4     libmpg123:synth_real.obj
 0004:000025e0       $pdata$INT123_synth_4to1_real_m2s 00000001800c45e0     libmpg123:synth_real.obj
 0004:000025ec       $pdata$INT123_synth_4to1_real_i386 00000001800c45ec     libmpg123:synth_real.obj
 0004:000025f8       $pdata$INT123_synth_ntom_real_mono 00000001800c45f8     libmpg123:synth_real.obj
 0004:00002604       $pdata$INT123_synth_ntom_real_m2s 00000001800c4604     libmpg123:synth_real.obj
 0004:00002610       $pdata$INT123_synth_ntom_real 00000001800c4610     libmpg123:synth_real.obj
 0004:0000261c       $pdata$INT123_synth_1to1_8bit 00000001800c461c     libmpg123:synth_8bit.obj
 0004:00002628       $pdata$INT123_synth_1to1_8bit_mono 00000001800c4628     libmpg123:synth_8bit.obj
 0004:00002634       $pdata$INT123_synth_1to1_8bit_m2s 00000001800c4634     libmpg123:synth_8bit.obj
 0004:00002640       $pdata$INT123_synth_1to1_8bit_i386 00000001800c4640     libmpg123:synth_8bit.obj
 0004:0000264c       $pdata$INT123_synth_1to1_8bit_wrap 00000001800c464c     libmpg123:synth_8bit.obj
 0004:00002658       $pdata$INT123_synth_1to1_8bit_wrap_mono 00000001800c4658     libmpg123:synth_8bit.obj
 0004:00002664       $pdata$INT123_synth_1to1_8bit_wrap_m2s 00000001800c4664     libmpg123:synth_8bit.obj
 0004:00002670       $pdata$INT123_synth_2to1_8bit 00000001800c4670     libmpg123:synth_8bit.obj
 0004:0000267c       $pdata$INT123_synth_2to1_8bit_mono 00000001800c467c     libmpg123:synth_8bit.obj
 0004:00002688       $pdata$INT123_synth_2to1_8bit_m2s 00000001800c4688     libmpg123:synth_8bit.obj
 0004:00002694       $pdata$INT123_synth_2to1_8bit_i386 00000001800c4694     libmpg123:synth_8bit.obj
 0004:000026a0       $pdata$INT123_synth_4to1_8bit 00000001800c46a0     libmpg123:synth_8bit.obj
 0004:000026ac       $pdata$INT123_synth_4to1_8bit_mono 00000001800c46ac     libmpg123:synth_8bit.obj
 0004:000026b8       $pdata$INT123_synth_4to1_8bit_m2s 00000001800c46b8     libmpg123:synth_8bit.obj
 0004:000026c4       $pdata$INT123_synth_4to1_8bit_i386 00000001800c46c4     libmpg123:synth_8bit.obj
 0004:000026d0       $pdata$INT123_synth_ntom_8bit_mono 00000001800c46d0     libmpg123:synth_8bit.obj
 0004:000026dc       $pdata$INT123_synth_ntom_8bit_m2s 00000001800c46dc     libmpg123:synth_8bit.obj
 0004:000026e8       $pdata$INT123_synth_ntom_8bit 00000001800c46e8     libmpg123:synth_8bit.obj
 0004:000026f4       $pdata$I_step_one          00000001800c46f4     libmpg123:layer1.obj
 0004:00002700       $pdata$0$I_step_one        00000001800c4700     libmpg123:layer1.obj
 0004:0000270c       $pdata$1$I_step_one        00000001800c470c     libmpg123:layer1.obj
 0004:00002718       $pdata$I_step_two          00000001800c4718     libmpg123:layer1.obj
 0004:00002724       $pdata$0$I_step_two        00000001800c4724     libmpg123:layer1.obj
 0004:00002730       $pdata$1$I_step_two        00000001800c4730     libmpg123:layer1.obj
 0004:0000273c       $pdata$INT123_do_layer1    00000001800c473c     libmpg123:layer1.obj
 0004:00002748       $pdata$INT123_do_equalizer 00000001800c4748     libmpg123:equalizer.obj
 0004:00002754       $pdata$INT123_dct64        00000001800c4754     libmpg123:dct64.obj
 0004:00002760       $pdata$dct64_1             00000001800c4760     libmpg123:dct64_i386.obj
 0004:0000276c       $pdata$init_xrpow_core_sse 00000001800c476c     liblamevectorroutines:xmm_quantize_sub.obj
 0004:00002790       $pdata$??2@YAPEAX_K@Z      00000001800c4790     LIBCMT:new_scalar.obj
 0004:0000279c       $pdata$?dllmain_crt_dispatch@@YAHQEAUHINSTANCE__@@KQEAX@Z 00000001800c479c     LIBCMT:dll_dllmain.obj
 0004:000027a8       $pdata$?dllmain_crt_process_attach@@YAHQEAUHINSTANCE__@@QEAX@Z 00000001800c47a8     LIBCMT:dll_dllmain.obj
 0004:000027b4       $pdata$?dllmain_crt_process_detach@@YAH_N@Z 00000001800c47b4     LIBCMT:dll_dllmain.obj
 0004:000027c0       $pdata$?dllmain_dispatch@@YAHQEAUHINSTANCE__@@KQEAX@Z 00000001800c47c0     LIBCMT:dll_dllmain.obj
 0004:000027cc       $pdata$?dllmain_raw@@YAHQEAUHINSTANCE__@@KQEAX@Z 00000001800c47cc     LIBCMT:dll_dllmain.obj
 0004:000027d8       $pdata$_DllMainCRTStartup  00000001800c47d8     LIBCMT:dll_dllmain.obj
 0004:000027e4       $pdata$__raise_securityfailure 00000001800c47e4     LIBCMT:gs_report.obj
 0004:000027f0       $pdata$__report_gsfailure  00000001800c47f0     LIBCMT:gs_report.obj
 0004:000027fc       $pdata$__report_rangecheckfailure 00000001800c47fc     LIBCMT:gs_report.obj
 0004:00002808       $pdata$__report_securityfailure 00000001800c4808     LIBCMT:gs_report.obj
 0004:00002814       $pdata$capture_current_context 00000001800c4814     LIBCMT:gs_report.obj
 0004:00002820       $pdata$capture_previous_context 00000001800c4820     LIBCMT:gs_report.obj
 0004:0000282c       $pdata$??0bad_alloc@std@@QEAA@AEBV01@@Z 00000001800c482c     LIBCMT:throw_bad_alloc.obj
 0004:00002838       $pdata$??0bad_array_new_length@std@@QEAA@AEBV01@@Z 00000001800c4838     LIBCMT:throw_bad_alloc.obj
 0004:00002844       $pdata$??0exception@std@@QEAA@AEBV01@@Z 00000001800c4844     LIBCMT:throw_bad_alloc.obj
 0004:00002850       $pdata$??_Gexception@std@@UEAAPEAXI@Z 00000001800c4850     LIBCMT:throw_bad_alloc.obj
 0004:00002850       $pdata$??_Gbad_array_new_length@std@@UEAAPEAXI@Z 00000001800c4850     LIBCMT:throw_bad_alloc.obj
 0004:00002850       $pdata$??_Gbad_alloc@std@@UEAAPEAXI@Z 00000001800c4850     LIBCMT:throw_bad_alloc.obj
 0004:0000285c       $pdata$?__scrt_throw_std_bad_alloc@@YAXXZ 00000001800c485c     LIBCMT:throw_bad_alloc.obj
 0004:00002868       $pdata$?__scrt_throw_std_bad_array_new_length@@YAXXZ 00000001800c4868     LIBCMT:throw_bad_alloc.obj
 0004:00002874       $pdata$__scrt_acquire_startup_lock 00000001800c4874     LIBCMT:utility.obj
 0004:00002880       $pdata$__scrt_dllmain_after_initialize_c 00000001800c4880     LIBCMT:utility.obj
 0004:0000288c       $pdata$__scrt_dllmain_before_initialize_c 00000001800c488c     LIBCMT:utility.obj
 0004:00002898       $pdata$__scrt_dllmain_crt_thread_attach 00000001800c4898     LIBCMT:utility.obj
 0004:000028a4       $pdata$__scrt_dllmain_crt_thread_detach 00000001800c48a4     LIBCMT:utility.obj
 0004:000028b0       $pdata$__scrt_dllmain_exception_filter 00000001800c48b0     LIBCMT:utility.obj
 0004:000028bc       $pdata$__scrt_dllmain_uninitialize_c 00000001800c48bc     LIBCMT:utility.obj
 0004:000028c8       $pdata$__scrt_dllmain_uninitialize_critical 00000001800c48c8     LIBCMT:utility.obj
 0004:000028d4       $pdata$__scrt_initialize_crt 00000001800c48d4     LIBCMT:utility.obj
 0004:000028e0       $pdata$__scrt_initialize_onexit_tables 00000001800c48e0     LIBCMT:utility.obj
 0004:000028ec       $pdata$__scrt_is_nonwritable_in_current_image 00000001800c48ec     LIBCMT:utility.obj
 0004:000028f8       $pdata$__scrt_release_startup_lock 00000001800c48f8     LIBCMT:utility.obj
 0004:00002904       $pdata$__scrt_uninitialize_crt 00000001800c4904     LIBCMT:utility.obj
 0004:00002910       $pdata$_onexit             00000001800c4910     LIBCMT:utility.obj
 0004:0000291c       $pdata$atexit              00000001800c491c     LIBCMT:utility.obj
 0004:00002928       $pdata$__security_init_cookie 00000001800c4928     LIBCMT:gs_support.obj
 0004:00002934       $pdata$__scrt_initialize_default_local_stdio_options 00000001800c4934     LIBCMT:default_local_stdio_options.obj
 0004:00002940       $pdata$__scrt_fastfail     00000001800c4940     LIBCMT:utility_desktop.obj
 0004:0000294c       $pdata$_RTC_Initialize     00000001800c494c     LIBCMT:_initsect_.obj
 0004:00002958       $pdata$_RTC_Terminate      00000001800c4958     LIBCMT:_initsect_.obj
 0004:00002964       $pdata$??_Gtype_info@@UEAAPEAXI@Z 00000001800c4964     LIBCMT:std_type_info_static.obj
 0004:00002970       $pdata$__isa_available_init 00000001800c4970     LIBCMT:_cpu_disp_.obj
 0004:0000297c       $pdata$_purecall           00000001800c497c     libvcruntime:purevirt.obj
 0004:00002994       $pdata$__telemetry_main_invoke_trigger 00000001800c4994     libvcruntime:telemetry.obj
 0004:000029a0       $pdata$__telemetry_main_return_trigger 00000001800c49a0     libvcruntime:telemetry.obj
 0004:000029ac       $pdata$__vcrt_uninitialize_telemetry_provider 00000001800c49ac     libvcruntime:telemetry.obj
 0004:000029b8       $pdata$__C_specific_handler 00000001800c49b8     libvcruntime:_chandler_.obj
 0004:000029c4       $pdata$__std_exception_copy 00000001800c49c4     libvcruntime:std_exception.obj
 0004:000029d0       $pdata$__std_exception_destroy 00000001800c49d0     libvcruntime:std_exception.obj
 0004:000029dc       $pdata$_CxxThrowException  00000001800c49dc     libvcruntime:throw.obj
 0004:000029e8       $pdata$__vcrt_initialize   00000001800c49e8     libvcruntime:initialization.obj
 0004:000029f4       $pdata$__vcrt_thread_attach 00000001800c49f4     libvcruntime:initialization.obj
 0004:00002a00       $pdata$__vcrt_thread_detach 00000001800c4a00     libvcruntime:initialization.obj
 0004:00002a0c       $pdata$__vcrt_uninitialize 00000001800c4a0c     libvcruntime:initialization.obj
 0004:00002a18       $pdata$__vcrt_uninitialize_critical 00000001800c4a18     libvcruntime:initialization.obj
 0004:00002a24       $pdata$__std_type_info_destroy_list 00000001800c4a24     libvcruntime:std_type_info.obj
 0004:00002a3c       $pdata$?try_get_function@@YAPEAXW4function_id@?A0x61ce2399@@QEBDQEBW4module_id@2@2@Z 00000001800c4a3c     libvcruntime:winapi_downlevel.obj
 0004:00002a48       $pdata$__vcrt_EventRegister 00000001800c4a48     libvcruntime:winapi_downlevel.obj
 0004:00002a54       $pdata$__vcrt_EventSetInformation 00000001800c4a54     libvcruntime:winapi_downlevel.obj
 0004:00002a60       $pdata$__vcrt_EventUnregister 00000001800c4a60     libvcruntime:winapi_downlevel.obj
 0004:00002a6c       $pdata$__vcrt_EventWriteTransfer 00000001800c4a6c     libvcruntime:winapi_downlevel.obj
 0004:00002a78       $pdata$__vcrt_FlsAlloc     00000001800c4a78     libvcruntime:winapi_downlevel.obj
 0004:00002a84       $pdata$__vcrt_FlsFree      00000001800c4a84     libvcruntime:winapi_downlevel.obj
 0004:00002a90       $pdata$__vcrt_FlsGetValue  00000001800c4a90     libvcruntime:winapi_downlevel.obj
 0004:00002a9c       $pdata$__vcrt_FlsSetValue  00000001800c4a9c     libvcruntime:winapi_downlevel.obj
 0004:00002aa8       $pdata$__vcrt_InitializeCriticalSectionEx 00000001800c4aa8     libvcruntime:winapi_downlevel.obj
 0004:00002ab4       $pdata$__vcrt_initialize_winapi_thunks 00000001800c4ab4     libvcruntime:winapi_downlevel.obj
 0004:00002ac0       $pdata$__vcrt_uninitialize_winapi_thunks 00000001800c4ac0     libvcruntime:winapi_downlevel.obj
 0004:00002afc       $pdata$__vcrt_freefls      00000001800c4afc     libvcruntime:per_thread_data.obj
 0004:00002b08       $pdata$__vcrt_freeptd      00000001800c4b08     libvcruntime:per_thread_data.obj
 0004:00002b14       $pdata$__vcrt_getptd_noexit 00000001800c4b14     libvcruntime:per_thread_data.obj
 0004:00002b20       $pdata$__vcrt_initialize_ptd 00000001800c4b20     libvcruntime:per_thread_data.obj
 0004:00002b2c       $pdata$__vcrt_uninitialize_ptd 00000001800c4b2c     libvcruntime:per_thread_data.obj
 0004:00002b38       $pdata$__vcrt_initialize_locks 00000001800c4b38     libvcruntime:locks.obj
 0004:00002b44       $pdata$__vcrt_uninitialize_locks 00000001800c4b44     libvcruntime:locks.obj
 0004:00002b50       $pdata$??0_LocaleUpdate@@QEAA@QEAU__crt_locale_pointers@@@Z 00000001800c4b50     libucrt:stricmp.obj
 0004:00002b5c       $pdata$_stricmp            00000001800c4b5c     libucrt:stricmp.obj
 0004:00002b68       $pdata$_stricmp_l          00000001800c4b68     libucrt:stricmp.obj
 0004:00002b74       $pdata$?internal_isupper_l@@YA_NHQEAU__crt_locale_pointers@@@Z 00000001800c4b74     libucrt:tolower_toupper.obj
 0004:00002b80       $pdata$_tolower_l          00000001800c4b80     libucrt:tolower_toupper.obj
 0004:00002b8c       $pdata$tolower             00000001800c4b8c     libucrt:tolower_toupper.obj
 0004:00002ba4       $pdata$??$?RV<lambda_aa279a7bcb127014629d5b1d62c7325d>@@AEAV<lambda_0a64b6a4deda75c01876f29c44fc5eb3>@@V<lambda_3323e69fbefe9d1a11713e670d47cdfa>@@@?$__crt_seh_guarded_call@H@@QEAAH$$QEAV<lambda_aa279a7bcb127014629d5b1d62c7325d>@@AEAV<lambda_0a64b6a4deda75c01876f29c44fc5eb3>@@$$QEAV<lambda_3323e69fbefe9d1a11713e670d47cdfa>@@@Z 00000001800c4ba4     libucrt:output.obj
 0004:00002bb0       $pdata$??$ensure_buffer_is_big_enough@D@formatting_buffer@__crt_stdio_output@@QEAA_N_K@Z 00000001800c4bb0     libucrt:output.obj
 0004:00002bbc       $pdata$??$type_case_integer_parse_into_buffer@I@?$output_processor@DV?$string_output_adapter@D@__crt_stdio_output@@V?$standard_base@DV?$string_output_adapter@D@__crt_stdio_output@@@2@@__crt_stdio_output@@AEAAXII_N@Z 00000001800c4bbc     libucrt:output.obj
 0004:00002bbc       $pdata$??$type_case_integer_parse_into_buffer@I@?$output_processor@DV?$stream_output_adapter@D@__crt_stdio_output@@V?$standard_base@DV?$stream_output_adapter@D@__crt_stdio_output@@@2@@__crt_stdio_output@@AEAAXII_N@Z 00000001800c4bbc     libucrt:output.obj
 0004:00002bc8       $pdata$??$type_case_integer_parse_into_buffer@_K@?$output_processor@DV?$string_output_adapter@D@__crt_stdio_output@@V?$standard_base@DV?$string_output_adapter@D@__crt_stdio_output@@@2@@__crt_stdio_output@@AEAAX_KI_N@Z 00000001800c4bc8     libucrt:output.obj
 0004:00002bc8       $pdata$??$type_case_integer_parse_into_buffer@_K@?$output_processor@DV?$stream_output_adapter@D@__crt_stdio_output@@V?$standard_base@DV?$stream_output_adapter@D@__crt_stdio_output@@@2@@__crt_stdio_output@@AEAAX_KI_N@Z 00000001800c4bc8     libucrt:output.obj
 0004:00002bd4       $pdata$??$write_multiple_characters@V?$stream_output_adapter@D@__crt_stdio_output@@D@__crt_stdio_output@@YAXAEBV?$stream_output_adapter@D@0@DHQEAH@Z 00000001800c4bd4     libucrt:output.obj
 0004:00002be0       $pdata$??$write_multiple_characters@V?$string_output_adapter@D@__crt_stdio_output@@D@__crt_stdio_output@@YAXAEBV?$string_output_adapter@D@0@DHQEAH@Z 00000001800c4be0     libucrt:output.obj
 0004:00002bec       $pdata$??0?$output_processor@DV?$string_output_adapter@D@__crt_stdio_output@@V?$standard_base@DV?$string_output_adapter@D@__crt_stdio_output@@@2@@__crt_stdio_output@@QEAA@AEBV?$string_output_adapter@D@1@_KQEBDQEAU__crt_locale_pointers@@QEAD@Z 00000001800c4bec     libucrt:output.obj
 0004:00002bec       $pdata$??0?$output_processor@DV?$stream_output_adapter@D@__crt_stdio_output@@V?$standard_base@DV?$stream_output_adapter@D@__crt_stdio_output@@@2@@__crt_stdio_output@@QEAA@AEBV?$stream_output_adapter@D@1@_KQEBDQEAU__crt_locale_pointers@@QEAD@Z 00000001800c4bec     libucrt:output.obj
 0004:00002bf8       $pdata$??R<lambda_0a64b6a4deda75c01876f29c44fc5eb3>@@QEBAHXZ 00000001800c4bf8     libucrt:output.obj
 0004:00002c04       $pdata$?force_decimal_point@__crt_stdio_output@@YAXPEADQEAU__crt_locale_pointers@@@Z 00000001800c4c04     libucrt:output.obj
 0004:00002c10       $pdata$?parse_int_from_format_string@?$output_processor@DV?$string_output_adapter@D@__crt_stdio_output@@V?$standard_base@DV?$string_output_adapter@D@__crt_stdio_output@@@2@@__crt_stdio_output@@AEAA_NQEAH@Z 00000001800c4c10     libucrt:output.obj
 0004:00002c10       $pdata$?parse_int_from_format_string@?$output_processor@DV?$stream_output_adapter@D@__crt_stdio_output@@V?$standard_base@DV?$stream_output_adapter@D@__crt_stdio_output@@@2@@__crt_stdio_output@@AEAA_NQEAH@Z 00000001800c4c10     libucrt:output.obj
 0004:00002c1c       $pdata$?process@?$output_processor@DV?$stream_output_adapter@D@__crt_stdio_output@@V?$standard_base@DV?$stream_output_adapter@D@__crt_stdio_output@@@2@@__crt_stdio_output@@QEAAHXZ 00000001800c4c1c     libucrt:output.obj
 0004:00002c28       $pdata$?process@?$output_processor@DV?$string_output_adapter@D@__crt_stdio_output@@V?$standard_base@DV?$string_output_adapter@D@__crt_stdio_output@@@2@@__crt_stdio_output@@QEAAHXZ 00000001800c4c28     libucrt:output.obj
 0004:00002c34       $pdata$?state_case_normal@?$output_processor@DV?$stream_output_adapter@D@__crt_stdio_output@@V?$standard_base@DV?$stream_output_adapter@D@__crt_stdio_output@@@2@@__crt_stdio_output@@AEAA_NXZ 00000001800c4c34     libucrt:output.obj
 0004:00002c40       $pdata$?state_case_normal@?$output_processor@DV?$string_output_adapter@D@__crt_stdio_output@@V?$standard_base@DV?$string_output_adapter@D@__crt_stdio_output@@@2@@__crt_stdio_output@@AEAA_NXZ 00000001800c4c40     libucrt:output.obj
 0004:00002c4c       $pdata$?state_case_normal_tchar@?$output_processor@DV?$stream_output_adapter@D@__crt_stdio_output@@V?$standard_base@DV?$stream_output_adapter@D@__crt_stdio_output@@@2@@__crt_stdio_output@@AEAA_ND@Z 00000001800c4c4c     libucrt:output.obj
 0004:00002c58       $pdata$?state_case_normal_tchar@?$output_processor@DV?$string_output_adapter@D@__crt_stdio_output@@V?$standard_base@DV?$string_output_adapter@D@__crt_stdio_output@@@2@@__crt_stdio_output@@AEAA_ND@Z 00000001800c4c58     libucrt:output.obj
 0004:00002c64       $pdata$?state_case_size@?$output_processor@DV?$stream_output_adapter@D@__crt_stdio_output@@V?$standard_base@DV?$stream_output_adapter@D@__crt_stdio_output@@@2@@__crt_stdio_output@@AEAA_NXZ 00000001800c4c64     libucrt:output.obj
 0004:00002c70       $pdata$?state_case_size@?$output_processor@DV?$string_output_adapter@D@__crt_stdio_output@@V?$standard_base@DV?$string_output_adapter@D@__crt_stdio_output@@@2@@__crt_stdio_output@@AEAA_NXZ 00000001800c4c70     libucrt:output.obj
 0004:00002c7c       $pdata$?state_case_type@?$output_processor@DV?$stream_output_adapter@D@__crt_stdio_output@@V?$standard_base@DV?$stream_output_adapter@D@__crt_stdio_output@@@2@@__crt_stdio_output@@AEAA_NXZ 00000001800c4c7c     libucrt:output.obj
 0004:00002c88       $pdata$?state_case_type@?$output_processor@DV?$string_output_adapter@D@__crt_stdio_output@@V?$standard_base@DV?$string_output_adapter@D@__crt_stdio_output@@@2@@__crt_stdio_output@@AEAA_NXZ 00000001800c4c88     libucrt:output.obj
 0004:00002c94       $pdata$?type_case_Z@?$output_processor@DV?$string_output_adapter@D@__crt_stdio_output@@V?$standard_base@DV?$string_output_adapter@D@__crt_stdio_output@@@2@@__crt_stdio_output@@AEAA_NXZ 00000001800c4c94     libucrt:output.obj
 0004:00002c94       $pdata$?type_case_Z@?$output_processor@DV?$stream_output_adapter@D@__crt_stdio_output@@V?$standard_base@DV?$stream_output_adapter@D@__crt_stdio_output@@@2@@__crt_stdio_output@@AEAA_NXZ 00000001800c4c94     libucrt:output.obj
 0004:00002ca0       $pdata$?type_case_a@?$output_processor@DV?$stream_output_adapter@D@__crt_stdio_output@@V?$standard_base@DV?$stream_output_adapter@D@__crt_stdio_output@@@2@@__crt_stdio_output@@AEAA_NXZ 00000001800c4ca0     libucrt:output.obj
 0004:00002ca0       $pdata$?type_case_a@?$output_processor@DV?$string_output_adapter@D@__crt_stdio_output@@V?$standard_base@DV?$string_output_adapter@D@__crt_stdio_output@@@2@@__crt_stdio_output@@AEAA_NXZ 00000001800c4ca0     libucrt:output.obj
 0004:00002cac       $pdata$?type_case_c_tchar@?$output_processor@DV?$stream_output_adapter@D@__crt_stdio_output@@V?$standard_base@DV?$stream_output_adapter@D@__crt_stdio_output@@@2@@__crt_stdio_output@@AEAA_ND@Z 00000001800c4cac     libucrt:output.obj
 0004:00002cac       $pdata$?type_case_c_tchar@?$output_processor@DV?$string_output_adapter@D@__crt_stdio_output@@V?$standard_base@DV?$string_output_adapter@D@__crt_stdio_output@@@2@@__crt_stdio_output@@AEAA_ND@Z 00000001800c4cac     libucrt:output.obj
 0004:00002cb8       $pdata$?type_case_integer@?$output_processor@DV?$string_output_adapter@D@__crt_stdio_output@@V?$standard_base@DV?$string_output_adapter@D@__crt_stdio_output@@@2@@__crt_stdio_output@@AEAA_NI_N@Z 00000001800c4cb8     libucrt:output.obj
 0004:00002cb8       $pdata$?type_case_integer@?$output_processor@DV?$stream_output_adapter@D@__crt_stdio_output@@V?$standard_base@DV?$stream_output_adapter@D@__crt_stdio_output@@@2@@__crt_stdio_output@@AEAA_NI_N@Z 00000001800c4cb8     libucrt:output.obj
 0004:00002cc4       $pdata$?type_case_n@?$output_processor@DV?$stream_output_adapter@D@__crt_stdio_output@@V?$standard_base@DV?$stream_output_adapter@D@__crt_stdio_output@@@2@@__crt_stdio_output@@AEAA_NXZ 00000001800c4cc4     libucrt:output.obj
 0004:00002cc4       $pdata$?type_case_n@?$output_processor@DV?$string_output_adapter@D@__crt_stdio_output@@V?$standard_base@DV?$string_output_adapter@D@__crt_stdio_output@@@2@@__crt_stdio_output@@AEAA_NXZ 00000001800c4cc4     libucrt:output.obj
 0004:00002cd0       $pdata$?type_case_s@?$output_processor@DV?$stream_output_adapter@D@__crt_stdio_output@@V?$standard_base@DV?$stream_output_adapter@D@__crt_stdio_output@@@2@@__crt_stdio_output@@AEAA_NXZ 00000001800c4cd0     libucrt:output.obj
 0004:00002cd0       $pdata$?type_case_s@?$output_processor@DV?$string_output_adapter@D@__crt_stdio_output@@V?$standard_base@DV?$string_output_adapter@D@__crt_stdio_output@@@2@@__crt_stdio_output@@AEAA_NXZ 00000001800c4cd0     libucrt:output.obj
 0004:00002cdc       $pdata$?validate_stream_is_ansi_if_required@?$__acrt_stdio_char_traits@D@@SA_NQEAU_iobuf@@@Z 00000001800c4cdc     libucrt:output.obj
 0004:00002ce8       $pdata$?write_stored_string_tchar@?$output_processor@DV?$stream_output_adapter@D@__crt_stdio_output@@V?$standard_base@DV?$stream_output_adapter@D@__crt_stdio_output@@@2@@__crt_stdio_output@@AEAA_ND@Z 00000001800c4ce8     libucrt:output.obj
 0004:00002cf4       $pdata$?write_stored_string_tchar@?$output_processor@DV?$string_output_adapter@D@__crt_stdio_output@@V?$standard_base@DV?$string_output_adapter@D@__crt_stdio_output@@@2@@__crt_stdio_output@@AEAA_ND@Z 00000001800c4cf4     libucrt:output.obj
 0004:00002d00       $pdata$?write_string@?$stream_output_adapter@D@__crt_stdio_output@@QEBAXQEBDHQEAH1@Z 00000001800c4d00     libucrt:output.obj
 0004:00002d0c       $pdata$?write_string@?$string_output_adapter@D@__crt_stdio_output@@QEBAXQEBDHQEAH1@Z 00000001800c4d0c     libucrt:output.obj
 0004:00002d18       $pdata$__stdio_common_vfprintf 00000001800c4d18     libucrt:output.obj
 0004:00002d24       $pdata$__stdio_common_vsprintf 00000001800c4d24     libucrt:output.obj
 0004:00002d30       $pdata$??$parse_integer@KV?$c_string_character_source@D@__crt_strtox@@@__crt_strtox@@YAKQEAU__crt_locale_pointers@@V?$c_string_character_source@D@0@H_N@Z 00000001800c4d30     libucrt:strtox.obj
 0004:00002d3c       $pdata$??$parse_integer@_KV?$c_string_character_source@D@__crt_strtox@@@__crt_strtox@@YA_KQEAU__crt_locale_pointers@@V?$c_string_character_source@D@0@H_N@Z 00000001800c4d3c     libucrt:strtox.obj
 0004:00002d48       $pdata$strtol              00000001800c4d48     libucrt:strtox.obj
 0004:00002d54       $pdata$strtoull            00000001800c4d54     libucrt:strtox.obj
 0004:00002d60       $pdata$__acrt_initialize_stdio 00000001800c4d60     libucrt:_file.obj
 0004:00002d6c       $pdata$__acrt_uninitialize_stdio 00000001800c4d6c     libucrt:_file.obj
 0004:00002d78       $pdata$__acrt_stdio_flush_nolock 00000001800c4d78     libucrt:fflush.obj
 0004:00002d84       $pdata$_fflush_nolock      00000001800c4d84     libucrt:fflush.obj
 0004:00002d90       $pdata$common_flush_all    00000001800c4d90     libucrt:fflush.obj
 0004:00002d9c       $pdata$fflush              00000001800c4d9c     libucrt:fflush.obj
 0004:00002db4       $pdata$?common_exit@@YAXHW4_crt_exit_cleanup_mode@@W4_crt_exit_return_mode@@@Z 00000001800c4db4     libucrt:exit.obj
 0004:00002dc0       $pdata$?exit_or_terminate_process@@YAXI@Z 00000001800c4dc0     libucrt:exit.obj
 0004:00002dcc       $pdata$?try_cor_exit_process@@YAXI@Z 00000001800c4dcc     libucrt:exit.obj
 0004:00002dd8       $pdata$?shortsort@@YAXPEAD0_KP6AHPEBX2@Z@Z 00000001800c4dd8     libucrt:qsort.obj
 0004:00002de4       $pdata$2$?shortsort@@YAXPEAD0_KP6AHPEBX2@Z@Z 00000001800c4de4     libucrt:qsort.obj
 0004:00002df0       $pdata$3$?shortsort@@YAXPEAD0_KP6AHPEBX2@Z@Z 00000001800c4df0     libucrt:qsort.obj
 0004:00002dfc       $pdata$qsort               00000001800c4dfc     libucrt:qsort.obj
 0004:00002e08       $pdata$4$qsort             00000001800c4e08     libucrt:qsort.obj
 0004:00002e14       $pdata$5$qsort             00000001800c4e14     libucrt:qsort.obj
 0004:00002e20       $pdata$_strnicmp           00000001800c4e20     libucrt:strnicmp.obj
 0004:00002e2c       $pdata$_strnicmp_l         00000001800c4e2c     libucrt:strnicmp.obj
 0004:00002e38       $pdata$??$common_atof_l@D@@YANQEBDQEAU__crt_locale_pointers@@@Z 00000001800c4e38     libucrt:atof.obj
 0004:00002e44       $pdata$??$parse_floating_point@V?$c_string_character_source@D@__crt_strtox@@N@__crt_strtox@@YA?AW4SLD_STATUS@@QEAU__crt_locale_pointers@@V?$c_string_character_source@D@0@QEAN@Z 00000001800c4e44     libucrt:atof.obj
 0004:00002e50       $pdata$??$parse_floating_point_from_source@V?$c_string_character_source@D@__crt_strtox@@@__crt_strtox@@YA?AW4floating_point_parse_result@0@QEAU__crt_locale_pointers@@AEAV?$c_string_character_source@D@0@AEAUfloating_point_string@0@@Z 00000001800c4e50     libucrt:atof.obj
 0004:00002e5c       $pdata$??$parse_floating_point_possible_infinity@DV?$c_string_character_source@D@__crt_strtox@@PEBD@__crt_strtox@@YA?AW4floating_point_parse_result@0@AEADAEAV?$c_string_character_source@D@0@PEBD@Z 00000001800c4e5c     libucrt:atof.obj
 0004:00002e68       $pdata$??$parse_floating_point_possible_nan@DV?$c_string_character_source@D@__crt_strtox@@PEBD@__crt_strtox@@YA?AW4floating_point_parse_result@0@AEADAEAV?$c_string_character_source@D@0@PEBD@Z 00000001800c4e68     libucrt:atof.obj
 0004:00002e74       $pdata$??$parse_floating_point_write_result@M@__crt_strtox@@YA?AW4SLD_STATUS@@W4floating_point_parse_result@0@AEBUfloating_point_string@0@QEAM@Z 00000001800c4e74     libucrt:atof.obj
 0004:00002e80       $pdata$??$parse_floating_point_write_result@N@__crt_strtox@@YA?AW4SLD_STATUS@@W4floating_point_parse_result@0@AEBUfloating_point_string@0@QEAN@Z 00000001800c4e80     libucrt:atof.obj
 0004:00002e8c       $pdata$??R<lambda_5b157d9853193f9f9f8b62eb1b9b9f4d>@@QEBA_NXZ 00000001800c4e8c     libucrt:atof.obj
 0004:00002e8c       $pdata$??R<lambda_4b02b6c4205409ce3a17cd2e58fe2976>@@QEBA_NXZ 00000001800c4e8c     libucrt:atof.obj
 0004:00002e8c       $pdata$??R<lambda_73acf8ad6384d823b0eabb7cc5a67fbc>@@QEBA_NXZ 00000001800c4e8c     libucrt:atof.obj
 0004:00002e98       $pdata$?as_double@floating_point_value@__crt_strtox@@QEBAAEANXZ 00000001800c4e98     libucrt:atof.obj
 0004:00002ea4       $pdata$?as_float@floating_point_value@__crt_strtox@@QEBAAEAMXZ 00000001800c4ea4     libucrt:atof.obj
 0004:00002eb0       $pdata$?assemble_floating_point_value@__crt_strtox@@YA?AW4SLD_STATUS@@_KH_N1AEBVfloating_point_value@1@@Z 00000001800c4eb0     libucrt:atof.obj
 0004:00002ebc       $pdata$?assemble_floating_point_value_from_big_integer@__crt_strtox@@YA?AW4SLD_STATUS@@AEBUbig_integer@1@I_N1AEBVfloating_point_value@1@@Z 00000001800c4ebc     libucrt:atof.obj
 0004:00002ec8       $pdata$?convert_decimal_string_to_floating_type_common@__crt_strtox@@YA?AW4SLD_STATUS@@AEBUfloating_point_string@1@AEBVfloating_point_value@1@@Z 00000001800c4ec8     libucrt:atof.obj
 0004:00002ed4       $pdata$?convert_hexadecimal_string_to_floating_type_common@__crt_strtox@@YA?AW4SLD_STATUS@@AEBUfloating_point_string@1@AEBVfloating_point_value@1@@Z 00000001800c4ed4     libucrt:atof.obj
 0004:00002ee0       $pdata$?divide@__crt_strtox@@YA_KAEAUbig_integer@1@AEBU21@@Z 00000001800c4ee0     libucrt:atof.obj
 0004:00002eec       $pdata$5$?divide@__crt_strtox@@YA_KAEAUbig_integer@1@AEBU21@@Z 00000001800c4eec     libucrt:atof.obj
 0004:00002ef8       $pdata$6$?divide@__crt_strtox@@YA_KAEAUbig_integer@1@AEBU21@@Z 00000001800c4ef8     libucrt:atof.obj
 0004:00002f04       $pdata$memcpy_s            00000001800c4f04     libucrt:atof.obj
 0004:00002f04       $pdata$memcpy_s            00000001800c4f04     libucrt:cfout.obj
 0004:00002f10       $pdata$__acrt_errno_map_os_error 00000001800c4f10     libucrt:errno.obj
 0004:00002f1c       $pdata$__doserrno          00000001800c4f1c     libucrt:errno.obj
 0004:00002f28       $pdata$_errno              00000001800c4f28     libucrt:errno.obj
 0004:00002f34       $pdata$??$parse_floating_point@V?$input_adapter_character_source@V?$string_input_adapter@D@__crt_stdio_input@@@__crt_strtox@@M@__crt_strtox@@YA?AW4SLD_STATUS@@QEAU__crt_locale_pointers@@V?$input_adapter_character_source@V?$string_input_adapter@D@__crt_stdio_input@@@0@QEAM@Z 00000001800c4f34     libucrt:input.obj
 0004:00002f40       $pdata$??$parse_floating_point@V?$input_adapter_character_source@V?$string_input_adapter@D@__crt_stdio_input@@@__crt_strtox@@N@__crt_strtox@@YA?AW4SLD_STATUS@@QEAU__crt_locale_pointers@@V?$input_adapter_character_source@V?$string_input_adapter@D@__crt_stdio_input@@@0@QEAN@Z 00000001800c4f40     libucrt:input.obj
 0004:00002f4c       $pdata$??$parse_floating_point_from_source@V?$input_adapter_character_source@V?$string_input_adapter@D@__crt_stdio_input@@@__crt_strtox@@@__crt_strtox@@YA?AW4floating_point_parse_result@0@QEAU__crt_locale_pointers@@AEAV?$input_adapter_character_source@V?$string_input_adapter@D@__crt_stdio_input@@@0@AEAUfloating_point_string@0@@Z 00000001800c4f4c     libucrt:input.obj
 0004:00002f58       $pdata$??$parse_floating_point_possible_infinity@DV?$input_adapter_character_source@V?$string_input_adapter@D@__crt_stdio_input@@@__crt_strtox@@_K@__crt_strtox@@YA?AW4floating_point_parse_result@0@AEADAEAV?$input_adapter_character_source@V?$string_input_adapter@D@__crt_stdio_input@@@0@_K@Z 00000001800c4f58     libucrt:input.obj
 0004:00002f64       $pdata$??$parse_floating_point_possible_nan@DV?$input_adapter_character_source@V?$string_input_adapter@D@__crt_stdio_input@@@__crt_strtox@@_K@__crt_strtox@@YA?AW4floating_point_parse_result@0@AEADAEAV?$input_adapter_character_source@V?$string_input_adapter@D@__crt_stdio_input@@@0@_K@Z 00000001800c4f64     libucrt:input.obj
 0004:00002f70       $pdata$??$parse_floating_point_possible_nan_is_ind@DV?$input_adapter_character_source@V?$string_input_adapter@D@__crt_stdio_input@@@__crt_strtox@@@__crt_strtox@@YA_NAEADAEAV?$input_adapter_character_source@V?$string_input_adapter@D@__crt_stdio_input@@@0@@Z 00000001800c4f70     libucrt:input.obj
 0004:00002f7c       $pdata$??$parse_floating_point_possible_nan_is_snan@DV?$input_adapter_character_source@V?$string_input_adapter@D@__crt_stdio_input@@@__crt_strtox@@@__crt_strtox@@YA_NAEADAEAV?$input_adapter_character_source@V?$string_input_adapter@D@__crt_stdio_input@@@0@@Z 00000001800c4f7c     libucrt:input.obj
 0004:00002f88       $pdata$??$parse_integer@_KV?$input_adapter_character_source@V?$string_input_adapter@D@__crt_stdio_input@@@__crt_strtox@@@__crt_strtox@@YA_KQEAU__crt_locale_pointers@@V?$input_adapter_character_source@V?$string_input_adapter@D@__crt_stdio_input@@@0@H_N@Z 00000001800c4f88     libucrt:input.obj
 0004:00002f94       $pdata$??$process_floating_point_specifier_t@M@?$input_processor@DV?$string_input_adapter@D@__crt_stdio_input@@@__crt_stdio_input@@AEAA_NXZ 00000001800c4f94     libucrt:input.obj
 0004:00002fa0       $pdata$??$process_floating_point_specifier_t@N@?$input_processor@DV?$string_input_adapter@D@__crt_stdio_input@@@__crt_stdio_input@@AEAA_NXZ 00000001800c4fa0     libucrt:input.obj
 0004:00002fac       $pdata$??$process_string_specifier_tchar@D@?$input_processor@DV?$string_input_adapter@D@__crt_stdio_input@@@__crt_stdio_input@@AEAA_NW4conversion_mode@1@D@Z 00000001800c4fac     libucrt:input.obj
 0004:00002fb8       $pdata$??$process_string_specifier_tchar@_W@?$input_processor@DV?$string_input_adapter@D@__crt_stdio_input@@@__crt_stdio_input@@AEAA_NW4conversion_mode@1@_W@Z 00000001800c4fb8     libucrt:input.obj
 0004:00002fc4       $pdata$??$skip_whitespace@Vstring_input_adapter@__crt_stdio_input@@D@__crt_stdio_input@@YAHAEAV?$string_input_adapter@D@0@QEAU__crt_locale_pointers@@@Z 00000001800c4fc4     libucrt:input.obj
 0004:00002fd0       $pdata$?advance@?$format_string_parser@D@__crt_stdio_input@@QEAA_NXZ 00000001800c4fd0     libucrt:input.obj
 0004:00002fdc       $pdata$?process@?$input_processor@DV?$string_input_adapter@D@__crt_stdio_input@@@__crt_stdio_input@@QEAAHXZ 00000001800c4fdc     libucrt:input.obj
 0004:00002fe8       $pdata$?process_conversion_specifier@?$input_processor@DV?$string_input_adapter@D@__crt_stdio_input@@@__crt_stdio_input@@AEAA_NXZ 00000001800c4fe8     libucrt:input.obj
 0004:00002ff4       $pdata$?process_floating_point_specifier@?$input_processor@DV?$string_input_adapter@D@__crt_stdio_input@@@__crt_stdio_input@@AEAA_NXZ 00000001800c4ff4     libucrt:input.obj
 0004:00003000       $pdata$?process_integer_specifier@?$input_processor@DV?$string_input_adapter@D@__crt_stdio_input@@@__crt_stdio_input@@AEAA_NI_N@Z 00000001800c5000     libucrt:input.obj
 0004:0000300c       $pdata$?process_literal_character_tchar@?$input_processor@DV?$string_input_adapter@D@__crt_stdio_input@@@__crt_stdio_input@@AEAA_ND@Z 00000001800c500c     libucrt:input.obj
 0004:00003018       $pdata$?process_state@?$input_processor@DV?$string_input_adapter@D@__crt_stdio_input@@@__crt_stdio_input@@AEAA_NXZ 00000001800c5018     libucrt:input.obj
 0004:00003024       $pdata$?process_string_specifier@?$input_processor@DV?$string_input_adapter@D@__crt_stdio_input@@@__crt_stdio_input@@AEAA_NW4conversion_mode@2@@Z 00000001800c5024     libucrt:input.obj
 0004:00003030       $pdata$?scan_optional_field_width@?$format_string_parser@D@__crt_stdio_input@@AEAA_NXZ 00000001800c5030     libucrt:input.obj
 0004:0000303c       $pdata$?scan_scanset_range@?$format_string_parser@D@__crt_stdio_input@@AEAA_NXZ 00000001800c503c     libucrt:input.obj
 0004:00003048       $pdata$?write_character@?$input_processor@DV?$string_input_adapter@D@__crt_stdio_input@@@__crt_stdio_input@@AEAA_NQEFA_W_KAEAPEFA_WAEA_KD@Z 00000001800c5048     libucrt:input.obj
 0004:00003054       $pdata$?write_integer@?$input_processor@DV?$string_input_adapter@D@__crt_stdio_input@@@__crt_stdio_input@@AEAA_N_K_N@Z 00000001800c5054     libucrt:input.obj
 0004:00003060       $pdata$__stdio_common_vsscanf 00000001800c5060     libucrt:input.obj
 0004:0000306c       $pdata$??$?RV<lambda_bfedae4ebbf01fab1bb6dcc6a9e276e0>@@AEAV<lambda_2fe9b910cf3cbf4a0ab98a02ba45b3ec>@@V<lambda_237c231691f317818eb88cc1d5d642d6>@@@?$__crt_seh_guarded_call@H@@QEAAH$$QEAV<lambda_bfedae4ebbf01fab1bb6dcc6a9e276e0>@@AEAV<lambda_2fe9b910cf3cbf4a0ab98a02ba45b3ec>@@$$QEAV<lambda_237c231691f317818eb88cc1d5d642d6>@@@Z 00000001800c506c     libucrt:close.obj
 0004:00003078       $pdata$_close              00000001800c5078     libucrt:close.obj
 0004:00003084       $pdata$_close_nolock       00000001800c5084     libucrt:close.obj
 0004:00003090       $pdata$_callnewh           00000001800c5090     libucrt:new_handler.obj
 0004:0000309c       $pdata$_query_new_handler  00000001800c509c     libucrt:new_handler.obj
 0004:000030a8       $pdata$_initterm           00000001800c50a8     libucrt:initterm.obj
 0004:000030b4       $pdata$_initterm_e         00000001800c50b4     libucrt:initterm.obj
 0004:000030c0       $pdata$_seh_filter_exe     00000001800c50c0     libucrt:exception_filter.obj
 0004:000030cc       $pdata$??$common_initialize_environment_nolock@D@@YAHXZ 00000001800c50cc     libucrt:environment_initialization.obj
 0004:000030d8       $pdata$??$create_environment@D@@YAQEAPEADQEAD@Z 00000001800c50d8     libucrt:environment_initialization.obj
 0004:000030e4       $pdata$??$free_environment@_W@@YAXQEAPEA_W@Z 00000001800c50e4     libucrt:environment_initialization.obj
 0004:000030e4       $pdata$??$free_environment@D@@YAXQEAPEAD@Z 00000001800c50e4     libucrt:environment_initialization.obj
 0004:000030f0       $pdata$??$uninitialize_environment_internal@D@@YAXAEAPEAPEAD@Z 00000001800c50f0     libucrt:environment_initialization.obj
 0004:000030fc       $pdata$??$uninitialize_environment_internal@_W@@YAXAEAPEAPEA_W@Z 00000001800c50fc     libucrt:environment_initialization.obj
 0004:00003108       $pdata$__dcrt_uninitialize_environments_nolock 00000001800c5108     libucrt:environment_initialization.obj
 0004:00003114       $pdata$??$?RV<lambda_b8c45f8f788dd370798f47cfe8ac3a86>@@AEAV<lambda_4e60a939b0d047cfe11ddc22648dfba9>@@V<lambda_332c3edc96d0294ec56c57d38c1cdfd5>@@@?$__crt_seh_guarded_call@H@@QEAAH$$QEAV<lambda_b8c45f8f788dd370798f47cfe8ac3a86>@@AEAV<lambda_4e60a939b0d047cfe11ddc22648dfba9>@@$$QEAV<lambda_332c3edc96d0294ec56c57d38c1cdfd5>@@@Z 00000001800c5114     libucrt:onexit.obj
 0004:00003120       $pdata$??$?RV<lambda_e24bbb7b643b32fcea6fa61b31d4c984>@@AEAV<lambda_275893d493268fdec8709772e3fcec0e>@@V<lambda_9d71df4d7cf3f480f8d633942495c3b0>@@@?$__crt_seh_guarded_call@H@@QEAAH$$QEAV<lambda_e24bbb7b643b32fcea6fa61b31d4c984>@@AEAV<lambda_275893d493268fdec8709772e3fcec0e>@@$$QEAV<lambda_9d71df4d7cf3f480f8d633942495c3b0>@@@Z 00000001800c5120     libucrt:onexit.obj
 0004:0000312c       $pdata$??R<lambda_4e60a939b0d047cfe11ddc22648dfba9>@@QEBAHXZ 00000001800c512c     libucrt:onexit.obj
 0004:00003138       $pdata$_execute_onexit_table 00000001800c5138     libucrt:onexit.obj
 0004:00003144       $pdata$_register_onexit_function 00000001800c5144     libucrt:onexit.obj
 0004:00003150       $pdata$initialize_c        00000001800c5150     libucrt:initialization.obj
 0004:0000315c       $pdata$uninitialize_environment 00000001800c515c     libucrt:initialization.obj
 0004:00003168       $pdata$initialize_pointers 00000001800c5168     libucrt:initialization.obj
 0004:00003174       $pdata$uninitialize_allocated_memory 00000001800c5174     libucrt:initialization.obj
 0004:00003180       $pdata$__acrt_thread_attach 00000001800c5180     libucrt:initialization.obj
 0004:0000318c       $pdata$__acrt_thread_detach 00000001800c518c     libucrt:initialization.obj
 0004:00003198       $pdata$__acrt_uninitialize_critical 00000001800c5198     libucrt:initialization.obj
 0004:000031a4       $pdata$terminate           00000001800c51a4     libucrt:terminate.obj
 0004:000031b0       $pdata$??$translate_text_mode_nolock@_W@@YAHHQEA_W_K@Z 00000001800c51b0     libucrt:read.obj
 0004:000031bc       $pdata$?translate_ansi_or_utf8_nolock@@YAHHQEAD_KQEA_W1@Z 00000001800c51bc     libucrt:read.obj
 0004:000031c8       $pdata$_read               00000001800c51c8     libucrt:read.obj
 0004:000031d4       $pdata$_read_nolock        00000001800c51d4     libucrt:read.obj
 0004:000031e0       $pdata$??$common_lseek@J@@YAJHJH@Z 00000001800c51e0     libucrt:lseek.obj
 0004:000031ec       $pdata$??$common_lseek@_J@@YA_JH_JH@Z 00000001800c51ec     libucrt:lseek.obj
 0004:000031f8       $pdata$??$common_lseek_nolock@J@@YAJHJH@Z 00000001800c51f8     libucrt:lseek.obj
 0004:00003204       $pdata$??$common_lseek_nolock@_J@@YA_JH_JH@Z 00000001800c5204     libucrt:lseek.obj
 0004:00003210       $pdata$?common_lseek_do_seek_nolock@@YAJQEAXJH@Z 00000001800c5210     libucrt:lseek.obj
 0004:0000321c       $pdata$abort               00000001800c521c     libucrt:abort.obj
 0004:00003228       $pdata$strcpy_s            00000001800c5228     libucrt:strcpy_s.obj
 0004:00003234       $pdata$_free_base          00000001800c5234     libucrt:free_base.obj
 0004:00003240       $pdata$_malloc_base        00000001800c5240     libucrt:malloc_base.obj
 0004:0000324c       $pdata$_calloc_base        00000001800c524c     libucrt:calloc_base.obj
 0004:00003258       $pdata$__acrt_call_reportfault 00000001800c5258     libucrt:invalid_parameter.obj
 0004:00003264       $pdata$_invalid_parameter  00000001800c5264     libucrt:invalid_parameter.obj
 0004:00003270       $pdata$_invalid_parameter_noinfo 00000001800c5270     libucrt:invalid_parameter.obj
 0004:0000327c       $pdata$_invoke_watson      00000001800c527c     libucrt:invalid_parameter.obj
 0004:00003288       $pdata$??$?RV<lambda_c36588078e9f5dfd39652860aa6b3aaf>@@AEAV<lambda_ec61778202f4f5fc7e7711acc23c3bca>@@V<lambda_dc9d2797ccde5d239b4a0efae8ebd7db>@@@?$__crt_seh_guarded_call@P6AXH@Z@@QEAAP6AXH@Z$$QEAV<lambda_c36588078e9f5dfd39652860aa6b3aaf>@@AEAV<lambda_ec61778202f4f5fc7e7711acc23c3bca>@@$$QEAV<lambda_dc9d2797ccde5d239b4a0efae8ebd7db>@@@Z 00000001800c5288     libucrt:signal.obj
 0004:00003294       $pdata$__acrt_get_sigabrt_handler 00000001800c5294     libucrt:signal.obj
 0004:000032a0       $pdata$raise               00000001800c52a0     libucrt:signal.obj
 0004:000032ac       $pdata$??$?RV<lambda_46352004c1216016012b18bd6f87e700>@@AEAV<lambda_3bd07e1a1191394380780325891bf33f>@@V<lambda_334532d3f185bcaa59b5be82d7d22bff>@@@?$__crt_seh_guarded_call@X@@QEAAX$$QEAV<lambda_46352004c1216016012b18bd6f87e700>@@AEAV<lambda_3bd07e1a1191394380780325891bf33f>@@$$QEAV<lambda_334532d3f185bcaa59b5be82d7d22bff>@@@Z 00000001800c52ac     libucrt:per_thread_data.obj
 0004:000032b8       $pdata$??$?RV<lambda_5e887d1dcbef67a5eb4283622ba103bf>@@AEAV<lambda_4466841279450cc726390878d4a41900>@@V<lambda_341c25c0346d94847f1f3c463c57e077>@@@?$__crt_seh_guarded_call@X@@QEAAX$$QEAV<lambda_5e887d1dcbef67a5eb4283622ba103bf>@@AEAV<lambda_4466841279450cc726390878d4a41900>@@$$QEAV<lambda_341c25c0346d94847f1f3c463c57e077>@@@Z 00000001800c52b8     libucrt:per_thread_data.obj
 0004:000032c4       $pdata$??$?RV<lambda_72d1df2b273a38828b1ce30cbf4cdab5>@@AEAV<lambda_876a65b173b8412d3a47c70a915b0cf4>@@V<lambda_41932305e351933ebe8f8be3ed8bb5dc>@@@?$__crt_seh_guarded_call@X@@QEAAX$$QEAV<lambda_72d1df2b273a38828b1ce30cbf4cdab5>@@AEAV<lambda_876a65b173b8412d3a47c70a915b0cf4>@@$$QEAV<lambda_41932305e351933ebe8f8be3ed8bb5dc>@@@Z 00000001800c52c4     libucrt:per_thread_data.obj
 0004:000032d0       $pdata$??$?RV<lambda_fb3a7dec4e47f37f22dae91bb15c9095>@@AEAV<lambda_698284760c8add0bfb0756c19673e34b>@@V<lambda_dfb8eca1e75fef3034a8fb18dd509707>@@@?$__crt_seh_guarded_call@X@@QEAAX$$QEAV<lambda_fb3a7dec4e47f37f22dae91bb15c9095>@@AEAV<lambda_698284760c8add0bfb0756c19673e34b>@@$$QEAV<lambda_dfb8eca1e75fef3034a8fb18dd509707>@@@Z 00000001800c52d0     libucrt:per_thread_data.obj
 0004:000032dc       $pdata$?construct_ptd_array@@YAXQEAU__acrt_ptd@@@Z 00000001800c52dc     libucrt:per_thread_data.obj
 0004:000032e8       $pdata$?destroy_fls@@YAXPEAX@Z 00000001800c52e8     libucrt:per_thread_data.obj
 0004:000032f4       $pdata$?destroy_ptd_array@@YAXQEAU__acrt_ptd@@@Z 00000001800c52f4     libucrt:per_thread_data.obj
 0004:00003300       $pdata$?replace_current_thread_locale_nolock@@YAXQEAU__acrt_ptd@@QEAU__crt_locale_data@@@Z 00000001800c5300     libucrt:per_thread_data.obj
 0004:0000330c       $pdata$__acrt_freeptd      00000001800c530c     libucrt:per_thread_data.obj
 0004:00003318       $pdata$__acrt_getptd       00000001800c5318     libucrt:per_thread_data.obj
 0004:00003324       $pdata$__acrt_getptd_noexit 00000001800c5324     libucrt:per_thread_data.obj
 0004:00003330       $pdata$__acrt_initialize_ptd 00000001800c5330     libucrt:per_thread_data.obj
 0004:0000333c       $pdata$__acrt_uninitialize_ptd 00000001800c533c     libucrt:per_thread_data.obj
 0004:00003348       $pdata$__acrt_update_locale_info 00000001800c5348     libucrt:locale_update.obj
 0004:00003354       $pdata$__acrt_update_multibyte_info 00000001800c5354     libucrt:locale_update.obj
 0004:00003360       $pdata$__acrt_uninitialize_locale 00000001800c5360     libucrt:wsetlocale.obj
 0004:0000336c       $pdata$?initialize_inherited_file_handles_nolock@@YAXXZ 00000001800c536c     libucrt:ioinit.obj
 0004:00003378       $pdata$?initialize_stdio_handles_nolock@@YAXXZ 00000001800c5378     libucrt:ioinit.obj
 0004:00003384       $pdata$__acrt_initialize_lowio 00000001800c5384     libucrt:ioinit.obj
 0004:00003390       $pdata$__acrt_uninitialize_lowio 00000001800c5390     libucrt:ioinit.obj
 0004:0000339c       $pdata$__pctype_func       00000001800c539c     libucrt:ctype.obj
 0004:000033a8       $pdata$_isleadbyte_l       00000001800c53a8     libucrt:_wctype.obj
 0004:000033b4       $pdata$_isctype_l          00000001800c53b4     libucrt:isctype.obj
 0004:000033c0       $pdata$?__acrt_LCMapStringA_stat@@YAHPEAU__crt_locale_pointers@@PEB_WKPEBDHPEADHHH@Z 00000001800c53c0     libucrt:lcmapstringa.obj
 0004:000033cc       $pdata$__acrt_LCMapStringA 00000001800c53cc     libucrt:lcmapstringa.obj
 0004:000033d8       $pdata$isdigit             00000001800c53d8     libucrt:_ctype.obj
 0004:000033e4       $pdata$isspace             00000001800c53e4     libucrt:_ctype.obj
 0004:000033f0       $pdata$_mbtowc_l           00000001800c53f0     libucrt:mbtowc.obj
 0004:000033fc       $pdata$_wctomb_s_l         00000001800c53fc     libucrt:wctomb.obj
 0004:00003408       $pdata$wctomb_s            00000001800c5408     libucrt:wctomb.obj
 0004:00003414       $pdata$strnlen             00000001800c5414     libucrt:strnlen.obj
 0004:00003420       $pdata$wcsnlen             00000001800c5420     libucrt:strnlen.obj
 0004:0000342c       $pdata$?fp_format_a@@YAHQEBNPEAD_KQEAD2H_NIQEAU__crt_locale_pointers@@@Z 00000001800c542c     libucrt:cvt.obj
 0004:00003438       $pdata$?fp_format_e@@YAHQEBNQEAD_K12H_NIQEAU__crt_locale_pointers@@@Z 00000001800c5438     libucrt:cvt.obj
 0004:00003444       $pdata$?fp_format_e_internal@@YAHQEAD_KH_NIQEAU_strflt@@2QEAU__crt_locale_pointers@@@Z 00000001800c5444     libucrt:cvt.obj
 0004:00003450       $pdata$?fp_format_f_internal@@YAHQEAD_KHQEAU_strflt@@_NQEAU__crt_locale_pointers@@@Z 00000001800c5450     libucrt:cvt.obj
 0004:0000345c       $pdata$?fp_format_g@@YAHQEBNQEAD_K12H_NIQEAU__crt_locale_pointers@@@Z 00000001800c545c     libucrt:cvt.obj
 0004:00003468       $pdata$?fp_format_nan_or_infinity@@YAHW4__acrt_fp_class@@_NPEAD_K1@Z 00000001800c5468     libucrt:cvt.obj
 0004:00003474       $pdata$__acrt_fp_format    00000001800c5474     libucrt:cvt.obj
 0004:00003480       $pdata$_fileno             00000001800c5480     libucrt:fileno.obj
 0004:0000348c       $pdata$__acrt_stdio_begin_temporary_buffering_nolock 00000001800c548c     libucrt:_sftbuf.obj
 0004:00003498       $pdata$__acrt_stdio_end_temporary_buffering_nolock 00000001800c5498     libucrt:_sftbuf.obj
 0004:000034a4       $pdata$?try_get_function@@YAPEAXW4function_id@?A0x63058377@@QEBDQEBW4module_id@2@2@Z 00000001800c54a4     libucrt:winapi_thunks.obj
 0004:000034b0       $pdata$__acrt_FlsAlloc     00000001800c54b0     libucrt:winapi_thunks.obj
 0004:000034bc       $pdata$__acrt_FlsFree      00000001800c54bc     libucrt:winapi_thunks.obj
 0004:000034c8       $pdata$__acrt_FlsGetValue  00000001800c54c8     libucrt:winapi_thunks.obj
 0004:000034d4       $pdata$__acrt_FlsSetValue  00000001800c54d4     libucrt:winapi_thunks.obj
 0004:000034e0       $pdata$__acrt_InitializeCriticalSectionEx 00000001800c54e0     libucrt:winapi_thunks.obj
 0004:000034ec       $pdata$__acrt_LCMapStringEx 00000001800c54ec     libucrt:winapi_thunks.obj
 0004:000034f8       $pdata$__acrt_LocaleNameToLCID 00000001800c54f8     libucrt:winapi_thunks.obj
 0004:00003504       $pdata$__acrt_initialize_winapi_thunks 00000001800c5504     libucrt:winapi_thunks.obj
 0004:00003510       $pdata$__acrt_is_packaged_app 00000001800c5510     libucrt:winapi_thunks.obj
 0004:0000351c       $pdata$__acrt_uninitialize_winapi_thunks 00000001800c551c     libucrt:winapi_thunks.obj
 0004:00003528       $pdata$_fcloseall          00000001800c5528     libucrt:closeall.obj
 0004:00003534       $pdata$__acrt_stdio_free_buffer_nolock 00000001800c5534     libucrt:_freebuf.obj
 0004:00003540       $pdata$__acrt_initialize_locks 00000001800c5540     libucrt:locks.obj
 0004:0000354c       $pdata$__acrt_uninitialize_locks 00000001800c554c     libucrt:locks.obj
 0004:00003558       $pdata$??$?RV<lambda_b521505b218e5242e90febf6bfebc422>@@AEAV<lambda_6978c1fb23f02e42e1d9e99668cc68aa>@@V<lambda_314360699dd331753a4119843814e9a7>@@@?$__crt_seh_guarded_call@H@@QEAAH$$QEAV<lambda_b521505b218e5242e90febf6bfebc422>@@AEAV<lambda_6978c1fb23f02e42e1d9e99668cc68aa>@@$$QEAV<lambda_314360699dd331753a4119843814e9a7>@@@Z 00000001800c5558     libucrt:commit.obj
 0004:00003564       $pdata$_commit             00000001800c5564     libucrt:commit.obj
 0004:00003570       $pdata$?write_double_translated_ansi_nolock@@YA?AUwrite_result@?A0x9c548279@@HQEBDI@Z 00000001800c5570     libucrt:write.obj
 0004:0000357c       $pdata$?write_text_ansi_nolock@@YA?AUwrite_result@?A0x9c548279@@HQEBDI@Z 00000001800c557c     libucrt:write.obj
 0004:00003588       $pdata$?write_text_utf16le_nolock@@YA?AUwrite_result@?A0x9c548279@@HQEBDI@Z 00000001800c5588     libucrt:write.obj
 0004:00003594       $pdata$?write_text_utf8_nolock@@YA?AUwrite_result@?A0x9c548279@@HQEBDI@Z 00000001800c5594     libucrt:write.obj
 0004:000035a0       $pdata$_write              00000001800c55a0     libucrt:write.obj
 0004:000035ac       $pdata$_write_nolock       00000001800c55ac     libucrt:write.obj
 0004:000035b8       $pdata$??$write_buffer_nolock@D@@YA_NDV__crt_stdio_stream@@@Z 00000001800c55b8     libucrt:_flsbuf.obj
 0004:000035c4       $pdata$__acrt_stdio_flush_and_write_narrow_nolock 00000001800c55c4     libucrt:_flsbuf.obj
 0004:000035d0       $pdata$fegetround          00000001800c55d0     libucrt:fegetround.obj
 0004:000035dc       $pdata$_realloc_base       00000001800c55dc     libucrt:realloc_base.obj
 0004:000035e8       $pdata$__acrt_lowio_create_handle_array 00000001800c55e8     libucrt:osfinfo.obj
 0004:000035f4       $pdata$__acrt_lowio_destroy_handle_array 00000001800c55f4     libucrt:osfinfo.obj
 0004:00003600       $pdata$__acrt_lowio_ensure_fh_exists 00000001800c5600     libucrt:osfinfo.obj
 0004:0000360c       $pdata$_free_osfhnd        00000001800c560c     libucrt:osfinfo.obj
 0004:00003618       $pdata$_get_osfhandle      00000001800c5618     libucrt:osfinfo.obj
 0004:00003624       $pdata$??$?RV<lambda_99476a1ad63dd22509b5d3e65b0ffc95>@@AEAV<lambda_ad1ced32f4ac17aa236e5ef05d6b3b7c>@@V<lambda_f7424dd8d45958661754dc4f2697e9c3>@@@?$__crt_seh_guarded_call@X@@QEAAX$$QEAV<lambda_99476a1ad63dd22509b5d3e65b0ffc95>@@AEAV<lambda_ad1ced32f4ac17aa236e5ef05d6b3b7c>@@$$QEAV<lambda_f7424dd8d45958661754dc4f2697e9c3>@@@Z 00000001800c5624     libucrt:mbctype.obj
 0004:00003630       $pdata$??R<lambda_ad1ced32f4ac17aa236e5ef05d6b3b7c>@@QEBAXXZ 00000001800c5630     libucrt:mbctype.obj
 0004:0000363c       $pdata$?getSystemCP@@YAHH@Z 00000001800c563c     libucrt:mbctype.obj
 0004:00003648       $pdata$?setSBCS@@YAXPEAU__crt_multibyte_data@@@Z 00000001800c5648     libucrt:mbctype.obj
 0004:00003654       $pdata$?setSBUpLow@@YAXPEAU__crt_multibyte_data@@@Z 00000001800c5654     libucrt:mbctype.obj
 0004:00003660       $pdata$?setmbcp_internal@@YAHH_N@Z 00000001800c5660     libucrt:mbctype.obj
 0004:0000366c       $pdata$__acrt_initialize_multibyte 00000001800c566c     libucrt:mbctype.obj
 0004:00003678       $pdata$__acrt_update_thread_multibyte_data 00000001800c5678     libucrt:mbctype.obj
 0004:00003684       $pdata$_setmbcp_nolock     00000001800c5684     libucrt:mbctype.obj
 0004:00003690       $pdata$__dcrt_get_narrow_environment_from_os 00000001800c5690     libucrt:get_environment_from_os.obj
 0004:0000369c       $pdata$_recalloc_base      00000001800c569c     libucrt:recalloc.obj
 0004:000036a8       $pdata$__acrt_initialize_heap 00000001800c56a8     libucrt:heap_handle.obj
 0004:000036b4       $pdata$__acrt_initialize_command_line 00000001800c56b4     libucrt:argv_data.obj
 0004:000036c0       $pdata$__acrt_execute_initializers 00000001800c56c0     libucrt:shared_initialization.obj
 0004:000036cc       $pdata$__acrt_execute_uninitializers 00000001800c56cc     libucrt:shared_initialization.obj
 0004:000036d8       $pdata$__acrt_invoke_user_matherr 00000001800c56d8     libucrt:matherr.obj
 0004:000036e4       $pdata$_isatty             00000001800c56e4     libucrt:isatty.obj
 0004:000036f0       $pdata$__acrt_free_locale  00000001800c56f0     libucrt:locale_refcounting.obj
 0004:000036fc       $pdata$__acrt_locale_free_lc_time_if_unreferenced 00000001800c56fc     libucrt:locale_refcounting.obj
 0004:00003708       $pdata$__acrt_release_locale_ref 00000001800c5708     libucrt:locale_refcounting.obj
 0004:00003714       $pdata$__acrt_update_thread_locale_data 00000001800c5714     libucrt:locale_refcounting.obj
 0004:00003720       $pdata$_updatetlocinfoEx_nolock 00000001800c5720     libucrt:locale_refcounting.obj
 0004:0000372c       $pdata$__acrt_locale_free_monetary 00000001800c572c     libucrt:initmon.obj
 0004:00003738       $pdata$__acrt_locale_free_numeric 00000001800c5738     libucrt:initnum.obj
 0004:00003744       $pdata$?free_crt_array_internal@@YAXQEAPEBX_K@Z 00000001800c5744     libucrt:inittime.obj
 0004:00003750       $pdata$__acrt_locale_free_time 00000001800c5750     libucrt:inittime.obj
 0004:0000375c       $pdata$__acrt_GetStringTypeA 00000001800c575c     libucrt:getstringtypea.obj
 0004:00003768       $pdata$__acrt_fp_strflt_to_string 00000001800c5768     libucrt:_fptostr.obj
 0004:00003774       $pdata$__acrt_fltout       00000001800c5774     libucrt:cfout.obj
 0004:00003780       $pdata$?GetTableIndexFromLocaleName@@YAHPEB_W@Z 00000001800c5780     libucrt:lcidtoname_downlevel.obj
 0004:0000378c       $pdata$__acrt_DownlevelLocaleNameToLCID 00000001800c578c     libucrt:lcidtoname_downlevel.obj
 0004:00003798       $pdata$_fclose_nolock      00000001800c5798     libucrt:fclose.obj
 0004:000037a4       $pdata$fclose              00000001800c57a4     libucrt:fclose.obj
 0004:000037b0       $pdata$_putwch_nolock      00000001800c57b0     libucrt:putwch.obj
 0004:000037bc       $pdata$__acrt_stdio_allocate_buffer_nolock 00000001800c57bc     libucrt:_getbuf.obj
 0004:000037c8       $pdata$_getfpcontrolword   00000001800c57c8     libucrt:_fenvutils.obj
 0004:000037d4       $pdata$_getfpstatusword    00000001800c57d4     libucrt:_fenvutils.obj
 0004:000037e0       $pdata$_setfpstatusword    00000001800c57e0     libucrt:_fenvutils.obj
 0004:000037ec       $pdata$?initialize_multibyte@@YAHXZ 00000001800c57ec     libucrt:multibyte_initializer.obj
 0004:000037f8       $pdata$_msize              00000001800c57f8     libucrt:msize.obj
 0004:00003804       $pdata$fegetenv            00000001800c5804     libucrt:fegetenv.obj
 0004:00003810       $pdata$fesetenv            00000001800c5810     libucrt:fesetenv.obj
 0004:0000381c       $pdata$feholdexcept        00000001800c581c     libucrt:feholdexcept.obj
 0004:00003834       $pdata$__dcrt_lowio_initialize_console_output 00000001800c5834     libucrt:initcon.obj
 0004:00003840       $pdata$__dcrt_terminate_console_output 00000001800c5840     libucrt:initcon.obj
 0004:0000384c       $pdata$_clearfp            00000001800c584c     libucrt:ieee.obj
 0004:00003858       $pdata$common_control87    00000001800c5858     libucrt:ieee.obj
 0004:00003870       $pdata$_call_matherr       00000001800c5870     libucrt:libm_error.obj
 0004:0000387c       $pdata$_exception_enabled  00000001800c587c     libucrt:libm_error.obj
 0004:00003888       $pdata$_handle_error       00000001800c5888     libucrt:libm_error.obj
 0004:00003894       $pdata$_handle_errorf      00000001800c5894     libucrt:libm_error.obj
 0004:000038a0       $pdata$__acrt_initialize_fma3 00000001800c58a0     libucrt:fma3_available.obj
 0004:000038ac       $pdata$_log10_special      00000001800c58ac     libucrt:log_special.obj
 0004:000038b8       $pdata$_log10f_special     00000001800c58b8     libucrt:log_special.obj
 0004:000038c4       $pdata$_log_special        00000001800c58c4     libucrt:log_special.obj
 0004:000038d0       $pdata$_log_special_common 00000001800c58d0     libucrt:log_special.obj
 0004:000038dc       $pdata$_logf_special_common 00000001800c58dc     libucrt:log_special.obj
 0004:000038e8       $pdata$_raise_exc          00000001800c58e8     libucrt:fpexcept.obj
 0004:000038f4       $pdata$_raise_exc_ex       00000001800c58f4     libucrt:fpexcept.obj
 0004:00003900       $pdata$_raise_excf         00000001800c5900     libucrt:fpexcept.obj
 0004:0000390c       $pdata$_set_errno_from_matherr 00000001800c590c     libucrt:fpexcept.obj
 0004:00003918       $pdata$_clrfp              00000001800c5918     libucrt:fpctrl.obj
 0004:00003924       $pdata$_ctrlfp             00000001800c5924     libucrt:fpctrl.obj
 0004:00003930       $pdata$_set_statfp         00000001800c5930     libucrt:fpctrl.obj
 0004:0000393c       $pdata$_statfp             00000001800c593c     libucrt:fpctrl.obj
 0004:00003948       $pdata$?DloadAcquireSectionWriteAccess@@YAXXZ 00000001800c5948     DelayImp:delayhlp.obj
 0004:00003954       $pdata$?DloadGetSRWLockFunctionPointers@@YAEXZ 00000001800c5954     DelayImp:delayhlp.obj
 0004:00003960       $pdata$?DloadMakePermanentImageCommit@@YAXPEAX_K@Z 00000001800c5960     DelayImp:delayhlp.obj
 0004:0000396c       $pdata$?DloadObtainSection@@YAPEAXPEAK0@Z 00000001800c596c     DelayImp:delayhlp.obj
 0004:00003978       $pdata$?DloadProtectSection@@YAXKPEAK@Z 00000001800c5978     DelayImp:delayhlp.obj
 0004:00003984       $pdata$?DloadReleaseSectionWriteAccess@@YAXXZ 00000001800c5984     DelayImp:delayhlp.obj
 0004:00003990       $pdata$__delayLoadHelper2  00000001800c5990     DelayImp:delayhlp.obj
 0004:0000399c       $pdata$__GSHandlerCheck    00000001800c599c     LIBCMT:_gshandler_.obj
 0004:000039a8       $pdata$__GSHandlerCheckCommon 00000001800c59a8     LIBCMT:_gshandler_.obj
 0004:000039b4       $pdata$_IsNonwritableInCurrentImage 00000001800c59b4     LIBCMT:pesect.obj
 0004:000039d8       $pdata$strrchr             00000001800c59d8     libvcruntime:strrchr.obj
 0004:00003a20       $pdata$atan                00000001800c5a20     libucrt:atan.obj
 0004:00003a80       $pdata$sqrt                00000001800c5a80     libucrt:sqrt.obj
 0004:00003ad4       $pdata$_sincos_special     00000001800c5ad4     libucrt:sincos_special.obj
 0004:00003ae0       $pdata$_exp_special        00000001800c5ae0     libucrt:exp_special.obj
 0004:00003aec       $pdata$_pow_special        00000001800c5aec     libucrt:pow_special.obj
 0004:00003af8       $pdata$_powf_special       00000001800c5af8     libucrt:pow_special.obj
 0004:00003b10       $pdata$?fin$0@?0??dllmain_crt_process_attach@@YAHQEAUHINSTANCE__@@QEAX@Z@4HA 00000001800c5b10     LIBCMT:dll_dllmain.obj
 0004:00003b1c       $pdata$?fin$0@?0??dllmain_crt_process_detach@@YAH_N@Z@4HA 00000001800c5b1c     LIBCMT:dll_dllmain.obj
 0004:00003b28       $pdata$?filt$0@?0??dllmain_dispatch@@YAHQEAUHINSTANCE__@@KQEAX@Z@4HA 00000001800c5b28     LIBCMT:dll_dllmain.obj
 0004:00003b34       $pdata$__scrt_is_nonwritable_in_current_image$filt$0 00000001800c5b34     LIBCMT:utility.obj
 0004:00003b40       $pdata$?fin$0@?0???$?RV<lambda_aa279a7bcb127014629d5b1d62c7325d>@@AEAV<lambda_0a64b6a4deda75c01876f29c44fc5eb3>@@V<lambda_3323e69fbefe9d1a11713e670d47cdfa>@@@?$__crt_seh_guarded_call@H@@QEAAH$$QEAV<lambda_aa279a7bcb127014629d5b1d62c7325d>@@AEAV<lambda_0a64b6a4deda75c01876f29c44fc5eb3>@@$$QEAV<lambda_3323e69fbefe9d1a11713e670d47cdfa>@@@Z@4HA 00000001800c5b40     libucrt:output.obj
 0004:00003b4c       $pdata$common_flush_all$fin$0 00000001800c5b4c     libucrt:fflush.obj
 0004:00003b58       $pdata$common_flush_all$fin$1 00000001800c5b58     libucrt:fflush.obj
 0004:00003b64       $pdata$?filt$0@?0??common_exit@@YAXHW4_crt_exit_cleanup_mode@@W4_crt_exit_return_mode@@@Z@4HA 00000001800c5b64     libucrt:exit.obj
 0004:00003b70       $pdata$?fin$1@?0??common_exit@@YAXHW4_crt_exit_cleanup_mode@@W4_crt_exit_return_mode@@@Z@4HA 00000001800c5b70     libucrt:exit.obj
 0004:00003b7c       $pdata$?fin$0@?0???$?RV<lambda_bfedae4ebbf01fab1bb6dcc6a9e276e0>@@AEAV<lambda_2fe9b910cf3cbf4a0ab98a02ba45b3ec>@@V<lambda_237c231691f317818eb88cc1d5d642d6>@@@?$__crt_seh_guarded_call@H@@QEAAH$$QEAV<lambda_bfedae4ebbf01fab1bb6dcc6a9e276e0>@@AEAV<lambda_2fe9b910cf3cbf4a0ab98a02ba45b3ec>@@$$QEAV<lambda_237c231691f317818eb88cc1d5d642d6>@@@Z@4HA 00000001800c5b7c     libucrt:close.obj
 0004:00003b7c       $pdata$?fin$0@?0???$?RV<lambda_b521505b218e5242e90febf6bfebc422>@@AEAV<lambda_6978c1fb23f02e42e1d9e99668cc68aa>@@V<lambda_314360699dd331753a4119843814e9a7>@@@?$__crt_seh_guarded_call@H@@QEAAH$$QEAV<lambda_b521505b218e5242e90febf6bfebc422>@@AEAV<lambda_6978c1fb23f02e42e1d9e99668cc68aa>@@$$QEAV<lambda_314360699dd331753a4119843814e9a7>@@@Z@4HA 00000001800c5b7c     libucrt:commit.obj
 0004:00003b88       $pdata$_query_new_handler$fin$0 00000001800c5b88     libucrt:new_handler.obj
 0004:00003b94       $pdata$?fin$0@?0???$?RV<lambda_e24bbb7b643b32fcea6fa61b31d4c984>@@AEAV<lambda_275893d493268fdec8709772e3fcec0e>@@V<lambda_9d71df4d7cf3f480f8d633942495c3b0>@@@?$__crt_seh_guarded_call@H@@QEAAH$$QEAV<lambda_e24bbb7b643b32fcea6fa61b31d4c984>@@AEAV<lambda_275893d493268fdec8709772e3fcec0e>@@$$QEAV<lambda_9d71df4d7cf3f480f8d633942495c3b0>@@@Z@4HA 00000001800c5b94     libucrt:onexit.obj
 0004:00003ba0       $pdata$?fin$0@?0???$common_lseek@J@@YAJHJH@Z@4HA 00000001800c5ba0     libucrt:lseek.obj
 0004:00003ba0       $pdata$_write$fin$0        00000001800c5ba0     libucrt:write.obj
 0004:00003ba0       $pdata$?fin$0@?0???$common_lseek@_J@@YA_JH_JH@Z@4HA 00000001800c5ba0     libucrt:lseek.obj
 0004:00003ba0       $pdata$_read$fin$0         00000001800c5ba0     libucrt:read.obj
 0004:00003bac       $pdata$raise$fin$0         00000001800c5bac     libucrt:signal.obj
 0004:00003bb8       $pdata$?fin$0@?0???$?RV<lambda_c36588078e9f5dfd39652860aa6b3aaf>@@AEAV<lambda_ec61778202f4f5fc7e7711acc23c3bca>@@V<lambda_dc9d2797ccde5d239b4a0efae8ebd7db>@@@?$__crt_seh_guarded_call@P6AXH@Z@@QEAAP6AXH@Z$$QEAV<lambda_c36588078e9f5dfd39652860aa6b3aaf>@@AEAV<lambda_ec61778202f4f5fc7e7711acc23c3bca>@@$$QEAV<lambda_dc9d2797ccde5d239b4a0efae8ebd7db>@@@Z@4HA 00000001800c5bb8     libucrt:signal.obj
 0004:00003bb8       $pdata$?fin$0@?0???$?RV<lambda_fb3a7dec4e47f37f22dae91bb15c9095>@@AEAV<lambda_698284760c8add0bfb0756c19673e34b>@@V<lambda_dfb8eca1e75fef3034a8fb18dd509707>@@@?$__crt_seh_guarded_call@X@@QEAAX$$QEAV<lambda_fb3a7dec4e47f37f22dae91bb15c9095>@@AEAV<lambda_698284760c8add0bfb0756c19673e34b>@@$$QEAV<lambda_dfb8eca1e75fef3034a8fb18dd509707>@@@Z@4HA 00000001800c5bb8     libucrt:per_thread_data.obj
 0004:00003bb8       $pdata$?fin$0@?0???$?RV<lambda_b8c45f8f788dd370798f47cfe8ac3a86>@@AEAV<lambda_4e60a939b0d047cfe11ddc22648dfba9>@@V<lambda_332c3edc96d0294ec56c57d38c1cdfd5>@@@?$__crt_seh_guarded_call@H@@QEAAH$$QEAV<lambda_b8c45f8f788dd370798f47cfe8ac3a86>@@AEAV<lambda_4e60a939b0d047cfe11ddc22648dfba9>@@$$QEAV<lambda_332c3edc96d0294ec56c57d38c1cdfd5>@@@Z@4HA 00000001800c5bb8     libucrt:onexit.obj
 0004:00003bb8       $pdata$?fin$0@?0???$?RV<lambda_5e887d1dcbef67a5eb4283622ba103bf>@@AEAV<lambda_4466841279450cc726390878d4a41900>@@V<lambda_341c25c0346d94847f1f3c463c57e077>@@@?$__crt_seh_guarded_call@X@@QEAAX$$QEAV<lambda_5e887d1dcbef67a5eb4283622ba103bf>@@AEAV<lambda_4466841279450cc726390878d4a41900>@@$$QEAV<lambda_341c25c0346d94847f1f3c463c57e077>@@@Z@4HA 00000001800c5bb8     libucrt:per_thread_data.obj
 0004:00003bb8       $pdata$?fin$0@?0???$?RV<lambda_46352004c1216016012b18bd6f87e700>@@AEAV<lambda_3bd07e1a1191394380780325891bf33f>@@V<lambda_334532d3f185bcaa59b5be82d7d22bff>@@@?$__crt_seh_guarded_call@X@@QEAAX$$QEAV<lambda_46352004c1216016012b18bd6f87e700>@@AEAV<lambda_3bd07e1a1191394380780325891bf33f>@@$$QEAV<lambda_334532d3f185bcaa59b5be82d7d22bff>@@@Z@4HA 00000001800c5bb8     libucrt:per_thread_data.obj
 0004:00003bb8       $pdata$?fin$0@?0???$?RV<lambda_99476a1ad63dd22509b5d3e65b0ffc95>@@AEAV<lambda_ad1ced32f4ac17aa236e5ef05d6b3b7c>@@V<lambda_f7424dd8d45958661754dc4f2697e9c3>@@@?$__crt_seh_guarded_call@X@@QEAAX$$QEAV<lambda_99476a1ad63dd22509b5d3e65b0ffc95>@@AEAV<lambda_ad1ced32f4ac17aa236e5ef05d6b3b7c>@@$$QEAV<lambda_f7424dd8d45958661754dc4f2697e9c3>@@@Z@4HA 00000001800c5bb8     libucrt:mbctype.obj
 0004:00003bb8       $pdata$?fin$0@?0???$?RV<lambda_72d1df2b273a38828b1ce30cbf4cdab5>@@AEAV<lambda_876a65b173b8412d3a47c70a915b0cf4>@@V<lambda_41932305e351933ebe8f8be3ed8bb5dc>@@@?$__crt_seh_guarded_call@X@@QEAAX$$QEAV<lambda_72d1df2b273a38828b1ce30cbf4cdab5>@@AEAV<lambda_876a65b173b8412d3a47c70a915b0cf4>@@$$QEAV<lambda_41932305e351933ebe8f8be3ed8bb5dc>@@@Z@4HA 00000001800c5bb8     libucrt:per_thread_data.obj
 0004:00003bc4       $pdata$__acrt_lowio_ensure_fh_exists$fin$0 00000001800c5bc4     libucrt:osfinfo.obj
 0004:00003bc4       $pdata$__acrt_initialize_lowio$fin$0 00000001800c5bc4     libucrt:ioinit.obj
 0004:00003bd0       $pdata$_fcloseall$fin$0    00000001800c5bd0     libucrt:closeall.obj
 0004:00003bdc       $pdata$__acrt_update_thread_multibyte_data$fin$0 00000001800c5bdc     libucrt:mbctype.obj
 0004:00003be8       $pdata$__acrt_uninitialize_locale$fin$0 00000001800c5be8     libucrt:wsetlocale.obj
 0004:00003be8       $pdata$__acrt_update_thread_locale_data$fin$0 00000001800c5be8     libucrt:locale_refcounting.obj
 0004:00003bf4       $pdata$fclose$fin$0        00000001800c5bf4     libucrt:fclose.obj
 0004:00003bf4       $pdata$fflush$fin$0        00000001800c5bf4     libucrt:fflush.obj
 0004:00003c00       $pdata$common_control87$filt$0 00000001800c5c00     libucrt:ieee.obj
 0004:00003c00       $pdata$_ctrlfp$filt$0      00000001800c5c00     libucrt:fpctrl.obj
 0004:00003c0c       $pdata$_IsNonwritableInCurrentImage$filt$0 00000001800c5c0c     LIBCMT:pesect.obj
 0005:00000000       __guard_fids__             00000001800c6000     libucrt:initialization.obj
 0005:00000060       __guard_fids___acrt_initialize_ptd 00000001800c6060     libucrt:per_thread_data.obj
 0005:00000064       __guard_fids__             00000001800c6064     libucrt:stdio_initializer.obj
 0005:00000068       __guard_fids__             00000001800c6068     libucrt:stdio_initializer.obj
 0005:0000006c       __guard_fids__             00000001800c606c     libucrt:locale_initializer.obj
 0005:00000070       __guard_fids__             00000001800c6070     libucrt:multibyte_initializer.obj
 0005:00000074       __guard_fids__             00000001800c6074     libucrt:console_output_initializer.obj
 0005:00000078       __guard_fids__             00000001800c6078     libucrt:fma3_initializer.obj
 0005:0000007c       __guard_fids_?dllmain_crt_process_attach@@YAHQEAUHINSTANCE__@@QEAX@Z 00000001800c607c     LIBCMT:dll_dllmain.obj
 0005:00000084       __guard_fids_?dllmain_dispatch@@YAHQEAUHINSTANCE__@@KQEAX@Z 00000001800c6084     LIBCMT:dll_dllmain.obj
 0005:00000088       __guard_fids__             00000001800c6088     LIBCMT:throw_bad_alloc.obj
 0005:00000090       __guard_fids__             00000001800c6090     LIBCMT:throw_bad_alloc.obj
 0005:00000098       __guard_fids__             00000001800c6098     LIBCMT:throw_bad_alloc.obj
 0005:000000a0       __guard_fids__             00000001800c60a0     LIBCMT:std_type_info_static.obj
 0005:000000a4       __guard_fids__             00000001800c60a4     LIBCMT:guard_support.obj
 0005:000000a8       __guard_fids__             00000001800c60a8     libvcruntime:telemetry.obj
 0005:000000ac       __guard_fids_?TraceLoggingRegister@__vcrt_trace_logging_provider@@YAJPEBU_TlgProvider_t@1@PEBU_GUID@@P6AX1KE_K2PEAU_EVENT_FILTER_DESCRIPTOR@@PEAX@Z4@Z 00000001800c60ac     libvcruntime:telemetry.obj
 0005:000000b0       __guard_fids___vcrt_initialize_ptd 00000001800c60b0     libvcruntime:per_thread_data.obj
 0006:00000000       __spec_table               00000001800c7000     LIBCMT:_svml_dcos2_sse2_.obj
 0006:00000980       dbA1                       00000001800c7980     LIBCMT:_svml_dcos2_sse2_.obj
 0006:00000990       dbA2                       00000001800c7990     LIBCMT:_svml_dcos2_sse2_.obj
 0006:000009a0       dbA3                       00000001800c79a0     LIBCMT:_svml_dcos2_sse2_.obj
 0006:000009b0       dbA4                       00000001800c79b0     LIBCMT:_svml_dcos2_sse2_.obj
 0006:000009c0       dbA5                       00000001800c79c0     LIBCMT:_svml_dcos2_sse2_.obj
 0006:000009d0       dbA6                       00000001800c79d0     LIBCMT:_svml_dcos2_sse2_.obj
 0006:000009e0       dbA7                       00000001800c79e0     LIBCMT:_svml_dcos2_sse2_.obj
 0006:000009f0       dbA8                       00000001800c79f0     LIBCMT:_svml_dcos2_sse2_.obj
 0006:00000a00       dbPi4                      00000001800c7a00     LIBCMT:_svml_dcos2_sse2_.obj
 0006:00000a10       dbPi3                      00000001800c7a10     LIBCMT:_svml_dcos2_sse2_.obj
 0006:00000a20       db05                       00000001800c7a20     LIBCMT:_svml_dcos2_sse2_.obj
 0006:00000a30       dbHUGE                     00000001800c7a30     LIBCMT:_svml_dcos2_sse2_.obj
 0006:00000a40       iABSMASK                   00000001800c7a40     LIBCMT:_svml_dcos2_sse2_.obj
 0006:00000a50       dbPi2                      00000001800c7a50     LIBCMT:_svml_dcos2_sse2_.obj
 0006:00000a60       dbInvPi                    00000001800c7a60     LIBCMT:_svml_dcos2_sse2_.obj
 0006:00000a70       dbPi1                      00000001800c7a70     LIBCMT:_svml_dcos2_sse2_.obj
 0006:00000a80       dbNegRS                    00000001800c7a80     LIBCMT:_svml_dcos2_sse2_.obj
 0006:00000a90       dbPio2                     00000001800c7a90     LIBCMT:_svml_dcos2_sse2_.obj
 0006:00000aa0       MMISIGNMASK                00000001800c7aa0     LIBCMT:_svml_dcos2_sse2_.obj
 0006:00000ab0       PI02C_4                    00000001800c7ab0     LIBCMT:_svml_dcos2_sse2_.obj
 0006:00000ac0       PI02C_3                    00000001800c7ac0     LIBCMT:_svml_dcos2_sse2_.obj
 0006:00000ad0       PI02C_2                    00000001800c7ad0     LIBCMT:_svml_dcos2_sse2_.obj
 0006:00000ae0       PI02C_1                    00000001800c7ae0     LIBCMT:_svml_dcos2_sse2_.obj
 0006:00000af0       PI02C_0                    00000001800c7af0     LIBCMT:_svml_dcos2_sse2_.obj
 0006:00000b00       RS                         00000001800c7b00     LIBCMT:_svml_dcos2_sse2_.obj
 0006:00000b10       MMI_ONE                    00000001800c7b10     LIBCMT:_svml_dcos2_sse2_.obj
 0006:00000b20       THE_PI02_INV               00000001800c7b20     LIBCMT:_svml_dcos2_sse2_.obj
 0006:00000b30       flAllOnes                  00000001800c7b30     LIBCMT:_svml_dcos2_sse2_.obj
 0006:00000b40       TWO_POW_30                 00000001800c7b40     LIBCMT:_svml_dcos2_sse2_.obj
 0006:00000c00       BT_Tbl                     00000001800c7c00     LIBCMT:_svml_dlog2_sse2_.obj
 0006:00002d00       dwInf                      00000001800c9d00     LIBCMT:_svml_dlog2_sse2_.obj
 0006:00002d10       s_db1022xLn2               00000001800c9d10     LIBCMT:_svml_dlog2_sse2_.obj
 0006:00002d20       s_db1022xLn2Lo             00000001800c9d20     LIBCMT:_svml_dlog2_sse2_.obj
 0006:00002d30       dbP1                       00000001800c9d30     LIBCMT:_svml_dlog2_sse2_.obj
 0006:00002d40       dbP2                       00000001800c9d40     LIBCMT:_svml_dlog2_sse2_.obj
 0006:00002d50       dbP3                       00000001800c9d50     LIBCMT:_svml_dlog2_sse2_.obj
 0006:00002d60       dbP4                       00000001800c9d60     LIBCMT:_svml_dlog2_sse2_.obj
 0006:00002d70       dbP5                       00000001800c9d70     LIBCMT:_svml_dlog2_sse2_.obj
 0006:00002d80       dbOne                      00000001800c9d80     LIBCMT:_svml_dlog2_sse2_.obj
 0006:00002d90       dbZero                     00000001800c9d90     LIBCMT:_svml_dlog2_sse2_.obj
 0006:00002da0       dbLog2Lo                   00000001800c9da0     LIBCMT:_svml_dlog2_sse2_.obj
 0006:00002db0       iBias                      00000001800c9db0     LIBCMT:_svml_dlog2_sse2_.obj
 0006:00002dc0       iHi43Bits                  00000001800c9dc0     LIBCMT:_svml_dlog2_sse2_.obj
 0006:00002dd0       dbLog2Hi                   00000001800c9dd0     LIBCMT:_svml_dlog2_sse2_.obj
 0006:00002de0       iExpMask                   00000001800c9de0     LIBCMT:_svml_dlog2_sse2_.obj
 0006:00002df0       i001fffff                  00000001800c9df0     LIBCMT:_svml_dlog2_sse2_.obj
 0006:00002e00       i00100000                  00000001800c9e00     LIBCMT:_svml_dlog2_sse2_.obj
 0006:00002f00       INF_c_2044_0_4             00000001800c9f00     LIBCMT:_svml_dpow2_sse2_.obj
 0006:00002f10       QNaN_c_2044_0_4            00000001800c9f10     LIBCMT:_svml_dpow2_sse2_.obj
 0007:00000060       $R000000                   00000001800ca060     * linker generated manifest res *

 Exports

  ordinal    name

        1    ??0Allocator@ArrayBuffer@v8@@QEAA@AEBV012@@Z (public: __cdecl v8::ArrayBuffer::Allocator::Allocator(class v8::ArrayBuffer::Allocator const &))
        2    ??0Allocator@ArrayBuffer@v8@@QEAA@XZ (public: __cdecl v8::ArrayBuffer::Allocator::Allocator(void))
        3    ??0CachedData@ScriptCompiler@v8@@QEAA@XZ (public: __cdecl v8::ScriptCompiler::CachedData::CachedData(void))
        4    ??0Contents@ArrayBuffer@v8@@QEAA@XZ (public: __cdecl v8::ArrayBuffer::Contents::Contents(void))
        5    ??0Contents@SharedArrayBuffer@v8@@QEAA@XZ (public: __cdecl v8::SharedArrayBuffer::Contents::Contents(void))
        6    ??0ExtensionConfiguration@v8@@QEAA@HQEAPEBD@Z (public: __cdecl v8::ExtensionConfiguration::ExtensionConfiguration(int,char const * * const))
        7    ??0ExtensionConfiguration@v8@@QEAA@XZ (public: __cdecl v8::ExtensionConfiguration::ExtensionConfiguration(void))
        8    ??0ExternalOneByteStringResource@String@v8@@IEAA@XZ (protected: __cdecl v8::String::ExternalOneByteStringResource::ExternalOneByteStringResource(void))
        9    ??0ExternalOneByteStringResourceImpl@v8@@QEAA@PEBD_K@Z (public: __cdecl v8::ExternalOneByteStringResourceImpl::ExternalOneByteStringResourceImpl(char const *,unsigned __int64))
       10    ??0ExternalOneByteStringResourceImpl@v8@@QEAA@XZ (public: __cdecl v8::ExternalOneByteStringResourceImpl::ExternalOneByteStringResourceImpl(void))
       11    ??0ExternalResourceVisitor@v8@@QEAA@AEBV01@@Z (public: __cdecl v8::ExternalResourceVisitor::ExternalResourceVisitor(class v8::ExternalResourceVisitor const &))
       12    ??0ExternalResourceVisitor@v8@@QEAA@XZ (public: __cdecl v8::ExternalResourceVisitor::ExternalResourceVisitor(void))
       13    ??0ExternalSourceStream@ScriptCompiler@v8@@QEAA@AEBV012@@Z (public: __cdecl v8::ScriptCompiler::ExternalSourceStream::ExternalSourceStream(class v8::ScriptCompiler::ExternalSourceStream const &))
       14    ??0ExternalSourceStream@ScriptCompiler@v8@@QEAA@XZ (public: __cdecl v8::ScriptCompiler::ExternalSourceStream::ExternalSourceStream(void))
       15    ??0ExternalStringResource@String@v8@@IEAA@XZ (protected: __cdecl v8::String::ExternalStringResource::ExternalStringResource(void))
       16    ??0ExternalStringResourceBase@String@v8@@IEAA@XZ (protected: __cdecl v8::String::ExternalStringResourceBase::ExternalStringResourceBase(void))
       17    ??0HandleScope@v8@@IEAA@XZ (protected: __cdecl v8::HandleScope::HandleScope(void))
       18    ??0Locker@v8@@QEAA@PEAVIsolate@1@@Z (public: __cdecl v8::Locker::Locker(class v8::Isolate *))
       19    ??0PersistentHandleVisitor@v8@@QEAA@AEBV01@@Z (public: __cdecl v8::PersistentHandleVisitor::PersistentHandleVisitor(class v8::PersistentHandleVisitor const &))
       20    ??0PersistentHandleVisitor@v8@@QEAA@XZ (public: __cdecl v8::PersistentHandleVisitor::PersistentHandleVisitor(void))
       21    ??0Scope@Isolate@v8@@QEAA@PEAV12@@Z (public: __cdecl v8::Isolate::Scope::Scope(class v8::Isolate *))
       22    ??0Unlocker@v8@@QEAA@PEAVIsolate@1@@Z (public: __cdecl v8::Unlocker::Unlocker(class v8::Isolate *))
       23    ??1Allocator@ArrayBuffer@v8@@UEAA@XZ (public: virtual __cdecl v8::ArrayBuffer::Allocator::~Allocator(void))
       24    ??1EscapableHandleScope@v8@@QEAA@XZ (public: __cdecl v8::EscapableHandleScope::~EscapableHandleScope(void))
       25    ??1Extension@v8@@UEAA@XZ (public: virtual __cdecl v8::Extension::~Extension(void))
       26    ??1ExternalOneByteStringResource@String@v8@@UEAA@XZ (public: virtual __cdecl v8::String::ExternalOneByteStringResource::~ExternalOneByteStringResource(void))
       27    ??1ExternalOneByteStringResourceImpl@v8@@UEAA@XZ (public: virtual __cdecl v8::ExternalOneByteStringResourceImpl::~ExternalOneByteStringResourceImpl(void))
       28    ??1ExternalResourceVisitor@v8@@UEAA@XZ (public: virtual __cdecl v8::ExternalResourceVisitor::~ExternalResourceVisitor(void))
       29    ??1ExternalSourceStream@ScriptCompiler@v8@@UEAA@XZ (public: virtual __cdecl v8::ScriptCompiler::ExternalSourceStream::~ExternalSourceStream(void))
       30    ??1ExternalStringResource@String@v8@@UEAA@XZ (public: virtual __cdecl v8::String::ExternalStringResource::~ExternalStringResource(void))
       31    ??1ExternalStringResourceBase@String@v8@@UEAA@XZ (public: virtual __cdecl v8::String::ExternalStringResourceBase::~ExternalStringResourceBase(void))
       32    ??1PersistentHandleVisitor@v8@@UEAA@XZ (public: virtual __cdecl v8::PersistentHandleVisitor::~PersistentHandleVisitor(void))
       33    ??1Scope@Isolate@v8@@QEAA@XZ (public: __cdecl v8::Isolate::Scope::~Scope(void))
       34    ??4AccessorSignature@v8@@QEAAAEAV01@$$QEAV01@@Z (public: class v8::AccessorSignature & __cdecl v8::AccessorSignature::operator=(class v8::AccessorSignature &&))
       35    ??4AccessorSignature@v8@@QEAAAEAV01@AEBV01@@Z (public: class v8::AccessorSignature & __cdecl v8::AccessorSignature::operator=(class v8::AccessorSignature const &))
       36    ??4Allocator@ArrayBuffer@v8@@QEAAAEAV012@AEBV012@@Z (public: class v8::ArrayBuffer::Allocator & __cdecl v8::ArrayBuffer::Allocator::operator=(class v8::ArrayBuffer::Allocator const &))
       37    ??4Array@v8@@QEAAAEAV01@$$QEAV01@@Z (public: class v8::Array & __cdecl v8::Array::operator=(class v8::Array &&))
       38    ??4Array@v8@@QEAAAEAV01@AEBV01@@Z (public: class v8::Array & __cdecl v8::Array::operator=(class v8::Array const &))
       39    ??4ArrayBuffer@v8@@QEAAAEAV01@$$QEAV01@@Z (public: class v8::ArrayBuffer & __cdecl v8::ArrayBuffer::operator=(class v8::ArrayBuffer &&))
       40    ??4ArrayBuffer@v8@@QEAAAEAV01@AEBV01@@Z (public: class v8::ArrayBuffer & __cdecl v8::ArrayBuffer::operator=(class v8::ArrayBuffer const &))
       41    ??4ArrayBufferView@v8@@QEAAAEAV01@$$QEAV01@@Z (public: class v8::ArrayBufferView & __cdecl v8::ArrayBufferView::operator=(class v8::ArrayBufferView &&))
       42    ??4ArrayBufferView@v8@@QEAAAEAV01@AEBV01@@Z (public: class v8::ArrayBufferView & __cdecl v8::ArrayBufferView::operator=(class v8::ArrayBufferView const &))
       43    ??4Boolean@v8@@QEAAAEAV01@$$QEAV01@@Z (public: class v8::Boolean & __cdecl v8::Boolean::operator=(class v8::Boolean &&))
       44    ??4Boolean@v8@@QEAAAEAV01@AEBV01@@Z (public: class v8::Boolean & __cdecl v8::Boolean::operator=(class v8::Boolean const &))
       45    ??4BooleanObject@v8@@QEAAAEAV01@$$QEAV01@@Z (public: class v8::BooleanObject & __cdecl v8::BooleanObject::operator=(class v8::BooleanObject &&))
       46    ??4BooleanObject@v8@@QEAAAEAV01@AEBV01@@Z (public: class v8::BooleanObject & __cdecl v8::BooleanObject::operator=(class v8::BooleanObject const &))
       47    ??4Contents@ArrayBuffer@v8@@QEAAAEAV012@$$QEAV012@@Z (public: class v8::ArrayBuffer::Contents & __cdecl v8::ArrayBuffer::Contents::operator=(class v8::ArrayBuffer::Contents &&))
       48    ??4Contents@ArrayBuffer@v8@@QEAAAEAV012@AEBV012@@Z (public: class v8::ArrayBuffer::Contents & __cdecl v8::ArrayBuffer::Contents::operator=(class v8::ArrayBuffer::Contents const &))
       49    ??4Contents@SharedArrayBuffer@v8@@QEAAAEAV012@$$QEAV012@@Z (public: class v8::SharedArrayBuffer::Contents & __cdecl v8::SharedArrayBuffer::Contents::operator=(class v8::SharedArrayBuffer::Contents &&))
       50    ??4Contents@SharedArrayBuffer@v8@@QEAAAEAV012@AEBV012@@Z (public: class v8::SharedArrayBuffer::Contents & __cdecl v8::SharedArrayBuffer::Contents::operator=(class v8::SharedArrayBuffer::Contents const &))
       51    ??4Context@v8@@QEAAAEAV01@$$QEAV01@@Z (public: class v8::Context & __cdecl v8::Context::operator=(class v8::Context &&))
       52    ??4Context@v8@@QEAAAEAV01@AEBV01@@Z (public: class v8::Context & __cdecl v8::Context::operator=(class v8::Context const &))
       53    ??4Data@v8@@QEAAAEAV01@$$QEAV01@@Z (public: class v8::Data & __cdecl v8::Data::operator=(class v8::Data &&))
       54    ??4Data@v8@@QEAAAEAV01@AEBV01@@Z (public: class v8::Data & __cdecl v8::Data::operator=(class v8::Data const &))
       55    ??4DataView@v8@@QEAAAEAV01@$$QEAV01@@Z (public: class v8::DataView & __cdecl v8::DataView::operator=(class v8::DataView &&))
       56    ??4DataView@v8@@QEAAAEAV01@AEBV01@@Z (public: class v8::DataView & __cdecl v8::DataView::operator=(class v8::DataView const &))
       57    ??4Date@v8@@QEAAAEAV01@$$QEAV01@@Z (public: class v8::Date & __cdecl v8::Date::operator=(class v8::Date &&))
       58    ??4Date@v8@@QEAAAEAV01@AEBV01@@Z (public: class v8::Date & __cdecl v8::Date::operator=(class v8::Date const &))
       59    ??4Exception@v8@@QEAAAEAV01@$$QEAV01@@Z (public: class v8::Exception & __cdecl v8::Exception::operator=(class v8::Exception &&))
       60    ??4Exception@v8@@QEAAAEAV01@AEBV01@@Z (public: class v8::Exception & __cdecl v8::Exception::operator=(class v8::Exception const &))
       61    ??4External@v8@@QEAAAEAV01@$$QEAV01@@Z (public: class v8::External & __cdecl v8::External::operator=(class v8::External &&))
       62    ??4External@v8@@QEAAAEAV01@AEBV01@@Z (public: class v8::External & __cdecl v8::External::operator=(class v8::External const &))
       63    ??4ExternalResourceVisitor@v8@@QEAAAEAV01@AEBV01@@Z (public: class v8::ExternalResourceVisitor & __cdecl v8::ExternalResourceVisitor::operator=(class v8::ExternalResourceVisitor const &))
       64    ??4ExternalSourceStream@ScriptCompiler@v8@@QEAAAEAV012@AEBV012@@Z (public: class v8::ScriptCompiler::ExternalSourceStream & __cdecl v8::ScriptCompiler::ExternalSourceStream::operator=(class v8::ScriptCompiler::ExternalSourceStream const &))
       65    ??4Float32Array@v8@@QEAAAEAV01@$$QEAV01@@Z (public: class v8::Float32Array & __cdecl v8::Float32Array::operator=(class v8::Float32Array &&))
       66    ??4Float32Array@v8@@QEAAAEAV01@AEBV01@@Z (public: class v8::Float32Array & __cdecl v8::Float32Array::operator=(class v8::Float32Array const &))
       67    ??4Float64Array@v8@@QEAAAEAV01@$$QEAV01@@Z (public: class v8::Float64Array & __cdecl v8::Float64Array::operator=(class v8::Float64Array &&))
       68    ??4Float64Array@v8@@QEAAAEAV01@AEBV01@@Z (public: class v8::Float64Array & __cdecl v8::Float64Array::operator=(class v8::Float64Array const &))
       69    ??4Function@v8@@QEAAAEAV01@$$QEAV01@@Z (public: class v8::Function & __cdecl v8::Function::operator=(class v8::Function &&))
       70    ??4Function@v8@@QEAAAEAV01@AEBV01@@Z (public: class v8::Function & __cdecl v8::Function::operator=(class v8::Function const &))
       71    ??4FunctionTemplate@v8@@QEAAAEAV01@$$QEAV01@@Z (public: class v8::FunctionTemplate & __cdecl v8::FunctionTemplate::operator=(class v8::FunctionTemplate &&))
       72    ??4FunctionTemplate@v8@@QEAAAEAV01@AEBV01@@Z (public: class v8::FunctionTemplate & __cdecl v8::FunctionTemplate::operator=(class v8::FunctionTemplate const &))
       73    ??4HeapObjectStatistics@v8@@QEAAAEAV01@$$QEAV01@@Z (public: class v8::HeapObjectStatistics & __cdecl v8::HeapObjectStatistics::operator=(class v8::HeapObjectStatistics &&))
       74    ??4HeapObjectStatistics@v8@@QEAAAEAV01@AEBV01@@Z (public: class v8::HeapObjectStatistics & __cdecl v8::HeapObjectStatistics::operator=(class v8::HeapObjectStatistics const &))
       75    ??4HeapSpaceStatistics@v8@@QEAAAEAV01@$$QEAV01@@Z (public: class v8::HeapSpaceStatistics & __cdecl v8::HeapSpaceStatistics::operator=(class v8::HeapSpaceStatistics &&))
       76    ??4HeapSpaceStatistics@v8@@QEAAAEAV01@AEBV01@@Z (public: class v8::HeapSpaceStatistics & __cdecl v8::HeapSpaceStatistics::operator=(class v8::HeapSpaceStatistics const &))
       77    ??4HeapStatistics@v8@@QEAAAEAV01@$$QEAV01@@Z (public: class v8::HeapStatistics & __cdecl v8::HeapStatistics::operator=(class v8::HeapStatistics &&))
       78    ??4HeapStatistics@v8@@QEAAAEAV01@AEBV01@@Z (public: class v8::HeapStatistics & __cdecl v8::HeapStatistics::operator=(class v8::HeapStatistics const &))
       79    ??4Int16Array@v8@@QEAAAEAV01@$$QEAV01@@Z (public: class v8::Int16Array & __cdecl v8::Int16Array::operator=(class v8::Int16Array &&))
       80    ??4Int16Array@v8@@QEAAAEAV01@AEBV01@@Z (public: class v8::Int16Array & __cdecl v8::Int16Array::operator=(class v8::Int16Array const &))
       81    ??4Int32@v8@@QEAAAEAV01@$$QEAV01@@Z (public: class v8::Int32 & __cdecl v8::Int32::operator=(class v8::Int32 &&))
       82    ??4Int32@v8@@QEAAAEAV01@AEBV01@@Z (public: class v8::Int32 & __cdecl v8::Int32::operator=(class v8::Int32 const &))
       83    ??4Int32Array@v8@@QEAAAEAV01@$$QEAV01@@Z (public: class v8::Int32Array & __cdecl v8::Int32Array::operator=(class v8::Int32Array &&))
       84    ??4Int32Array@v8@@QEAAAEAV01@AEBV01@@Z (public: class v8::Int32Array & __cdecl v8::Int32Array::operator=(class v8::Int32Array const &))
       85    ??4Int8Array@v8@@QEAAAEAV01@$$QEAV01@@Z (public: class v8::Int8Array & __cdecl v8::Int8Array::operator=(class v8::Int8Array &&))
       86    ??4Int8Array@v8@@QEAAAEAV01@AEBV01@@Z (public: class v8::Int8Array & __cdecl v8::Int8Array::operator=(class v8::Int8Array const &))
       87    ??4Integer@v8@@QEAAAEAV01@$$QEAV01@@Z (public: class v8::Integer & __cdecl v8::Integer::operator=(class v8::Integer &&))
       88    ??4Integer@v8@@QEAAAEAV01@AEBV01@@Z (public: class v8::Integer & __cdecl v8::Integer::operator=(class v8::Integer const &))
       89    ??4JSON@v8@@QEAAAEAV01@$$QEAV01@@Z (public: class v8::JSON & __cdecl v8::JSON::operator=(class v8::JSON &&))
       90    ??4JSON@v8@@QEAAAEAV01@AEBV01@@Z (public: class v8::JSON & __cdecl v8::JSON::operator=(class v8::JSON const &))
       91    ??4Map@v8@@QEAAAEAV01@$$QEAV01@@Z (public: class v8::Map & __cdecl v8::Map::operator=(class v8::Map &&))
       92    ??4Map@v8@@QEAAAEAV01@AEBV01@@Z (public: class v8::Map & __cdecl v8::Map::operator=(class v8::Map const &))
       93    ??4Message@v8@@QEAAAEAV01@$$QEAV01@@Z (public: class v8::Message & __cdecl v8::Message::operator=(class v8::Message &&))
       94    ??4Message@v8@@QEAAAEAV01@AEBV01@@Z (public: class v8::Message & __cdecl v8::Message::operator=(class v8::Message const &))
       95    ??4Name@v8@@QEAAAEAV01@$$QEAV01@@Z (public: class v8::Name & __cdecl v8::Name::operator=(class v8::Name &&))
       96    ??4Name@v8@@QEAAAEAV01@AEBV01@@Z (public: class v8::Name & __cdecl v8::Name::operator=(class v8::Name const &))
       97    ??4NativeWeakMap@v8@@QEAAAEAV01@$$QEAV01@@Z (public: class v8::NativeWeakMap & __cdecl v8::NativeWeakMap::operator=(class v8::NativeWeakMap &&))
       98    ??4NativeWeakMap@v8@@QEAAAEAV01@AEBV01@@Z (public: class v8::NativeWeakMap & __cdecl v8::NativeWeakMap::operator=(class v8::NativeWeakMap const &))
       99    ??4Number@v8@@QEAAAEAV01@$$QEAV01@@Z (public: class v8::Number & __cdecl v8::Number::operator=(class v8::Number &&))
      100    ??4Number@v8@@QEAAAEAV01@AEBV01@@Z (public: class v8::Number & __cdecl v8::Number::operator=(class v8::Number const &))
      101    ??4NumberObject@v8@@QEAAAEAV01@$$QEAV01@@Z (public: class v8::NumberObject & __cdecl v8::NumberObject::operator=(class v8::NumberObject &&))
      102    ??4NumberObject@v8@@QEAAAEAV01@AEBV01@@Z (public: class v8::NumberObject & __cdecl v8::NumberObject::operator=(class v8::NumberObject const &))
      103    ??4Object@v8@@QEAAAEAV01@$$QEAV01@@Z (public: class v8::Object & __cdecl v8::Object::operator=(class v8::Object &&))
      104    ??4Object@v8@@QEAAAEAV01@AEBV01@@Z (public: class v8::Object & __cdecl v8::Object::operator=(class v8::Object const &))
      105    ??4ObjectTemplate@v8@@QEAAAEAV01@$$QEAV01@@Z (public: class v8::ObjectTemplate & __cdecl v8::ObjectTemplate::operator=(class v8::ObjectTemplate &&))
      106    ??4ObjectTemplate@v8@@QEAAAEAV01@AEBV01@@Z (public: class v8::ObjectTemplate & __cdecl v8::ObjectTemplate::operator=(class v8::ObjectTemplate const &))
      107    ??4PersistentHandleVisitor@v8@@QEAAAEAV01@AEBV01@@Z (public: class v8::PersistentHandleVisitor & __cdecl v8::PersistentHandleVisitor::operator=(class v8::PersistentHandleVisitor const &))
      108    ??4Primitive@v8@@QEAAAEAV01@$$QEAV01@@Z (public: class v8::Primitive & __cdecl v8::Primitive::operator=(class v8::Primitive &&))
      109    ??4Primitive@v8@@QEAAAEAV01@AEBV01@@Z (public: class v8::Primitive & __cdecl v8::Primitive::operator=(class v8::Primitive const &))
      110    ??4Promise@v8@@QEAAAEAV01@$$QEAV01@@Z (public: class v8::Promise & __cdecl v8::Promise::operator=(class v8::Promise &&))
      111    ??4Promise@v8@@QEAAAEAV01@AEBV01@@Z (public: class v8::Promise & __cdecl v8::Promise::operator=(class v8::Promise const &))
      112    ??4RegExp@v8@@QEAAAEAV01@$$QEAV01@@Z (public: class v8::RegExp & __cdecl v8::RegExp::operator=(class v8::RegExp &&))
      113    ??4RegExp@v8@@QEAAAEAV01@AEBV01@@Z (public: class v8::RegExp & __cdecl v8::RegExp::operator=(class v8::RegExp const &))
      114    ??4Resolver@Promise@v8@@QEAAAEAV012@$$QEAV012@@Z (public: class v8::Promise::Resolver & __cdecl v8::Promise::Resolver::operator=(class v8::Promise::Resolver &&))
      115    ??4Resolver@Promise@v8@@QEAAAEAV012@AEBV012@@Z (public: class v8::Promise::Resolver & __cdecl v8::Promise::Resolver::operator=(class v8::Promise::Resolver const &))
      116    ??4ResourceConstraints@v8@@QEAAAEAV01@$$QEAV01@@Z (public: class v8::ResourceConstraints & __cdecl v8::ResourceConstraints::operator=(class v8::ResourceConstraints &&))
      117    ??4ResourceConstraints@v8@@QEAAAEAV01@AEBV01@@Z (public: class v8::ResourceConstraints & __cdecl v8::ResourceConstraints::operator=(class v8::ResourceConstraints const &))
      118    ??4Script@v8@@QEAAAEAV01@$$QEAV01@@Z (public: class v8::Script & __cdecl v8::Script::operator=(class v8::Script &&))
      119    ??4Script@v8@@QEAAAEAV01@AEBV01@@Z (public: class v8::Script & __cdecl v8::Script::operator=(class v8::Script const &))
      120    ??4ScriptCompiler@v8@@QEAAAEAV01@$$QEAV01@@Z (public: class v8::ScriptCompiler & __cdecl v8::ScriptCompiler::operator=(class v8::ScriptCompiler &&))
      121    ??4ScriptCompiler@v8@@QEAAAEAV01@AEBV01@@Z (public: class v8::ScriptCompiler & __cdecl v8::ScriptCompiler::operator=(class v8::ScriptCompiler const &))
      122    ??4Set@v8@@QEAAAEAV01@$$QEAV01@@Z (public: class v8::Set & __cdecl v8::Set::operator=(class v8::Set &&))
      123    ??4Set@v8@@QEAAAEAV01@AEBV01@@Z (public: class v8::Set & __cdecl v8::Set::operator=(class v8::Set const &))
      124    ??4SharedArrayBuffer@v8@@QEAAAEAV01@$$QEAV01@@Z (public: class v8::SharedArrayBuffer & __cdecl v8::SharedArrayBuffer::operator=(class v8::SharedArrayBuffer &&))
      125    ??4SharedArrayBuffer@v8@@QEAAAEAV01@AEBV01@@Z (public: class v8::SharedArrayBuffer & __cdecl v8::SharedArrayBuffer::operator=(class v8::SharedArrayBuffer const &))
      126    ??4Signature@v8@@QEAAAEAV01@$$QEAV01@@Z (public: class v8::Signature & __cdecl v8::Signature::operator=(class v8::Signature &&))
      127    ??4Signature@v8@@QEAAAEAV01@AEBV01@@Z (public: class v8::Signature & __cdecl v8::Signature::operator=(class v8::Signature const &))
      128    ??4StackFrame@v8@@QEAAAEAV01@$$QEAV01@@Z (public: class v8::StackFrame & __cdecl v8::StackFrame::operator=(class v8::StackFrame &&))
      129    ??4StackFrame@v8@@QEAAAEAV01@AEBV01@@Z (public: class v8::StackFrame & __cdecl v8::StackFrame::operator=(class v8::StackFrame const &))
      130    ??4StackTrace@v8@@QEAAAEAV01@$$QEAV01@@Z (public: class v8::StackTrace & __cdecl v8::StackTrace::operator=(class v8::StackTrace &&))
      131    ??4StackTrace@v8@@QEAAAEAV01@AEBV01@@Z (public: class v8::StackTrace & __cdecl v8::StackTrace::operator=(class v8::StackTrace const &))
      132    ??4StartupData@v8@@QEAAAEAV01@$$QEAV01@@Z (public: class v8::StartupData & __cdecl v8::StartupData::operator=(class v8::StartupData &&))
      133    ??4StartupData@v8@@QEAAAEAV01@AEBV01@@Z (public: class v8::StartupData & __cdecl v8::StartupData::operator=(class v8::StartupData const &))
      134    ??4String@v8@@QEAAAEAV01@$$QEAV01@@Z (public: class v8::String & __cdecl v8::String::operator=(class v8::String &&))
      135    ??4String@v8@@QEAAAEAV01@AEBV01@@Z (public: class v8::String & __cdecl v8::String::operator=(class v8::String const &))
      136    ??4StringObject@v8@@QEAAAEAV01@$$QEAV01@@Z (public: class v8::StringObject & __cdecl v8::StringObject::operator=(class v8::StringObject &&))
      137    ??4StringObject@v8@@QEAAAEAV01@AEBV01@@Z (public: class v8::StringObject & __cdecl v8::StringObject::operator=(class v8::StringObject const &))
      138    ??4Symbol@v8@@QEAAAEAV01@$$QEAV01@@Z (public: class v8::Symbol & __cdecl v8::Symbol::operator=(class v8::Symbol &&))
      139    ??4Symbol@v8@@QEAAAEAV01@AEBV01@@Z (public: class v8::Symbol & __cdecl v8::Symbol::operator=(class v8::Symbol const &))
      140    ??4SymbolObject@v8@@QEAAAEAV01@$$QEAV01@@Z (public: class v8::SymbolObject & __cdecl v8::SymbolObject::operator=(class v8::SymbolObject &&))
      141    ??4SymbolObject@v8@@QEAAAEAV01@AEBV01@@Z (public: class v8::SymbolObject & __cdecl v8::SymbolObject::operator=(class v8::SymbolObject const &))
      142    ??4Template@v8@@QEAAAEAV01@$$QEAV01@@Z (public: class v8::Template & __cdecl v8::Template::operator=(class v8::Template &&))
      143    ??4Template@v8@@QEAAAEAV01@AEBV01@@Z (public: class v8::Template & __cdecl v8::Template::operator=(class v8::Template const &))
      144    ??4TypeSwitch@v8@@QEAAAEAV01@$$QEAV01@@Z (public: class v8::TypeSwitch & __cdecl v8::TypeSwitch::operator=(class v8::TypeSwitch &&))
      145    ??4TypeSwitch@v8@@QEAAAEAV01@AEBV01@@Z (public: class v8::TypeSwitch & __cdecl v8::TypeSwitch::operator=(class v8::TypeSwitch const &))
      146    ??4TypedArray@v8@@QEAAAEAV01@$$QEAV01@@Z (public: class v8::TypedArray & __cdecl v8::TypedArray::operator=(class v8::TypedArray &&))
      147    ??4TypedArray@v8@@QEAAAEAV01@AEBV01@@Z (public: class v8::TypedArray & __cdecl v8::TypedArray::operator=(class v8::TypedArray const &))
      148    ??4Uint16Array@v8@@QEAAAEAV01@$$QEAV01@@Z (public: class v8::Uint16Array & __cdecl v8::Uint16Array::operator=(class v8::Uint16Array &&))
      149    ??4Uint16Array@v8@@QEAAAEAV01@AEBV01@@Z (public: class v8::Uint16Array & __cdecl v8::Uint16Array::operator=(class v8::Uint16Array const &))
      150    ??4Uint32@v8@@QEAAAEAV01@$$QEAV01@@Z (public: class v8::Uint32 & __cdecl v8::Uint32::operator=(class v8::Uint32 &&))
      151    ??4Uint32@v8@@QEAAAEAV01@AEBV01@@Z (public: class v8::Uint32 & __cdecl v8::Uint32::operator=(class v8::Uint32 const &))
      152    ??4Uint32Array@v8@@QEAAAEAV01@$$QEAV01@@Z (public: class v8::Uint32Array & __cdecl v8::Uint32Array::operator=(class v8::Uint32Array &&))
      153    ??4Uint32Array@v8@@QEAAAEAV01@AEBV01@@Z (public: class v8::Uint32Array & __cdecl v8::Uint32Array::operator=(class v8::Uint32Array const &))
      154    ??4Uint8Array@v8@@QEAAAEAV01@$$QEAV01@@Z (public: class v8::Uint8Array & __cdecl v8::Uint8Array::operator=(class v8::Uint8Array &&))
      155    ??4Uint8Array@v8@@QEAAAEAV01@AEBV01@@Z (public: class v8::Uint8Array & __cdecl v8::Uint8Array::operator=(class v8::Uint8Array const &))
      156    ??4Uint8ClampedArray@v8@@QEAAAEAV01@$$QEAV01@@Z (public: class v8::Uint8ClampedArray & __cdecl v8::Uint8ClampedArray::operator=(class v8::Uint8ClampedArray &&))
      157    ??4Uint8ClampedArray@v8@@QEAAAEAV01@AEBV01@@Z (public: class v8::Uint8ClampedArray & __cdecl v8::Uint8ClampedArray::operator=(class v8::Uint8ClampedArray const &))
      158    ??4UnboundScript@v8@@QEAAAEAV01@$$QEAV01@@Z (public: class v8::UnboundScript & __cdecl v8::UnboundScript::operator=(class v8::UnboundScript &&))
      159    ??4UnboundScript@v8@@QEAAAEAV01@AEBV01@@Z (public: class v8::UnboundScript & __cdecl v8::UnboundScript::operator=(class v8::UnboundScript const &))
      160    ??4Unlocker@v8@@QEAAAEAV01@AEBV01@@Z (public: class v8::Unlocker & __cdecl v8::Unlocker::operator=(class v8::Unlocker const &))
      161    ??4V8@v8@@QEAAAEAV01@$$QEAV01@@Z (public: class v8::V8 & __cdecl v8::V8::operator=(class v8::V8 &&))
      162    ??4V8@v8@@QEAAAEAV01@AEBV01@@Z (public: class v8::V8 & __cdecl v8::V8::operator=(class v8::V8 const &))
      163    ??4Value@v8@@QEAAAEAV01@$$QEAV01@@Z (public: class v8::Value & __cdecl v8::Value::operator=(class v8::Value &&))
      164    ??4Value@v8@@QEAAAEAV01@AEBV01@@Z (public: class v8::Value & __cdecl v8::Value::operator=(class v8::Value const &))
      165    ??DUtf8Value@String@v8@@QEAAPEADXZ (public: char * __cdecl v8::String::Utf8Value::operator*(void))
      166    ??DUtf8Value@String@v8@@QEBAPEBDXZ (public: char const * __cdecl v8::String::Utf8Value::operator*(void)const )
      167    ??DValue@String@v8@@QEAAPEAGXZ (public: unsigned short * __cdecl v8::String::Value::operator*(void))
      168    ??DValue@String@v8@@QEBAPEBGXZ (public: unsigned short const * __cdecl v8::String::Value::operator*(void)const )
      169    ??_7Allocator@ArrayBuffer@v8@@6B@ (const v8::ArrayBuffer::Allocator::`vftable')
      170    ??_7Extension@v8@@6B@ (const v8::Extension::`vftable')
      171    ??_7ExternalOneByteStringResource@String@v8@@6B@ (const v8::String::ExternalOneByteStringResource::`vftable')
      172    ??_7ExternalOneByteStringResourceImpl@v8@@6B@ (const v8::ExternalOneByteStringResourceImpl::`vftable')
      173    ??_7ExternalResourceVisitor@v8@@6B@ (const v8::ExternalResourceVisitor::`vftable')
      174    ??_7ExternalSourceStream@ScriptCompiler@v8@@6B@ (const v8::ScriptCompiler::ExternalSourceStream::`vftable')
      175    ??_7ExternalStringResource@String@v8@@6B@ (const v8::String::ExternalStringResource::`vftable')
      176    ??_7ExternalStringResourceBase@String@v8@@6B@ (const v8::String::ExternalStringResourceBase::`vftable')
      177    ??_7PersistentHandleVisitor@v8@@6B@ (const v8::PersistentHandleVisitor::`vftable')
      178    ?AddMemoryAllocationCallback@V8@v8@@SAXP6AXW4ObjectSpace@2@W4AllocationAction@2@H@Z01@Z (public: static void __cdecl v8::V8::AddMemoryAllocationCallback(void (__cdecl*)(enum v8::ObjectSpace,enum v8::AllocationAction,int),enum v8::ObjectSpace,enum v8::AllocationAction))
      179    ?AddMessageListener@V8@v8@@SA_NP6AXV?$Local@VMessage@v8@@@2@V?$Local@VValue@v8@@@2@@Z1@Z (public: static bool __cdecl v8::V8::AddMessageListener(void (__cdecl*)(class v8::Local<class v8::Message>,class v8::Local<class v8::Value>),class v8::Local<class v8::Value>))
      180    ?AdjustAmountOfExternalAllocatedMemory@Isolate@v8@@QEAA_J_J@Z (public: __int64 __cdecl v8::Isolate::AdjustAmountOfExternalAllocatedMemory(__int64))
      181    ?ByteLength@Contents@ArrayBuffer@v8@@QEBA_KXZ (public: unsigned __int64 __cdecl v8::ArrayBuffer::Contents::ByteLength(void)const )
      182    ?ByteLength@Contents@SharedArrayBuffer@v8@@QEBA_KXZ (public: unsigned __int64 __cdecl v8::SharedArrayBuffer::Contents::ByteLength(void)const )
      183    ?CancelTerminateExecution@V8@v8@@SAXPEAVIsolate@2@@Z (public: static void __cdecl v8::V8::CancelTerminateExecution(class v8::Isolate *))
      184    ?Cast@Array@v8@@SAPEAV12@PEAVValue@2@@Z (public: static class v8::Array * __cdecl v8::Array::Cast(class v8::Value *))
      185    ?Cast@ArrayBuffer@v8@@SAPEAV12@PEAVValue@2@@Z (public: static class v8::ArrayBuffer * __cdecl v8::ArrayBuffer::Cast(class v8::Value *))
      186    ?Cast@ArrayBufferView@v8@@SAPEAV12@PEAVValue@2@@Z (public: static class v8::ArrayBufferView * __cdecl v8::ArrayBufferView::Cast(class v8::Value *))
      187    ?Cast@Boolean@v8@@SAPEAV12@PEAVValue@2@@Z (public: static class v8::Boolean * __cdecl v8::Boolean::Cast(class v8::Value *))
      188    ?Cast@BooleanObject@v8@@SAPEAV12@PEAVValue@2@@Z (public: static class v8::BooleanObject * __cdecl v8::BooleanObject::Cast(class v8::Value *))
      189    ?Cast@DataView@v8@@SAPEAV12@PEAVValue@2@@Z (public: static class v8::DataView * __cdecl v8::DataView::Cast(class v8::Value *))
      190    ?Cast@Date@v8@@SAPEAV12@PEAVValue@2@@Z (public: static class v8::Date * __cdecl v8::Date::Cast(class v8::Value *))
      191    ?Cast@External@v8@@SAPEAV12@PEAVValue@2@@Z (public: static class v8::External * __cdecl v8::External::Cast(class v8::Value *))
      192    ?Cast@Float32Array@v8@@SAPEAV12@PEAVValue@2@@Z (public: static class v8::Float32Array * __cdecl v8::Float32Array::Cast(class v8::Value *))
      193    ?Cast@Float64Array@v8@@SAPEAV12@PEAVValue@2@@Z (public: static class v8::Float64Array * __cdecl v8::Float64Array::Cast(class v8::Value *))
      194    ?Cast@Function@v8@@SAPEAV12@PEAVValue@2@@Z (public: static class v8::Function * __cdecl v8::Function::Cast(class v8::Value *))
      195    ?Cast@Int16Array@v8@@SAPEAV12@PEAVValue@2@@Z (public: static class v8::Int16Array * __cdecl v8::Int16Array::Cast(class v8::Value *))
      196    ?Cast@Int32@v8@@SAPEAV12@PEAVValue@2@@Z (public: static class v8::Int32 * __cdecl v8::Int32::Cast(class v8::Value *))
      197    ?Cast@Int32Array@v8@@SAPEAV12@PEAVValue@2@@Z (public: static class v8::Int32Array * __cdecl v8::Int32Array::Cast(class v8::Value *))
      198    ?Cast@Int8Array@v8@@SAPEAV12@PEAVValue@2@@Z (public: static class v8::Int8Array * __cdecl v8::Int8Array::Cast(class v8::Value *))
      199    ?Cast@Integer@v8@@SAPEAV12@PEAVValue@2@@Z (public: static class v8::Integer * __cdecl v8::Integer::Cast(class v8::Value *))
      200    ?Cast@Map@v8@@SAPEAV12@PEAVValue@2@@Z (public: static class v8::Map * __cdecl v8::Map::Cast(class v8::Value *))
      201    ?Cast@Name@v8@@SAPEAV12@PEAVValue@2@@Z (public: static class v8::Name * __cdecl v8::Name::Cast(class v8::Value *))
      202    ?Cast@Number@v8@@SAPEAV12@PEAVValue@2@@Z (public: static class v8::Number * __cdecl v8::Number::Cast(class v8::Value *))
      203    ?Cast@NumberObject@v8@@SAPEAV12@PEAVValue@2@@Z (public: static class v8::NumberObject * __cdecl v8::NumberObject::Cast(class v8::Value *))
      204    ?Cast@Object@v8@@SAPEAV12@PEAVValue@2@@Z (public: static class v8::Object * __cdecl v8::Object::Cast(class v8::Value *))
      205    ?Cast@Promise@v8@@SAPEAV12@PEAVValue@2@@Z (public: static class v8::Promise * __cdecl v8::Promise::Cast(class v8::Value *))
      206    ?Cast@RegExp@v8@@SAPEAV12@PEAVValue@2@@Z (public: static class v8::RegExp * __cdecl v8::RegExp::Cast(class v8::Value *))
      207    ?Cast@Resolver@Promise@v8@@SAPEAV123@PEAVValue@3@@Z (public: static class v8::Promise::Resolver * __cdecl v8::Promise::Resolver::Cast(class v8::Value *))
      208    ?Cast@Set@v8@@SAPEAV12@PEAVValue@2@@Z (public: static class v8::Set * __cdecl v8::Set::Cast(class v8::Value *))
      209    ?Cast@SharedArrayBuffer@v8@@SAPEAV12@PEAVValue@2@@Z (public: static class v8::SharedArrayBuffer * __cdecl v8::SharedArrayBuffer::Cast(class v8::Value *))
      210    ?Cast@String@v8@@SAPEAV12@PEAVValue@2@@Z (public: static class v8::String * __cdecl v8::String::Cast(class v8::Value *))
      211    ?Cast@StringObject@v8@@SAPEAV12@PEAVValue@2@@Z (public: static class v8::StringObject * __cdecl v8::StringObject::Cast(class v8::Value *))
      212    ?Cast@Symbol@v8@@SAPEAV12@PEAVValue@2@@Z (public: static class v8::Symbol * __cdecl v8::Symbol::Cast(class v8::Value *))
      213    ?Cast@SymbolObject@v8@@SAPEAV12@PEAVValue@2@@Z (public: static class v8::SymbolObject * __cdecl v8::SymbolObject::Cast(class v8::Value *))
      214    ?Cast@TypedArray@v8@@SAPEAV12@PEAVValue@2@@Z (public: static class v8::TypedArray * __cdecl v8::TypedArray::Cast(class v8::Value *))
      215    ?Cast@Uint16Array@v8@@SAPEAV12@PEAVValue@2@@Z (public: static class v8::Uint16Array * __cdecl v8::Uint16Array::Cast(class v8::Value *))
      216    ?Cast@Uint32@v8@@SAPEAV12@PEAVValue@2@@Z (public: static class v8::Uint32 * __cdecl v8::Uint32::Cast(class v8::Value *))
      217    ?Cast@Uint32Array@v8@@SAPEAV12@PEAVValue@2@@Z (public: static class v8::Uint32Array * __cdecl v8::Uint32Array::Cast(class v8::Value *))
      218    ?Cast@Uint8Array@v8@@SAPEAV12@PEAVValue@2@@Z (public: static class v8::Uint8Array * __cdecl v8::Uint8Array::Cast(class v8::Value *))
      219    ?Cast@Uint8ClampedArray@v8@@SAPEAV12@PEAVValue@2@@Z (public: static class v8::Uint8ClampedArray * __cdecl v8::Uint8ClampedArray::Cast(class v8::Value *))
      220    ?Data@Contents@ArrayBuffer@v8@@QEBAPEAXXZ (public: void * __cdecl v8::ArrayBuffer::Contents::Data(void)const )
      221    ?Data@Contents@SharedArrayBuffer@v8@@QEBAPEAXXZ (public: void * __cdecl v8::SharedArrayBuffer::Contents::Data(void)const )
      222    ?Dispose@ExternalStringResourceBase@String@v8@@MEAAXXZ (protected: virtual void __cdecl v8::String::ExternalStringResourceBase::Dispose(void))
      223    ?Empty@String@v8@@SA?AV?$Local@VString@v8@@@2@PEAVIsolate@2@@Z (public: static class v8::Local<class v8::String> __cdecl v8::String::Empty(class v8::Isolate *))
      224    ?GetAlignedPointerFromEmbedderData@Context@v8@@QEAAPEAXH@Z (public: void * __cdecl v8::Context::GetAlignedPointerFromEmbedderData(int))
      225    ?GetAlignedPointerFromInternalField@Object@v8@@QEAAPEAXH@Z (public: void * __cdecl v8::Object::GetAlignedPointerFromInternalField(int))
      226    ?GetAlignedPointerFromInternalField@Object@v8@@SAPEAXAEBV?$PersistentBase@VObject@v8@@@2@H@Z (public: static void * __cdecl v8::Object::GetAlignedPointerFromInternalField(class v8::PersistentBase<class v8::Object> const &,int))
      227    ?GetData@Isolate@v8@@QEAAPEAXI@Z (public: void * __cdecl v8::Isolate::GetData(unsigned int))
      228    ?GetEmbedderData@Context@v8@@QEAA?AV?$Local@VValue@v8@@@2@H@Z (public: class v8::Local<class v8::Value> __cdecl v8::Context::GetEmbedderData(int))
      229    ?GetExternalStringResource@String@v8@@QEBAPEAVExternalStringResource@12@XZ (public: class v8::String::ExternalStringResource * __cdecl v8::String::GetExternalStringResource(void)const )
      230    ?GetExternalStringResourceBase@String@v8@@QEBAPEAVExternalStringResourceBase@12@PEAW4Encoding@12@@Z (public: class v8::String::ExternalStringResourceBase * __cdecl v8::String::GetExternalStringResourceBase(enum v8::String::Encoding *)const )
      231    ?GetId@Script@v8@@QEAAHXZ (public: int __cdecl v8::Script::GetId(void))
      232    ?GetInternalField@Object@v8@@QEAA?AV?$Local@VValue@v8@@@2@H@Z (public: class v8::Local<class v8::Value> __cdecl v8::Object::GetInternalField(int))
      233    ?GetIsolate@HandleScope@v8@@QEBAPEAVIsolate@2@XZ (public: class v8::Isolate * __cdecl v8::HandleScope::GetIsolate(void)const )
      234    ?GetNativeFunctionTemplate@Extension@v8@@UEAA?AV?$Local@VFunctionTemplate@v8@@@2@PEAVIsolate@2@V?$Local@VString@v8@@@2@@Z (public: virtual class v8::Local<class v8::FunctionTemplate> __cdecl v8::Extension::GetNativeFunctionTemplate(class v8::Isolate *,class v8::Local<class v8::String>))
      235    ?GetNumberOfDataSlots@Isolate@v8@@SAIXZ (public: static unsigned int __cdecl v8::Isolate::GetNumberOfDataSlots(void))
      236    ?InternalFieldCount@Object@v8@@SAHAEBV?$PersistentBase@VObject@v8@@@2@@Z (public: static int __cdecl v8::Object::InternalFieldCount(class v8::PersistentBase<class v8::Object> const &))
      237    ?IsDead@V8@v8@@SA_NXZ (public: static bool __cdecl v8::V8::IsDead(void))
      238    ?IsExecutionTerminating@V8@v8@@SA_NPEAVIsolate@2@@Z (public: static bool __cdecl v8::V8::IsExecutionTerminating(class v8::Isolate *))
      239    ?IsNull@Value@v8@@QEBA_NXZ (public: bool __cdecl v8::Value::IsNull(void)const )
      240    ?IsString@Value@v8@@QEBA_NXZ (public: bool __cdecl v8::Value::IsString(void)const )
      241    ?IsUndefined@Value@v8@@QEBA_NXZ (public: bool __cdecl v8::Value::IsUndefined(void)const )
      242    ?JSStackComparableAddress@TryCatch@v8@@SAPEAXPEAV12@@Z (public: static void * __cdecl v8::TryCatch::JSStackComparableAddress(class v8::TryCatch *))
      243    ?New@Boolean@v8@@SA?AV?$Local@VBoolean@v8@@@2@PEAVIsolate@2@_N@Z (public: static class v8::Local<class v8::Boolean> __cdecl v8::Boolean::New(class v8::Isolate *,bool))
      244    ?NewInstance@Function@v8@@QEBA?AV?$MaybeLocal@VObject@v8@@@2@V?$Local@VContext@v8@@@2@@Z (public: class v8::MaybeLocal<class v8::Object> __cdecl v8::Function::NewInstance(class v8::Local<class v8::Context>)const )
      245    ?QuickIsNull@Value@v8@@AEBA_NXZ (private: bool __cdecl v8::Value::QuickIsNull(void)const )
      246    ?QuickIsString@Value@v8@@AEBA_NXZ (private: bool __cdecl v8::Value::QuickIsString(void)const )
      247    ?QuickIsUndefined@Value@v8@@AEBA_NXZ (private: bool __cdecl v8::Value::QuickIsUndefined(void)const )
      248    ?RemoveGCEpilogueCallback@V8@v8@@SAXP6AXW4GCType@2@W4GCCallbackFlags@2@@Z@Z (public: static void __cdecl v8::V8::RemoveGCEpilogueCallback(void (__cdecl*)(enum v8::GCType,enum v8::GCCallbackFlags)))
      249    ?RemoveGCPrologueCallback@V8@v8@@SAXP6AXW4GCType@2@W4GCCallbackFlags@2@@Z@Z (public: static void __cdecl v8::V8::RemoveGCPrologueCallback(void (__cdecl*)(enum v8::GCType,enum v8::GCCallbackFlags)))
      250    ?RemoveMemoryAllocationCallback@V8@v8@@SAXP6AXW4ObjectSpace@2@W4AllocationAction@2@H@Z@Z (public: static void __cdecl v8::V8::RemoveMemoryAllocationCallback(void (__cdecl*)(enum v8::ObjectSpace,enum v8::AllocationAction,int)))
      251    ?RemoveMessageListeners@V8@v8@@SAXP6AXV?$Local@VMessage@v8@@@2@V?$Local@VValue@v8@@@2@@Z@Z (public: static void __cdecl v8::V8::RemoveMessageListeners(void (__cdecl*)(class v8::Local<class v8::Message>,class v8::Local<class v8::Value>)))
      252    ?Set@Template@v8@@QEAAXPEAVIsolate@2@PEBDV?$Local@VData@v8@@@2@@Z (public: void __cdecl v8::Template::Set(class v8::Isolate *,char const *,class v8::Local<class v8::Data>))
      253    ?SetAllowCodeGenerationFromStringsCallback@V8@v8@@SAXP6A_NV?$Local@VContext@v8@@@2@@Z@Z (public: static void __cdecl v8::V8::SetAllowCodeGenerationFromStringsCallback(bool (__cdecl*)(class v8::Local<class v8::Context>)))
      254    ?SetCaptureStackTraceForUncaughtExceptions@V8@v8@@SAX_NHW4StackTraceOptions@StackTrace@2@@Z (public: static void __cdecl v8::V8::SetCaptureStackTraceForUncaughtExceptions(bool,int,enum v8::StackTrace::StackTraceOptions))
      255    ?SetData@Isolate@v8@@QEAAXIPEAX@Z (public: void __cdecl v8::Isolate::SetData(unsigned int,void *))
      256    ?SetFailedAccessCheckCallbackFunction@V8@v8@@SAXP6AXV?$Local@VObject@v8@@@2@W4AccessType@2@V?$Local@VValue@v8@@@2@@Z@Z (public: static void __cdecl v8::V8::SetFailedAccessCheckCallbackFunction(void (__cdecl*)(class v8::Local<class v8::Object>,enum v8::AccessType,class v8::Local<class v8::Value>)))
      257    ?SetFatalErrorHandler@V8@v8@@SAXP6AXPEBD0@Z@Z (public: static void __cdecl v8::V8::SetFatalErrorHandler(void (__cdecl*)(char const *,char const *)))
      258    ?SetIndexedPropertyHandler@ObjectTemplate@v8@@QEAAXP6AXIAEBV?$PropertyCallbackInfo@VValue@v8@@@2@@ZP6AXIV?$Local@VValue@v8@@@2@0@ZP6AXIAEBV?$PropertyCallbackInfo@VInteger@v8@@@2@@ZP6AXIAEBV?$PropertyCallbackInfo@VBoolean@v8@@@2@@ZP6AXAEBV?$PropertyCallbackInfo@VArray@v8@@@2@@Z2@Z (public: void __cdecl v8::ObjectTemplate::SetIndexedPropertyHandler(void (__cdecl*)(unsigned int,class v8::PropertyCallbackInfo<class v8::Value> const &),void (__cdecl*)(unsigned int,class v8::Local<class v8::Value>,class v8::PropertyCallbackInfo<class v8::Value> const &),void (__cdecl*)(unsigned int,class v8::PropertyCallbackInfo<class v8::Integer> const &),void (__cdecl*)(unsigned int,class v8::PropertyCallbackInfo<class v8::Boolean> const &),void (__cdecl*)(class v8::PropertyCallbackInfo<class v8::Array> const &),class v8::Local<class v8::Value>))
      259    ?TerminateExecution@V8@v8@@SAXPEAVIsolate@2@@Z (public: static void __cdecl v8::V8::TerminateExecution(class v8::Isolate *))
      260    ?ToBoolean@Value@v8@@QEBA?AV?$Local@VBoolean@v8@@@2@XZ (public: class v8::Local<class v8::Boolean> __cdecl v8::Value::ToBoolean(void)const )
      261    ?ToDetailString@Value@v8@@QEBA?AV?$Local@VString@v8@@@2@XZ (public: class v8::Local<class v8::String> __cdecl v8::Value::ToDetailString(void)const )
      262    ?ToInt32@Value@v8@@QEBA?AV?$Local@VInt32@v8@@@2@XZ (public: class v8::Local<class v8::Int32> __cdecl v8::Value::ToInt32(void)const )
      263    ?ToInteger@Value@v8@@QEBA?AV?$Local@VInteger@v8@@@2@XZ (public: class v8::Local<class v8::Integer> __cdecl v8::Value::ToInteger(void)const )
      264    ?ToNumber@Value@v8@@QEBA?AV?$Local@VNumber@v8@@@2@XZ (public: class v8::Local<class v8::Number> __cdecl v8::Value::ToNumber(void)const )
      265    ?ToObject@Value@v8@@QEBA?AV?$Local@VObject@v8@@@2@XZ (public: class v8::Local<class v8::Object> __cdecl v8::Value::ToObject(void)const )
      266    ?ToString@Value@v8@@QEBA?AV?$Local@VString@v8@@@2@XZ (public: class v8::Local<class v8::String> __cdecl v8::Value::ToString(void)const )
      267    ?ToUint32@Value@v8@@QEBA?AV?$Local@VUint32@v8@@@2@XZ (public: class v8::Local<class v8::Uint32> __cdecl v8::Value::ToUint32(void)const )
      268    ?VisitExternalResources@V8@v8@@SAXPEAVExternalResourceVisitor@2@@Z (public: static void __cdecl v8::V8::VisitExternalResources(class v8::ExternalResourceVisitor *))
      269    ?VisitExternalString@ExternalResourceVisitor@v8@@UEAAXV?$Local@VString@v8@@@2@@Z (public: virtual void __cdecl v8::ExternalResourceVisitor::VisitExternalString(class v8::Local<class v8::String>))
      270    ?VisitHandlesForPartialDependence@V8@v8@@SAXPEAVIsolate@2@PEAVPersistentHandleVisitor@2@@Z (public: static void __cdecl v8::V8::VisitHandlesForPartialDependence(class v8::Isolate *,class v8::PersistentHandleVisitor *))
      271    ?VisitHandlesWithClassIds@V8@v8@@SAXPEAVIsolate@2@PEAVPersistentHandleVisitor@2@@Z (public: static void __cdecl v8::V8::VisitHandlesWithClassIds(class v8::Isolate *,class v8::PersistentHandleVisitor *))
      272    ?VisitHandlesWithClassIds@V8@v8@@SAXPEAVPersistentHandleVisitor@2@@Z (public: static void __cdecl v8::V8::VisitHandlesWithClassIds(class v8::PersistentHandleVisitor *))
      273    ?VisitPersistentHandle@PersistentHandleVisitor@v8@@UEAAXPEAV?$Persistent@VValue@v8@@V?$NonCopyablePersistentTraits@VValue@v8@@@2@@2@G@Z (public: virtual void __cdecl v8::PersistentHandleVisitor::VisitPersistentHandle(class v8::Persistent<class v8::Value,class v8::NonCopyablePersistentTraits<class v8::Value> > *,unsigned short))
      274    ?auto_enable@Extension@v8@@QEAA_NXZ (public: bool __cdecl v8::Extension::auto_enable(void))
      275    ?begin@ExtensionConfiguration@v8@@QEBAPEAPEBDXZ (public: char const * * __cdecl v8::ExtensionConfiguration::begin(void)const )
      276    ?code_range_size@ResourceConstraints@v8@@QEBA_KXZ (public: unsigned __int64 __cdecl v8::ResourceConstraints::code_range_size(void)const )
      277    ?data@ExternalOneByteStringResourceImpl@v8@@UEBAPEBDXZ (public: virtual char const * __cdecl v8::ExternalOneByteStringResourceImpl::data(void)const )
      278    ?dependencies@Extension@v8@@QEAAPEAPEBDXZ (public: char const * * __cdecl v8::Extension::dependencies(void))
      279    ?dependency_count@Extension@v8@@QEAAHXZ (public: int __cdecl v8::Extension::dependency_count(void))
      280    ?end@ExtensionConfiguration@v8@@QEBAPEAPEBDXZ (public: char const * * __cdecl v8::ExtensionConfiguration::end(void)const )
      281    ?heap_size_limit@HeapStatistics@v8@@QEAA_KXZ (public: unsigned __int64 __cdecl v8::HeapStatistics::heap_size_limit(void))
      282    ?impl@StreamedSource@ScriptCompiler@v8@@QEBAPEAU1internal@3@XZ (public: struct v8::internal::StreamedSource * __cdecl v8::ScriptCompiler::StreamedSource::impl(void)const )
      283    ?length@ExternalOneByteStringResourceImpl@v8@@UEBA_KXZ (public: virtual unsigned __int64 __cdecl v8::ExternalOneByteStringResourceImpl::length(void)const )
      284    ?length@Utf8Value@String@v8@@QEBAHXZ (public: int __cdecl v8::String::Utf8Value::length(void)const )
      285    ?length@Value@String@v8@@QEBAHXZ (public: int __cdecl v8::String::Value::length(void)const )
      286    ?max_available_threads@ResourceConstraints@v8@@QEBAHXZ (public: int __cdecl v8::ResourceConstraints::max_available_threads(void)const )
      287    ?max_executable_size@ResourceConstraints@v8@@QEBAHXZ (public: int __cdecl v8::ResourceConstraints::max_executable_size(void)const )
      288    ?max_old_space_size@ResourceConstraints@v8@@QEBAHXZ (public: int __cdecl v8::ResourceConstraints::max_old_space_size(void)const )
      289    ?max_semi_space_size@ResourceConstraints@v8@@QEBAHXZ (public: int __cdecl v8::ResourceConstraints::max_semi_space_size(void)const )
      290    ?name@Extension@v8@@QEBAPEBDXZ (public: char const * __cdecl v8::Extension::name(void)const )
      291    ?object_count@HeapObjectStatistics@v8@@QEAA_KXZ (public: unsigned __int64 __cdecl v8::HeapObjectStatistics::object_count(void))
      292    ?object_size@HeapObjectStatistics@v8@@QEAA_KXZ (public: unsigned __int64 __cdecl v8::HeapObjectStatistics::object_size(void))
      293    ?object_sub_type@HeapObjectStatistics@v8@@QEAAPEBDXZ (public: char const * __cdecl v8::HeapObjectStatistics::object_sub_type(void))
      294    ?object_type@HeapObjectStatistics@v8@@QEAAPEBDXZ (public: char const * __cdecl v8::HeapObjectStatistics::object_type(void))
      295    ?physical_space_size@HeapSpaceStatistics@v8@@QEAA_KXZ (public: unsigned __int64 __cdecl v8::HeapSpaceStatistics::physical_space_size(void))
      296    ?set_auto_enable@Extension@v8@@QEAAX_N@Z (public: void __cdecl v8::Extension::set_auto_enable(bool))
      297    ?set_code_range_size@ResourceConstraints@v8@@QEAAX_K@Z (public: void __cdecl v8::ResourceConstraints::set_code_range_size(unsigned __int64))
      298    ?set_max_available_threads@ResourceConstraints@v8@@QEAAXH@Z (public: void __cdecl v8::ResourceConstraints::set_max_available_threads(int))
      299    ?set_max_executable_size@ResourceConstraints@v8@@QEAAXH@Z (public: void __cdecl v8::ResourceConstraints::set_max_executable_size(int))
      300    ?set_max_old_space_size@ResourceConstraints@v8@@QEAAXH@Z (public: void __cdecl v8::ResourceConstraints::set_max_old_space_size(int))
      301    ?set_max_semi_space_size@ResourceConstraints@v8@@QEAAXH@Z (public: void __cdecl v8::ResourceConstraints::set_max_semi_space_size(int))
      302    ?set_stack_limit@ResourceConstraints@v8@@QEAAXPEAI@Z (public: void __cdecl v8::ResourceConstraints::set_stack_limit(unsigned int *))
      303    ?source@Extension@v8@@QEBAPEBVExternalOneByteStringResource@String@2@XZ (public: class v8::String::ExternalOneByteStringResource const * __cdecl v8::Extension::source(void)const )
      304    ?source_length@Extension@v8@@QEBA_KXZ (public: unsigned __int64 __cdecl v8::Extension::source_length(void)const )
      305    ?space_available_size@HeapSpaceStatistics@v8@@QEAA_KXZ (public: unsigned __int64 __cdecl v8::HeapSpaceStatistics::space_available_size(void))
      306    ?space_name@HeapSpaceStatistics@v8@@QEAAPEBDXZ (public: char const * __cdecl v8::HeapSpaceStatistics::space_name(void))
      307    ?space_size@HeapSpaceStatistics@v8@@QEAA_KXZ (public: unsigned __int64 __cdecl v8::HeapSpaceStatistics::space_size(void))
      308    ?space_used_size@HeapSpaceStatistics@v8@@QEAA_KXZ (public: unsigned __int64 __cdecl v8::HeapSpaceStatistics::space_used_size(void))
      309    ?stack_limit@ResourceConstraints@v8@@QEBAPEAIXZ (public: unsigned int * __cdecl v8::ResourceConstraints::stack_limit(void)const )
      310    ?total_available_size@HeapStatistics@v8@@QEAA_KXZ (public: unsigned __int64 __cdecl v8::HeapStatistics::total_available_size(void))
      311    ?total_heap_size@HeapStatistics@v8@@QEAA_KXZ (public: unsigned __int64 __cdecl v8::HeapStatistics::total_heap_size(void))
      312    ?total_heap_size_executable@HeapStatistics@v8@@QEAA_KXZ (public: unsigned __int64 __cdecl v8::HeapStatistics::total_heap_size_executable(void))
      313    ?total_physical_size@HeapStatistics@v8@@QEAA_KXZ (public: unsigned __int64 __cdecl v8::HeapStatistics::total_physical_size(void))
      314    ?used_heap_size@HeapStatistics@v8@@QEAA_KXZ (public: unsigned __int64 __cdecl v8::HeapStatistics::used_heap_size(void))
      315    _register_bindings_
